
out.elf:     file format elf32-tradlittlemips


Disassembly of section .config_BFC02FF0:

bfc02ff0 <__config_BFC02FF0>:
bfc02ff0:	ff ff fe fa                                         ....

Disassembly of section .config_BFC02FF4:

bfc02ff4 <__config_BFC02FF4>:
bfc02ff4:	d9 79 f8 ff                                         .y..

Disassembly of section .config_BFC02FF8:

bfc02ff8 <__config_BFC02FF8>:
bfc02ff8:	db ce 6c ff                                         ..l.

Disassembly of section .config_BFC02FFC:

bfc02ffc <__config_BFC02FFC>:
bfc02ffc:	ff ff ff 7e                                         ...~

Disassembly of section .reset:

bd001970 <_reset>:
bd001970:	0f40065e 	jal	bd001978 <_startup>
bd001974:	00000000 	nop

bd001978 <_startup>:
bd001978:	401a6000 	mfc0	k0,c0_status
bd00197c:	7f5a04c0 	ext	k0,k0,0x13,0x1
bd001980:	13400005 	beqz	k0,bd001998 <_no_nmi>
bd001984:	00000000 	nop
bd001988:	3c1a9d00 	lui	k0,0x9d00
bd00198c:	275a4960 	addiu	k0,k0,18784
bd001990:	03400008 	jr	k0
bd001994:	00000000 	nop

bd001998 <_no_nmi>:
bd001998:	3c1da002 	lui	sp,0xa002
bd00199c:	27bdfff8 	addiu	sp,sp,-8
bd0019a0:	3c1ca000 	lui	gp,0xa000
bd0019a4:	279c7ff0 	addiu	gp,gp,32752
bd0019a8:	40096002 	mfc0	t1,c0_srsctl
bd0019ac:	01205820 	add	t3,t1,zero
bd0019b0:	7d2a1e80 	ext	t2,t1,0x1a,0x4
bd0019b4:	7d494984 	ins	t1,t2,0x6,0x4
bd0019b8:	40896002 	mtc0	t1,c0_srsctl
bd0019bc:	000000c0 	ehb
bd0019c0:	41dce000 	wrpgpr	gp,gp
bd0019c4:	408b6002 	mtc0	t3,c0_srsctl
bd0019c8:	000000c0 	ehb
bd0019cc:	3c089d00 	lui	t0,0x9d00
bd0019d0:	250849c8 	addiu	t0,t0,18888
bd0019d4:	0100f809 	jalr	t0
bd0019d8:	00000000 	nop
bd0019dc:	3c08a000 	lui	t0,0xa000
bd0019e0:	25080008 	addiu	t0,t0,8
bd0019e4:	3c09a000 	lui	t1,0xa000
bd0019e8:	2529000c 	addiu	t1,t1,12
bd0019ec:	10000006 	b	bd001a08 <_bss_check>
bd0019f0:	00000000 	nop

bd0019f4 <_bss_init>:
bd0019f4:	ad000000 	sw	zero,0(t0)
bd0019f8:	ad000004 	sw	zero,4(t0)
bd0019fc:	ad000008 	sw	zero,8(t0)
bd001a00:	ad00000c 	sw	zero,12(t0)
bd001a04:	25080010 	addiu	t0,t0,16

bd001a08 <_bss_check>:
bd001a08:	0109082b 	sltu	at,t0,t1
bd001a0c:	1420fff9 	bnez	at,bd0019f4 <_bss_init>
bd001a10:	00000000 	nop

bd001a14 <_dinit_init>:
bd001a14:	3c089d00 	lui	t0,0x9d00
bd001a18:	25083744 	addiu	t0,t0,14148
bd001a1c:	8d090000 	lw	t1,0(t0)
bd001a20:	11200018 	beqz	t1,bd001a84 <_dinit_end+0x18>
bd001a24:	25080004 	addiu	t0,t0,4
bd001a28:	8d0a0000 	lw	t2,0(t0)
bd001a2c:	25080004 	addiu	t0,t0,4
bd001a30:	8d0b0000 	lw	t3,0(t0)
bd001a34:	11600009 	beqz	t3,bd001a5c <_dinit_clear>
bd001a38:	25080004 	addiu	t0,t0,4

bd001a3c <_dinit_copy>:
bd001a3c:	910c0000 	lbu	t4,0(t0)
bd001a40:	254affff 	addiu	t2,t2,-1
bd001a44:	25080001 	addiu	t0,t0,1
bd001a48:	a12c0000 	sb	t4,0(t1)
bd001a4c:	1540fffb 	bnez	t2,bd001a3c <_dinit_copy>
bd001a50:	25290001 	addiu	t1,t1,1
bd001a54:	10000005 	b	bd001a6c <_dinit_end>
bd001a58:	00000000 	nop

bd001a5c <_dinit_clear>:
bd001a5c:	a1200000 	sb	zero,0(t1)
bd001a60:	254affff 	addiu	t2,t2,-1
bd001a64:	1540fffd 	bnez	t2,bd001a5c <_dinit_clear>
bd001a68:	25290001 	addiu	t1,t1,1

bd001a6c <_dinit_end>:
bd001a6c:	25080003 	addiu	t0,t0,3
bd001a70:	240afffc 	li	t2,-4
bd001a74:	01484024 	and	t0,t2,t0
bd001a78:	8d090000 	lw	t1,0(t0)
bd001a7c:	1520ffe7 	bnez	t1,bd001a1c <_dinit_init+0x8>
bd001a80:	00000000 	nop
bd001a84:	3c090000 	lui	t1,0x0
bd001a88:	25290000 	addiu	t1,t1,0
bd001a8c:	11200010 	beqz	t1,bd001ad0 <_ramfunc_done>
bd001a90:	00000000 	nop
bd001a94:	3c090002 	lui	t1,0x2
bd001a98:	25290000 	addiu	t1,t1,0
bd001a9c:	3c0abf88 	lui	t2,0xbf88
bd001aa0:	254a2010 	addiu	t2,t2,8208
bd001aa4:	ad490000 	sw	t1,0(t2)
bd001aa8:	3c090002 	lui	t1,0x2
bd001aac:	25290000 	addiu	t1,t1,0
bd001ab0:	3c0abf88 	lui	t2,0xbf88
bd001ab4:	254a2020 	addiu	t2,t2,8224
bd001ab8:	ad490000 	sw	t1,0(t2)
bd001abc:	3c090002 	lui	t1,0x2
bd001ac0:	25290000 	addiu	t1,t1,0
bd001ac4:	3c0abf88 	lui	t2,0xbf88
bd001ac8:	254a2030 	addiu	t2,t2,8240
bd001acc:	ad490000 	sw	t1,0(t2)

bd001ad0 <_ramfunc_done>:
bd001ad0:	40804800 	mtc0	zero,c0_count
bd001ad4:	240affff 	li	t2,-1
bd001ad8:	408a5800 	mtc0	t2,c0_compare
bd001adc:	3c080040 	lui	t0,0x40
bd001ae0:	400a6000 	mfc0	t2,c0_status
bd001ae4:	010a5025 	or	t2,t0,t2
bd001ae8:	408a6000 	mtc0	t2,c0_status
bd001aec:	3c099d00 	lui	t1,0x9d00
bd001af0:	25290000 	addiu	t1,t1,0
bd001af4:	000000c0 	ehb
bd001af8:	40897801 	mtc0	t1,c0_ebase
bd001afc:	3c090000 	lui	t1,0x0
bd001b00:	25290001 	addiu	t1,t1,1
bd001b04:	240a0000 	li	t2,0
bd001b08:	7d2a4944 	ins	t2,t1,0x5,0x5
bd001b0c:	408a6001 	mtc0	t2,c0_intctl
bd001b10:	3c090080 	lui	t1,0x80
bd001b14:	40896800 	mtc0	t1,c0_cause
bd001b18:	40088000 	mfc0	t0,c0_config
bd001b1c:	7d090580 	ext	t1,t0,0x16,0x1
bd001b20:	00094c40 	sll	t1,t1,0x11
bd001b24:	40086000 	mfc0	t0,c0_status
bd001b28:	3c010058 	lui	at,0x58
bd001b2c:	01014024 	and	t0,t0,at
bd001b30:	01284025 	or	t0,t1,t0
bd001b34:	40886000 	mtc0	t0,c0_status
bd001b38:	000000c0 	ehb
bd001b3c:	3c089d00 	lui	t0,0x9d00
bd001b40:	250849d0 	addiu	t0,t0,18896
bd001b44:	0100f809 	jalr	t0
bd001b48:	00000000 	nop
bd001b4c:	40086000 	mfc0	t0,c0_status
bd001b50:	3c01ffbf 	lui	at,0xffbf
bd001b54:	3421ffff 	ori	at,at,0xffff
bd001b58:	01014024 	and	t0,t0,at
bd001b5c:	40886000 	mtc0	t0,c0_status
bd001b60:	30840000 	andi	a0,a0,0x0
bd001b64:	30a50000 	andi	a1,a1,0x0
bd001b68:	3c089d00 	lui	t0,0x9d00
bd001b6c:	25084698 	addiu	t0,t0,18072
bd001b70:	01000008 	jr	t0
bd001b74:	00000000 	nop

Disassembly of section .bev_excpt:

bd001cf0 <_bev_exception>:
bd001cf0:	3c1a9d00 	lui	k0,0x9d00
bd001cf4:	275a4738 	addiu	k0,k0,18232
bd001cf8:	03400008 	jr	k0
bd001cfc:	00000000 	nop

Disassembly of section .app_excpt:

9d000180 <_gen_exception>:
9d000180:	3c1a9d00 	lui	k0,0x9d00
9d000184:	275a3fe0 	addiu	k0,k0,16352
9d000188:	03400008 	jr	k0
9d00018c:	00000000 	nop

Disassembly of section .vector_0:

9d000200 <__vector_dispatch_0>:
9d000200:	0b4011f2 	j	9d0047c8 <.LFE0>
9d000204:	00000000 	nop

Disassembly of section .vector_1:

9d000220 <__vector_dispatch_1>:
9d000220:	0b4011f2 	j	9d0047c8 <.LFE0>
9d000224:	00000000 	nop

Disassembly of section .vector_2:

9d000240 <__vector_dispatch_2>:
9d000240:	0b4011f2 	j	9d0047c8 <.LFE0>
9d000244:	00000000 	nop

Disassembly of section .vector_3:

9d000260 <__vector_dispatch_3>:
9d000260:	0b4011f2 	j	9d0047c8 <.LFE0>
9d000264:	00000000 	nop

Disassembly of section .vector_4:

9d000280 <__vector_dispatch_4>:
9d000280:	0b4011f2 	j	9d0047c8 <.LFE0>
9d000284:	00000000 	nop

Disassembly of section .vector_5:

9d0002a0 <__vector_dispatch_5>:
9d0002a0:	0b4011f2 	j	9d0047c8 <.LFE0>
9d0002a4:	00000000 	nop

Disassembly of section .vector_6:

9d0002c0 <__vector_dispatch_6>:
9d0002c0:	0b4011f2 	j	9d0047c8 <.LFE0>
9d0002c4:	00000000 	nop

Disassembly of section .vector_7:

9d0002e0 <__vector_dispatch_7>:
9d0002e0:	0b4011f2 	j	9d0047c8 <.LFE0>
9d0002e4:	00000000 	nop

Disassembly of section .vector_8:

9d000300 <__vector_dispatch_8>:
9d000300:	0b4011f2 	j	9d0047c8 <.LFE0>
9d000304:	00000000 	nop

Disassembly of section .vector_9:

9d000320 <__vector_dispatch_9>:
9d000320:	0b4011f2 	j	9d0047c8 <.LFE0>
9d000324:	00000000 	nop

Disassembly of section .vector_10:

9d000340 <__vector_dispatch_10>:
9d000340:	0b4011f2 	j	9d0047c8 <.LFE0>
9d000344:	00000000 	nop

Disassembly of section .vector_11:

9d000360 <__vector_dispatch_11>:
9d000360:	0b4011f2 	j	9d0047c8 <.LFE0>
9d000364:	00000000 	nop

Disassembly of section .vector_12:

9d000380 <__vector_dispatch_12>:
9d000380:	0b4011f2 	j	9d0047c8 <.LFE0>
9d000384:	00000000 	nop

Disassembly of section .vector_13:

9d0003a0 <__vector_dispatch_13>:
9d0003a0:	0b4011f2 	j	9d0047c8 <.LFE0>
9d0003a4:	00000000 	nop

Disassembly of section .vector_14:

9d0003c0 <__vector_dispatch_14>:
9d0003c0:	0b4011f2 	j	9d0047c8 <.LFE0>
9d0003c4:	00000000 	nop

Disassembly of section .vector_15:

9d0003e0 <__vector_dispatch_15>:
9d0003e0:	0b4011f2 	j	9d0047c8 <.LFE0>
9d0003e4:	00000000 	nop

Disassembly of section .vector_16:

9d000400 <__vector_dispatch_16>:
9d000400:	0b4011f2 	j	9d0047c8 <.LFE0>
9d000404:	00000000 	nop

Disassembly of section .vector_17:

9d000420 <__vector_dispatch_17>:
9d000420:	0b4011f2 	j	9d0047c8 <.LFE0>
9d000424:	00000000 	nop

Disassembly of section .vector_18:

9d000440 <__vector_dispatch_18>:
9d000440:	0b4011f2 	j	9d0047c8 <.LFE0>
9d000444:	00000000 	nop

Disassembly of section .vector_19:

9d000460 <__vector_dispatch_19>:
9d000460:	0b4011f2 	j	9d0047c8 <.LFE0>
9d000464:	00000000 	nop

Disassembly of section .vector_20:

9d000480 <__vector_dispatch_20>:
9d000480:	0b4011f2 	j	9d0047c8 <.LFE0>
9d000484:	00000000 	nop

Disassembly of section .vector_21:

9d0004a0 <__vector_dispatch_21>:
9d0004a0:	0b4011f2 	j	9d0047c8 <.LFE0>
9d0004a4:	00000000 	nop

Disassembly of section .vector_22:

9d0004c0 <__vector_dispatch_22>:
9d0004c0:	0b4011f2 	j	9d0047c8 <.LFE0>
9d0004c4:	00000000 	nop

Disassembly of section .vector_23:

9d0004e0 <__vector_dispatch_23>:
9d0004e0:	0b4011f2 	j	9d0047c8 <.LFE0>
9d0004e4:	00000000 	nop

Disassembly of section .vector_24:

9d000500 <__vector_dispatch_24>:
9d000500:	0b4011f2 	j	9d0047c8 <.LFE0>
9d000504:	00000000 	nop

Disassembly of section .vector_25:

9d000520 <__vector_dispatch_25>:
9d000520:	0b4011f2 	j	9d0047c8 <.LFE0>
9d000524:	00000000 	nop

Disassembly of section .vector_26:

9d000540 <__vector_dispatch_26>:
9d000540:	0b4011f2 	j	9d0047c8 <.LFE0>
9d000544:	00000000 	nop

Disassembly of section .vector_27:

9d000560 <__vector_dispatch_27>:
9d000560:	0b4011f2 	j	9d0047c8 <.LFE0>
9d000564:	00000000 	nop

Disassembly of section .vector_28:

9d000580 <__vector_dispatch_28>:
9d000580:	0b4011f2 	j	9d0047c8 <.LFE0>
9d000584:	00000000 	nop

Disassembly of section .vector_29:

9d0005a0 <__vector_dispatch_29>:
9d0005a0:	0b4011f2 	j	9d0047c8 <.LFE0>
9d0005a4:	00000000 	nop

Disassembly of section .vector_30:

9d0005c0 <__vector_dispatch_30>:
9d0005c0:	0b4011f2 	j	9d0047c8 <.LFE0>
9d0005c4:	00000000 	nop

Disassembly of section .vector_31:

9d0005e0 <__vector_dispatch_31>:
9d0005e0:	0b4011f2 	j	9d0047c8 <.LFE0>
9d0005e4:	00000000 	nop

Disassembly of section .vector_32:

9d000600 <__vector_dispatch_32>:
9d000600:	0b4011f2 	j	9d0047c8 <.LFE0>
9d000604:	00000000 	nop

Disassembly of section .vector_33:

9d000620 <__vector_dispatch_33>:
9d000620:	0b4011f2 	j	9d0047c8 <.LFE0>
9d000624:	00000000 	nop

Disassembly of section .vector_34:

9d000640 <__vector_dispatch_34>:
9d000640:	0b4011f2 	j	9d0047c8 <.LFE0>
9d000644:	00000000 	nop

Disassembly of section .vector_35:

9d000660 <__vector_dispatch_35>:
9d000660:	0b4011f2 	j	9d0047c8 <.LFE0>
9d000664:	00000000 	nop

Disassembly of section .vector_36:

9d000680 <__vector_dispatch_36>:
9d000680:	0b4011f2 	j	9d0047c8 <.LFE0>
9d000684:	00000000 	nop

Disassembly of section .vector_37:

9d0006a0 <__vector_dispatch_37>:
9d0006a0:	0b4011f2 	j	9d0047c8 <.LFE0>
9d0006a4:	00000000 	nop

Disassembly of section .vector_38:

9d0006c0 <__vector_dispatch_38>:
9d0006c0:	0b4011f2 	j	9d0047c8 <.LFE0>
9d0006c4:	00000000 	nop

Disassembly of section .vector_39:

9d0006e0 <__vector_dispatch_39>:
9d0006e0:	0b4011f2 	j	9d0047c8 <.LFE0>
9d0006e4:	00000000 	nop

Disassembly of section .vector_40:

9d000700 <__vector_dispatch_40>:
9d000700:	0b4011f2 	j	9d0047c8 <.LFE0>
9d000704:	00000000 	nop

Disassembly of section .vector_41:

9d000720 <__vector_dispatch_41>:
9d000720:	0b4011f2 	j	9d0047c8 <.LFE0>
9d000724:	00000000 	nop

Disassembly of section .vector_42:

9d000740 <__vector_dispatch_42>:
9d000740:	0b4011f2 	j	9d0047c8 <.LFE0>
9d000744:	00000000 	nop

Disassembly of section .vector_43:

9d000760 <__vector_dispatch_43>:
9d000760:	0b4011f2 	j	9d0047c8 <.LFE0>
9d000764:	00000000 	nop

Disassembly of section .vector_44:

9d000780 <__vector_dispatch_44>:
9d000780:	0b4011f2 	j	9d0047c8 <.LFE0>
9d000784:	00000000 	nop

Disassembly of section .vector_45:

9d0007a0 <__vector_dispatch_45>:
9d0007a0:	0b4011f2 	j	9d0047c8 <.LFE0>
9d0007a4:	00000000 	nop

Disassembly of section .vector_46:

9d0007c0 <__vector_dispatch_46>:
9d0007c0:	0b4011f2 	j	9d0047c8 <.LFE0>
9d0007c4:	00000000 	nop

Disassembly of section .vector_47:

9d0007e0 <__vector_dispatch_47>:
9d0007e0:	0b4011f2 	j	9d0047c8 <.LFE0>
9d0007e4:	00000000 	nop

Disassembly of section .vector_48:

9d000800 <__vector_dispatch_48>:
9d000800:	0b4011f2 	j	9d0047c8 <.LFE0>
9d000804:	00000000 	nop

Disassembly of section .vector_49:

9d000820 <__vector_dispatch_49>:
9d000820:	0b4011f2 	j	9d0047c8 <.LFE0>
9d000824:	00000000 	nop

Disassembly of section .vector_50:

9d000840 <__vector_dispatch_50>:
9d000840:	0b4011f2 	j	9d0047c8 <.LFE0>
9d000844:	00000000 	nop

Disassembly of section .vector_51:

9d000860 <__vector_dispatch_51>:
9d000860:	0b4011f2 	j	9d0047c8 <.LFE0>
9d000864:	00000000 	nop

Disassembly of section ._debug_exception:

bfc00480 <__DbgExecReturn>:
bfc00480:	409bf800 	mtc0	k1,c0_desave
bfc00484:	000000c0 	ehb
bfc00488:	3c1b9d00 	lui	k1,0x9d00
bfc0048c:	277b4810 	addiu	k1,k1,18448
bfc00490:	13600002 	beqz	k1,bfc0049c <__DbgExecReturn+0x1c>
bfc00494:	00000000 	nop
bfc00498:	409bc000 	mtc0	k1,c0_depc
bfc0049c:	401bf800 	mfc0	k1,c0_desave
bfc004a0:	000000c0 	ehb
bfc004a4:	4200001f 	deret
bfc004a8:	00000000 	nop

Disassembly of section .text._do_print_cdnopuxX:

9d001e00 <_do_print_cdnopuxX>:
9d001e00:	27bdff68 	addiu	sp,sp,-152
9d001e04:	afbf0094 	sw	ra,148(sp)
9d001e08:	afbe0090 	sw	s8,144(sp)
9d001e0c:	afb7008c 	sw	s7,140(sp)
9d001e10:	afb60088 	sw	s6,136(sp)
9d001e14:	afb50084 	sw	s5,132(sp)
9d001e18:	afb40080 	sw	s4,128(sp)
9d001e1c:	afb3007c 	sw	s3,124(sp)
9d001e20:	afb20078 	sw	s2,120(sp)
9d001e24:	afb10074 	sw	s1,116(sp)
9d001e28:	afb00070 	sw	s0,112(sp)
9d001e2c:	afa40098 	sw	a0,152(sp)
9d001e30:	8c820018 	lw	v0,24(a0)
9d001e34:	00a09021 	move	s2,a1
9d001e38:	24050001 	li	a1,1
9d001e3c:	8c420010 	lw	v0,16(v0)
9d001e40:	0040f809 	jalr	v0
9d001e44:	afa600a0 	sw	a2,160(sp)
9d001e48:	104001c0 	beqz	v0,9d00254c <_do_print_cdnopuxX+0x74c>
9d001e4c:	27a20058 	addiu	v0,sp,88
9d001e50:	afa00060 	sw	zero,96(sp)
9d001e54:	afa20058 	sw	v0,88(sp)
9d001e58:	82440000 	lb	a0,0(s2)
9d001e5c:	1080000d 	beqz	a0,9d001e94 <_do_print_cdnopuxX+0x94>
9d001e60:	26500001 	addiu	s0,s2,1
9d001e64:	24020025 	li	v0,37
9d001e68:	5082001c 	beql	a0,v0,9d001edc <_do_print_cdnopuxX+0xdc>
9d001e6c:	82420001 	lb	v0,1(s2)
9d001e70:	0f4010ba 	jal	9d0042e8 <fputc>
9d001e74:	8fa50098 	lw	a1,152(sp)
9d001e78:	8fa30060 	lw	v1,96(sp)
9d001e7c:	24630001 	addiu	v1,v1,1
9d001e80:	afa30060 	sw	v1,96(sp)
9d001e84:	02009021 	move	s2,s0
9d001e88:	82440000 	lb	a0,0(s2)
9d001e8c:	1480fff5 	bnez	a0,9d001e64 <_do_print_cdnopuxX+0x64>
9d001e90:	26500001 	addiu	s0,s2,1
9d001e94:	8fa40098 	lw	a0,152(sp)
9d001e98:	94820010 	lhu	v0,16(a0)
9d001e9c:	30420040 	andi	v0,v0,0x40
9d001ea0:	144001ab 	bnez	v0,9d002550 <_do_print_cdnopuxX+0x750>
9d001ea4:	2402ffff 	li	v0,-1
9d001ea8:	8fa20060 	lw	v0,96(sp)
9d001eac:	8fbf0094 	lw	ra,148(sp)
9d001eb0:	8fbe0090 	lw	s8,144(sp)
9d001eb4:	8fb7008c 	lw	s7,140(sp)
9d001eb8:	8fb60088 	lw	s6,136(sp)
9d001ebc:	8fb50084 	lw	s5,132(sp)
9d001ec0:	8fb40080 	lw	s4,128(sp)
9d001ec4:	8fb3007c 	lw	s3,124(sp)
9d001ec8:	8fb20078 	lw	s2,120(sp)
9d001ecc:	8fb10074 	lw	s1,116(sp)
9d001ed0:	8fb00070 	lw	s0,112(sp)
9d001ed4:	03e00008 	jr	ra
9d001ed8:	27bd0098 	addiu	sp,sp,152
9d001edc:	1044017a 	beq	v0,a0,9d0024c8 <_do_print_cdnopuxX+0x6c8>
9d001ee0:	0000b821 	move	s7,zero
9d001ee4:	2403002d 	li	v1,45
9d001ee8:	2404002b 	li	a0,43
9d001eec:	24050020 	li	a1,32
9d001ef0:	24060023 	li	a2,35
9d001ef4:	1043000e 	beq	v0,v1,9d001f30 <_do_print_cdnopuxX+0x130>
9d001ef8:	24070030 	li	a3,48
9d001efc:	50440010 	beql	v0,a0,9d001f40 <_do_print_cdnopuxX+0x140>
9d001f00:	36f70002 	ori	s7,s7,0x2
9d001f04:	50450011 	beql	v0,a1,9d001f4c <_do_print_cdnopuxX+0x14c>
9d001f08:	36f70001 	ori	s7,s7,0x1
9d001f0c:	50460012 	beql	v0,a2,9d001f58 <_do_print_cdnopuxX+0x158>
9d001f10:	36f70800 	ori	s7,s7,0x800
9d001f14:	54470013 	bnel	v0,a3,9d001f64 <_do_print_cdnopuxX+0x164>
9d001f18:	2403002a 	li	v1,42
9d001f1c:	36f70004 	ori	s7,s7,0x4
9d001f20:	26100001 	addiu	s0,s0,1
9d001f24:	82020000 	lb	v0,0(s0)
9d001f28:	1443fff4 	bne	v0,v1,9d001efc <_do_print_cdnopuxX+0xfc>
9d001f2c:	00000000 	nop
9d001f30:	36f70008 	ori	s7,s7,0x8
9d001f34:	26100001 	addiu	s0,s0,1
9d001f38:	0b4007ca 	j	9d001f28 <_do_print_cdnopuxX+0x128>
9d001f3c:	82020000 	lb	v0,0(s0)
9d001f40:	26100001 	addiu	s0,s0,1
9d001f44:	0b4007ca 	j	9d001f28 <_do_print_cdnopuxX+0x128>
9d001f48:	82020000 	lb	v0,0(s0)
9d001f4c:	26100001 	addiu	s0,s0,1
9d001f50:	0b4007ca 	j	9d001f28 <_do_print_cdnopuxX+0x128>
9d001f54:	82020000 	lb	v0,0(s0)
9d001f58:	26100001 	addiu	s0,s0,1
9d001f5c:	0b4007ca 	j	9d001f28 <_do_print_cdnopuxX+0x128>
9d001f60:	82020000 	lb	v0,0(s0)
9d001f64:	10430101 	beq	v0,v1,9d00236c <_do_print_cdnopuxX+0x56c>
9d001f68:	02002021 	move	a0,s0
9d001f6c:	2443ffd0 	addiu	v1,v0,-48
9d001f70:	2c63000a 	sltiu	v1,v1,10
9d001f74:	1060000b 	beqz	v1,9d001fa4 <_do_print_cdnopuxX+0x1a4>
9d001f78:	0000b021 	move	s6,zero
9d001f7c:	00161840 	sll	v1,s6,0x1
9d001f80:	001650c0 	sll	t2,s6,0x3
9d001f84:	006a5021 	addu	t2,v1,t2
9d001f88:	26100001 	addiu	s0,s0,1
9d001f8c:	01425021 	addu	t2,t2,v0
9d001f90:	82020000 	lb	v0,0(s0)
9d001f94:	2443ffd0 	addiu	v1,v0,-48
9d001f98:	2c63000a 	sltiu	v1,v1,10
9d001f9c:	1460fff7 	bnez	v1,9d001f7c <_do_print_cdnopuxX+0x17c>
9d001fa0:	2556ffd0 	addiu	s6,t2,-48
9d001fa4:	2403002e 	li	v1,46
9d001fa8:	104300fc 	beq	v0,v1,9d00239c <_do_print_cdnopuxX+0x59c>
9d001fac:	241effff 	li	s8,-1
9d001fb0:	24030068 	li	v1,104
9d001fb4:	5043010f 	beql	v0,v1,9d0023f4 <_do_print_cdnopuxX+0x5f4>
9d001fb8:	82030001 	lb	v1,1(s0)
9d001fbc:	2403006c 	li	v1,108
9d001fc0:	1043011d 	beq	v0,v1,9d002438 <_do_print_cdnopuxX+0x638>
9d001fc4:	24030071 	li	v1,113
9d001fc8:	10430147 	beq	v0,v1,9d0024e8 <_do_print_cdnopuxX+0x6e8>
9d001fcc:	2403004c 	li	v1,76
9d001fd0:	504301c7 	beql	v0,v1,9d0026f0 <_do_print_cdnopuxX+0x8f0>
9d001fd4:	82020001 	lb	v0,1(s0)
9d001fd8:	32e40002 	andi	a0,s7,0x2
9d001fdc:	32e3fffe 	andi	v1,s7,0xfffe
9d001fe0:	0064b80b 	movn	s7,v1,a0
9d001fe4:	2442ffbc 	addiu	v0,v0,-68
9d001fe8:	32e50008 	andi	a1,s7,0x8
9d001fec:	32e4fffb 	andi	a0,s7,0xfffb
9d001ff0:	2c430035 	sltiu	v1,v0,53
9d001ff4:	26120001 	addiu	s2,s0,1
9d001ff8:	1060010d 	beqz	v1,9d002430 <_do_print_cdnopuxX+0x630>
9d001ffc:	0085b80b 	movn	s7,a0,a1
9d002000:	00021080 	sll	v0,v0,0x2
9d002004:	3c049d00 	lui	a0,0x9d00
9d002008:	2484201c 	addiu	a0,a0,8220
9d00200c:	00821021 	addu	v0,a0,v0
9d002010:	8c420000 	lw	v0,0(v0)
9d002014:	00400008 	jr	v0
9d002018:	00000000 	nop
9d00201c:	9d0022e4 	0x9d0022e4
9d002020:	9d002430 	0x9d002430
9d002024:	9d002430 	0x9d002430
9d002028:	9d002430 	0x9d002430
9d00202c:	9d002430 	0x9d002430
9d002030:	9d002430 	0x9d002430
9d002034:	9d002430 	0x9d002430
9d002038:	9d002430 	0x9d002430
9d00203c:	9d002430 	0x9d002430
9d002040:	9d002430 	0x9d002430
9d002044:	9d002430 	0x9d002430
9d002048:	9d0026a8 	0x9d0026a8
9d00204c:	9d002288 	0x9d002288
9d002050:	9d002430 	0x9d002430
9d002054:	9d002430 	0x9d002430
9d002058:	9d002430 	0x9d002430
9d00205c:	9d002430 	0x9d002430
9d002060:	9d0020f0 	0x9d0020f0
9d002064:	9d002430 	0x9d002430
9d002068:	9d002430 	0x9d002430
9d00206c:	9d0022f8 	0x9d0022f8
9d002070:	9d002430 	0x9d002430
9d002074:	9d002430 	0x9d002430
9d002078:	9d002430 	0x9d002430
9d00207c:	9d002430 	0x9d002430
9d002080:	9d002430 	0x9d002430
9d002084:	9d002430 	0x9d002430
9d002088:	9d002430 	0x9d002430
9d00208c:	9d002430 	0x9d002430
9d002090:	9d002430 	0x9d002430
9d002094:	9d002430 	0x9d002430
9d002098:	9d002674 	0x9d002674
9d00209c:	9d0022e8 	0x9d0022e8
9d0020a0:	9d002430 	0x9d002430
9d0020a4:	9d002430 	0x9d002430
9d0020a8:	9d002430 	0x9d002430
9d0020ac:	9d002430 	0x9d002430
9d0020b0:	9d0022e8 	0x9d0022e8
9d0020b4:	9d002430 	0x9d002430
9d0020b8:	9d002430 	0x9d002430
9d0020bc:	9d002430 	0x9d002430
9d0020c0:	9d002430 	0x9d002430
9d0020c4:	9d00262c 	0x9d00262c
9d0020c8:	9d0025b0 	0x9d0025b0
9d0020cc:	9d00228c 	0x9d00228c
9d0020d0:	9d002430 	0x9d002430
9d0020d4:	9d002430 	0x9d002430
9d0020d8:	9d0025b8 	0x9d0025b8
9d0020dc:	9d002430 	0x9d002430
9d0020e0:	9d0020f4 	0x9d0020f4
9d0020e4:	9d002430 	0x9d002430
9d0020e8:	9d002430 	0x9d002430
9d0020ec:	9d0022fc 	0x9d0022fc
9d0020f0:	36f70010 	ori	s7,s7,0x10
9d0020f4:	32f7f7ff 	andi	s7,s7,0xf7ff
9d0020f8:	2410000a 	li	s0,10
9d0020fc:	2402ffff 	li	v0,-1
9d002100:	13c20067 	beq	s8,v0,9d0022a0 <_do_print_cdnopuxX+0x4a0>
9d002104:	00002821 	move	a1,zero
9d002108:	32f7fffb 	andi	s7,s7,0xfffb
9d00210c:	27c5ffff 	addiu	a1,s8,-1
9d002110:	32e200c0 	andi	v0,s7,0xc0
9d002114:	10400066 	beqz	v0,9d0022b0 <_do_print_cdnopuxX+0x4b0>
9d002118:	afa20064 	sw	v0,100(sp)
9d00211c:	7c171620 	seh	v0,s7
9d002120:	0440017c 	bltz	v0,9d002714 <_do_print_cdnopuxX+0x914>
9d002124:	32e20010 	andi	v0,s7,0x10
9d002128:	104000f3 	beqz	v0,9d0024f8 <_do_print_cdnopuxX+0x6f8>
9d00212c:	32e20041 	andi	v0,s7,0x41
9d002130:	8fa400a0 	lw	a0,160(sp)
9d002134:	8c950000 	lw	s5,0(a0)
9d002138:	24840004 	addiu	a0,a0,4
9d00213c:	afa400a0 	sw	a0,160(sp)
9d002140:	0015a7c3 	sra	s4,s5,0x1f
9d002144:	02801021 	move	v0,s4
9d002148:	0440010d 	bltz	v0,9d002580 <_do_print_cdnopuxX+0x780>
9d00214c:	02a01821 	move	v1,s5
9d002150:	afa0006c 	sw	zero,108(sp)
9d002154:	128000bf 	beqz	s4,9d002454 <_do_print_cdnopuxX+0x654>
9d002158:	02b41025 	or	v0,s5,s4
9d00215c:	10400199 	beqz	v0,9d0027c4 <_do_print_cdnopuxX+0x9c4>
9d002160:	27a20057 	addiu	v0,sp,87
9d002164:	afa20068 	sw	v0,104(sp)
9d002168:	32e30020 	andi	v1,s7,0x20
9d00216c:	24040037 	li	a0,55
9d002170:	00108fc3 	sra	s1,s0,0x1f
9d002174:	00409821 	move	s3,v0
9d002178:	24020057 	li	v0,87
9d00217c:	0043200a 	movz	a0,v0,v1
9d002180:	afa4005c 	sw	a0,92(sp)
9d002184:	02a02021 	move	a0,s5
9d002188:	02802821 	move	a1,s4
9d00218c:	02003021 	move	a2,s0
9d002190:	0f400a23 	jal	9d00288c <__umoddi3>
9d002194:	02203821 	move	a3,s1
9d002198:	2843000a 	slti	v1,v0,10
9d00219c:	24460030 	addiu	a2,v0,48
9d0021a0:	8fa4005c 	lw	a0,92(sp)
9d0021a4:	00441021 	addu	v0,v0,a0
9d0021a8:	0043300a 	movz	a2,v0,v1
9d0021ac:	2673ffff 	addiu	s3,s3,-1
9d0021b0:	02a02021 	move	a0,s5
9d0021b4:	02802821 	move	a1,s4
9d0021b8:	a2660001 	sb	a2,1(s3)
9d0021bc:	02003021 	move	a2,s0
9d0021c0:	0f400b3c 	jal	9d002cf0 <__udivdi3>
9d0021c4:	02203821 	move	a3,s1
9d0021c8:	00622025 	or	a0,v1,v0
9d0021cc:	0040a821 	move	s5,v0
9d0021d0:	0060a021 	move	s4,v1
9d0021d4:	1480ffeb 	bnez	a0,9d002184 <_do_print_cdnopuxX+0x384>
9d0021d8:	27deffff 	addiu	s8,s8,-1
9d0021dc:	27c5ffff 	addiu	a1,s8,-1
9d0021e0:	04a0000a 	bltz	a1,9d00220c <_do_print_cdnopuxX+0x40c>
9d0021e4:	02601021 	move	v0,s3
9d0021e8:	2664ffff 	addiu	a0,s3,-1
9d0021ec:	00852023 	subu	a0,a0,a1
9d0021f0:	24030030 	li	v1,48
9d0021f4:	a0430000 	sb	v1,0(v0)
9d0021f8:	2442ffff 	addiu	v0,v0,-1
9d0021fc:	5444fffe 	bnel	v0,a0,9d0021f8 <_do_print_cdnopuxX+0x3f8>
9d002200:	a0430000 	sb	v1,0(v0)
9d002204:	00052827 	nor	a1,zero,a1
9d002208:	02659821 	addu	s3,s3,a1
9d00220c:	32e20004 	andi	v0,s7,0x4
9d002210:	1440003c 	bnez	v0,9d002304 <_do_print_cdnopuxX+0x504>
9d002214:	32e40800 	andi	a0,s7,0x800
9d002218:	3084ffff 	andi	a0,a0,0xffff
9d00221c:	50800007 	beqzl	a0,9d00223c <_do_print_cdnopuxX+0x43c>
9d002220:	8fa30064 	lw	v1,100(sp)
9d002224:	24020008 	li	v0,8
9d002228:	12020133 	beq	s0,v0,9d0026f8 <_do_print_cdnopuxX+0x8f8>
9d00222c:	24020010 	li	v0,16
9d002230:	1202015c 	beq	s0,v0,9d0027a4 <_do_print_cdnopuxX+0x9a4>
9d002234:	32e40020 	andi	a0,s7,0x20
9d002238:	8fa30064 	lw	v1,100(sp)
9d00223c:	10600007 	beqz	v1,9d00225c <_do_print_cdnopuxX+0x45c>
9d002240:	8fa4006c 	lw	a0,108(sp)
9d002244:	1480009c 	bnez	a0,9d0024b8 <_do_print_cdnopuxX+0x6b8>
9d002248:	32e20002 	andi	v0,s7,0x2
9d00224c:	10400003 	beqz	v0,9d00225c <_do_print_cdnopuxX+0x45c>
9d002250:	2402002b 	li	v0,43
9d002254:	a2620000 	sb	v0,0(s3)
9d002258:	2673ffff 	addiu	s3,s3,-1
9d00225c:	26650001 	addiu	a1,s3,1
9d002260:	afb70010 	sw	s7,16(sp)
9d002264:	8fa40098 	lw	a0,152(sp)
9d002268:	8fa20058 	lw	v0,88(sp)
9d00226c:	00453023 	subu	a2,v0,a1
9d002270:	0f400e29 	jal	9d0038a4 <_outcnvrt>
9d002274:	02c03821 	move	a3,s6
9d002278:	8fa30060 	lw	v1,96(sp)
9d00227c:	00621821 	addu	v1,v1,v0
9d002280:	0b400796 	j	9d001e58 <_do_print_cdnopuxX+0x58>
9d002284:	afa30060 	sw	v1,96(sp)
9d002288:	36f70020 	ori	s7,s7,0x20
9d00228c:	36f70810 	ori	s7,s7,0x810
9d002290:	2402ffff 	li	v0,-1
9d002294:	17c2ff9c 	bne	s8,v0,9d002108 <_do_print_cdnopuxX+0x308>
9d002298:	24100010 	li	s0,16
9d00229c:	00002821 	move	a1,zero
9d0022a0:	241e0001 	li	s8,1
9d0022a4:	32e200c0 	andi	v0,s7,0xc0
9d0022a8:	1440ff9c 	bnez	v0,9d00211c <_do_print_cdnopuxX+0x31c>
9d0022ac:	afa20064 	sw	v0,100(sp)
9d0022b0:	7c171620 	seh	v0,s7
9d0022b4:	04400124 	bltz	v0,9d002748 <_do_print_cdnopuxX+0x948>
9d0022b8:	8fa400a0 	lw	a0,160(sp)
9d0022bc:	32e20010 	andi	v0,s7,0x10
9d0022c0:	50400099 	beqzl	v0,9d002528 <_do_print_cdnopuxX+0x728>
9d0022c4:	32e20041 	andi	v0,s7,0x41
9d0022c8:	8fa400a0 	lw	a0,160(sp)
9d0022cc:	8c950000 	lw	s5,0(a0)
9d0022d0:	0000a021 	move	s4,zero
9d0022d4:	24840004 	addiu	a0,a0,4
9d0022d8:	afa400a0 	sw	a0,160(sp)
9d0022dc:	0b400855 	j	9d002154 <_do_print_cdnopuxX+0x354>
9d0022e0:	afa0006c 	sw	zero,108(sp)
9d0022e4:	36f70010 	ori	s7,s7,0x10
9d0022e8:	32e8f7ff 	andi	t0,s7,0xf7ff
9d0022ec:	351700c0 	ori	s7,t0,0xc0
9d0022f0:	0b40083f 	j	9d0020fc <_do_print_cdnopuxX+0x2fc>
9d0022f4:	2410000a 	li	s0,10
9d0022f8:	36f70020 	ori	s7,s7,0x20
9d0022fc:	0b40083f 	j	9d0020fc <_do_print_cdnopuxX+0x2fc>
9d002300:	24100010 	li	s0,16
9d002304:	8fa20068 	lw	v0,104(sp)
9d002308:	02621823 	subu	v1,s3,v0
9d00230c:	3084ffff 	andi	a0,a0,0xffff
9d002310:	10800006 	beqz	a0,9d00232c <_do_print_cdnopuxX+0x52c>
9d002314:	02c31821 	addu	v1,s6,v1
9d002318:	24020008 	li	v0,8
9d00231c:	12020131 	beq	s0,v0,9d0027e4 <_do_print_cdnopuxX+0x9e4>
9d002320:	2462fffe 	addiu	v0,v1,-2
9d002324:	3a050010 	xori	a1,s0,0x10
9d002328:	0045180a 	movz	v1,v0,a1
9d00232c:	8fa20064 	lw	v0,100(sp)
9d002330:	10400004 	beqz	v0,9d002344 <_do_print_cdnopuxX+0x544>
9d002334:	8fa2006c 	lw	v0,108(sp)
9d002338:	10400099 	beqz	v0,9d0025a0 <_do_print_cdnopuxX+0x7a0>
9d00233c:	32e20003 	andi	v0,s7,0x3
9d002340:	2463ffff 	addiu	v1,v1,-1
9d002344:	1860ffb5 	blez	v1,9d00221c <_do_print_cdnopuxX+0x41c>
9d002348:	02601021 	move	v0,s3
9d00234c:	02634823 	subu	t1,s3,v1
9d002350:	24030030 	li	v1,48
9d002354:	a0430000 	sb	v1,0(v0)
9d002358:	2442ffff 	addiu	v0,v0,-1
9d00235c:	5522fffe 	bnel	t1,v0,9d002358 <_do_print_cdnopuxX+0x558>
9d002360:	a0430000 	sb	v1,0(v0)
9d002364:	0b400887 	j	9d00221c <_do_print_cdnopuxX+0x41c>
9d002368:	01209821 	move	s3,t1
9d00236c:	8fa200a0 	lw	v0,160(sp)
9d002370:	8c560000 	lw	s6,0(v0)
9d002374:	24550004 	addiu	s5,v0,4
9d002378:	26100001 	addiu	s0,s0,1
9d00237c:	06c10003 	bgez	s6,9d00238c <_do_print_cdnopuxX+0x58c>
9d002380:	80820001 	lb	v0,1(a0)
9d002384:	36f70008 	ori	s7,s7,0x8
9d002388:	0016b023 	negu	s6,s6
9d00238c:	afb500a0 	sw	s5,160(sp)
9d002390:	2403002e 	li	v1,46
9d002394:	1443ff06 	bne	v0,v1,9d001fb0 <_do_print_cdnopuxX+0x1b0>
9d002398:	241effff 	li	s8,-1
9d00239c:	82020001 	lb	v0,1(s0)
9d0023a0:	2403002a 	li	v1,42
9d0023a4:	104300f1 	beq	v0,v1,9d00276c <_do_print_cdnopuxX+0x96c>
9d0023a8:	2443ffd0 	addiu	v1,v0,-48
9d0023ac:	2c63000a 	sltiu	v1,v1,10
9d0023b0:	26100001 	addiu	s0,s0,1
9d0023b4:	1060fefe 	beqz	v1,9d001fb0 <_do_print_cdnopuxX+0x1b0>
9d0023b8:	0000f021 	move	s8,zero
9d0023bc:	001e1840 	sll	v1,s8,0x1
9d0023c0:	001e58c0 	sll	t3,s8,0x3
9d0023c4:	006b5821 	addu	t3,v1,t3
9d0023c8:	26100001 	addiu	s0,s0,1
9d0023cc:	01625821 	addu	t3,t3,v0
9d0023d0:	82020000 	lb	v0,0(s0)
9d0023d4:	2443ffd0 	addiu	v1,v0,-48
9d0023d8:	2c63000a 	sltiu	v1,v1,10
9d0023dc:	1460fff7 	bnez	v1,9d0023bc <_do_print_cdnopuxX+0x5bc>
9d0023e0:	257effd0 	addiu	s8,t3,-48
9d0023e4:	24030068 	li	v1,104
9d0023e8:	1443fef5 	bne	v0,v1,9d001fc0 <_do_print_cdnopuxX+0x1c0>
9d0023ec:	2403006c 	li	v1,108
9d0023f0:	82030001 	lb	v1,1(s0)
9d0023f4:	506200e7 	beql	v1,v0,9d002794 <_do_print_cdnopuxX+0x994>
9d0023f8:	82020002 	lb	v0,2(s0)
9d0023fc:	36f70040 	ori	s7,s7,0x40
9d002400:	00601021 	move	v0,v1
9d002404:	26100001 	addiu	s0,s0,1
9d002408:	32e40002 	andi	a0,s7,0x2
9d00240c:	32e3fffe 	andi	v1,s7,0xfffe
9d002410:	0064b80b 	movn	s7,v1,a0
9d002414:	2442ffbc 	addiu	v0,v0,-68
9d002418:	32e50008 	andi	a1,s7,0x8
9d00241c:	32e4fffb 	andi	a0,s7,0xfffb
9d002420:	2c430035 	sltiu	v1,v0,53
9d002424:	26120001 	addiu	s2,s0,1
9d002428:	1460fef5 	bnez	v1,9d002000 <_do_print_cdnopuxX+0x200>
9d00242c:	0085b80b 	movn	s7,a0,a1
9d002430:	0b40089e 	j	9d002278 <_do_print_cdnopuxX+0x478>
9d002434:	00001021 	move	v0,zero
9d002438:	82030001 	lb	v1,1(s0)
9d00243c:	506200e5 	beql	v1,v0,9d0027d4 <_do_print_cdnopuxX+0x9d4>
9d002440:	82020002 	lb	v0,2(s0)
9d002444:	36f70010 	ori	s7,s7,0x10
9d002448:	00601021 	move	v0,v1
9d00244c:	0b400902 	j	9d002408 <_do_print_cdnopuxX+0x608>
9d002450:	26100001 	addiu	s0,s0,1
9d002454:	12a000db 	beqz	s5,9d0027c4 <_do_print_cdnopuxX+0x9c4>
9d002458:	02a06821 	move	t5,s5
9d00245c:	27a30057 	addiu	v1,sp,87
9d002460:	afa30068 	sw	v1,104(sp)
9d002464:	32e30020 	andi	v1,s7,0x20
9d002468:	24050037 	li	a1,55
9d00246c:	8fb30068 	lw	s3,104(sp)
9d002470:	24020057 	li	v0,87
9d002474:	0043280a 	movz	a1,v0,v1
9d002478:	01b0001b 	divu	zero,t5,s0
9d00247c:	020001f4 	teq	s0,zero,0x7
9d002480:	00001810 	mfhi	v1
9d002484:	2673ffff 	addiu	s3,s3,-1
9d002488:	27deffff 	addiu	s8,s8,-1
9d00248c:	01b0001b 	divu	zero,t5,s0
9d002490:	020001f4 	teq	s0,zero,0x7
9d002494:	00006812 	mflo	t5
9d002498:	2864000a 	slti	a0,v1,10
9d00249c:	24620030 	addiu	v0,v1,48
9d0024a0:	00651821 	addu	v1,v1,a1
9d0024a4:	0064100a 	movz	v0,v1,a0
9d0024a8:	15a0fff3 	bnez	t5,9d002478 <_do_print_cdnopuxX+0x678>
9d0024ac:	a2620001 	sb	v0,1(s3)
9d0024b0:	0b400878 	j	9d0021e0 <_do_print_cdnopuxX+0x3e0>
9d0024b4:	27c5ffff 	addiu	a1,s8,-1
9d0024b8:	2402002d 	li	v0,45
9d0024bc:	a2620000 	sb	v0,0(s3)
9d0024c0:	0b400897 	j	9d00225c <_do_print_cdnopuxX+0x45c>
9d0024c4:	2673ffff 	addiu	s3,s3,-1
9d0024c8:	24040025 	li	a0,37
9d0024cc:	0f4010ba 	jal	9d0042e8 <fputc>
9d0024d0:	8fa50098 	lw	a1,152(sp)
9d0024d4:	26520002 	addiu	s2,s2,2
9d0024d8:	8fa40060 	lw	a0,96(sp)
9d0024dc:	24840001 	addiu	a0,a0,1
9d0024e0:	0b400796 	j	9d001e58 <_do_print_cdnopuxX+0x58>
9d0024e4:	afa40060 	sw	a0,96(sp)
9d0024e8:	82020001 	lb	v0,1(s0)
9d0024ec:	36f78000 	ori	s7,s7,0x8000
9d0024f0:	0b4007f6 	j	9d001fd8 <_do_print_cdnopuxX+0x1d8>
9d0024f4:	26100001 	addiu	s0,s0,1
9d0024f8:	50400074 	beqzl	v0,9d0026cc <_do_print_cdnopuxX+0x8cc>
9d0024fc:	8fa300a0 	lw	v1,160(sp)
9d002500:	8fa200a0 	lw	v0,160(sp)
9d002504:	8c550000 	lw	s5,0(v0)
9d002508:	24420004 	addiu	v0,v0,4
9d00250c:	afa200a0 	sw	v0,160(sp)
9d002510:	0015a7c3 	sra	s4,s5,0x1f
9d002514:	02801021 	move	v0,s4
9d002518:	0441ff0d 	bgez	v0,9d002150 <_do_print_cdnopuxX+0x350>
9d00251c:	02a01821 	move	v1,s5
9d002520:	0b400961 	j	9d002584 <_do_print_cdnopuxX+0x784>
9d002524:	00036823 	negu	t5,v1
9d002528:	50400062 	beqzl	v0,9d0026b4 <_do_print_cdnopuxX+0x8b4>
9d00252c:	8fa300a0 	lw	v1,160(sp)
9d002530:	8fa200a0 	lw	v0,160(sp)
9d002534:	8c550000 	lw	s5,0(v0)
9d002538:	0000a021 	move	s4,zero
9d00253c:	24420004 	addiu	v0,v0,4
9d002540:	afa200a0 	sw	v0,160(sp)
9d002544:	0b400855 	j	9d002154 <_do_print_cdnopuxX+0x354>
9d002548:	afa0006c 	sw	zero,108(sp)
9d00254c:	2402ffff 	li	v0,-1
9d002550:	8fbf0094 	lw	ra,148(sp)
9d002554:	8fbe0090 	lw	s8,144(sp)
9d002558:	8fb7008c 	lw	s7,140(sp)
9d00255c:	8fb60088 	lw	s6,136(sp)
9d002560:	8fb50084 	lw	s5,132(sp)
9d002564:	8fb40080 	lw	s4,128(sp)
9d002568:	8fb3007c 	lw	s3,124(sp)
9d00256c:	8fb20078 	lw	s2,120(sp)
9d002570:	8fb10074 	lw	s1,116(sp)
9d002574:	8fb00070 	lw	s0,112(sp)
9d002578:	03e00008 	jr	ra
9d00257c:	27bd0098 	addiu	sp,sp,152
9d002580:	00036823 	negu	t5,v1
9d002584:	000d182b 	sltu	v1,zero,t5
9d002588:	00021023 	negu	v0,v0
9d00258c:	01a0a821 	move	s5,t5
9d002590:	0043a023 	subu	s4,v0,v1
9d002594:	24040001 	li	a0,1
9d002598:	0b400855 	j	9d002154 <_do_print_cdnopuxX+0x354>
9d00259c:	afa4006c 	sw	a0,108(sp)
9d0025a0:	5440ff68 	bnezl	v0,9d002344 <_do_print_cdnopuxX+0x544>
9d0025a4:	2463ffff 	addiu	v1,v1,-1
9d0025a8:	0b4008d1 	j	9d002344 <_do_print_cdnopuxX+0x544>
9d0025ac:	00000000 	nop
9d0025b0:	0b40083f 	j	9d0020fc <_do_print_cdnopuxX+0x2fc>
9d0025b4:	24100008 	li	s0,8
9d0025b8:	8fa400a0 	lw	a0,160(sp)
9d0025bc:	8c900000 	lw	s0,0(a0)
9d0025c0:	3c039d00 	lui	v1,0x9d00
9d0025c4:	246248b8 	addiu	v0,v1,18616
9d0025c8:	0050800a 	movz	s0,v0,s0
9d0025cc:	2402ffff 	li	v0,-1
9d0025d0:	13c20091 	beq	s8,v0,9d002818 <_do_print_cdnopuxX+0xa18>
9d0025d4:	24950004 	addiu	s5,a0,4
9d0025d8:	1bc000aa 	blez	s8,9d002884 <_do_print_cdnopuxX+0xa84>
9d0025dc:	021e5821 	addu	t3,s0,s8
9d0025e0:	82030000 	lb	v1,0(s0)
9d0025e4:	14600005 	bnez	v1,9d0025fc <_do_print_cdnopuxX+0x7fc>
9d0025e8:	02001021 	move	v0,s0
9d0025ec:	0b400983 	j	9d00260c <_do_print_cdnopuxX+0x80c>
9d0025f0:	00001021 	move	v0,zero
9d0025f4:	50600005 	beqzl	v1,9d00260c <_do_print_cdnopuxX+0x80c>
9d0025f8:	00501023 	subu	v0,v0,s0
9d0025fc:	24420001 	addiu	v0,v0,1
9d002600:	544bfffc 	bnel	v0,t3,9d0025f4 <_do_print_cdnopuxX+0x7f4>
9d002604:	80430000 	lb	v1,0(v0)
9d002608:	00501023 	subu	v0,v0,s0
9d00260c:	afb70010 	sw	s7,16(sp)
9d002610:	8fa40098 	lw	a0,152(sp)
9d002614:	02002821 	move	a1,s0
9d002618:	00403021 	move	a2,v0
9d00261c:	0f400e29 	jal	9d0038a4 <_outcnvrt>
9d002620:	02c03821 	move	a3,s6
9d002624:	0b40089e 	j	9d002278 <_do_print_cdnopuxX+0x478>
9d002628:	afb500a0 	sw	s5,160(sp)
9d00262c:	7c171620 	seh	v0,s7
9d002630:	0440007d 	bltz	v0,9d002828 <_do_print_cdnopuxX+0xa28>
9d002634:	8fa400a0 	lw	a0,160(sp)
9d002638:	32e20010 	andi	v0,s7,0x10
9d00263c:	1440006e 	bnez	v0,9d0027f8 <_do_print_cdnopuxX+0x9f8>
9d002640:	8fa200a0 	lw	v0,160(sp)
9d002644:	32e20040 	andi	v0,s7,0x40
9d002648:	10400082 	beqz	v0,9d002854 <_do_print_cdnopuxX+0xa54>
9d00264c:	32e80001 	andi	t0,s7,0x1
9d002650:	8fa200a0 	lw	v0,160(sp)
9d002654:	8c430000 	lw	v1,0(v0)
9d002658:	00001021 	move	v0,zero
9d00265c:	8fa400a0 	lw	a0,160(sp)
9d002660:	24840004 	addiu	a0,a0,4
9d002664:	afa400a0 	sw	a0,160(sp)
9d002668:	8fa40060 	lw	a0,96(sp)
9d00266c:	0b40089e 	j	9d002278 <_do_print_cdnopuxX+0x478>
9d002670:	a4640000 	sh	a0,0(v1)
9d002674:	8fa300a0 	lw	v1,160(sp)
9d002678:	8c620000 	lw	v0,0(v1)
9d00267c:	24750004 	addiu	s5,v1,4
9d002680:	afb70010 	sw	s7,16(sp)
9d002684:	8fa40098 	lw	a0,152(sp)
9d002688:	27a50018 	addiu	a1,sp,24
9d00268c:	24060001 	li	a2,1
9d002690:	02c03821 	move	a3,s6
9d002694:	a3a20018 	sb	v0,24(sp)
9d002698:	0f400e29 	jal	9d0038a4 <_outcnvrt>
9d00269c:	afb500a0 	sw	s5,160(sp)
9d0026a0:	0b40089f 	j	9d00227c <_do_print_cdnopuxX+0x47c>
9d0026a4:	8fa30060 	lw	v1,96(sp)
9d0026a8:	36f70010 	ori	s7,s7,0x10
9d0026ac:	0b40083f 	j	9d0020fc <_do_print_cdnopuxX+0x2fc>
9d0026b0:	24100008 	li	s0,8
9d0026b4:	8c750000 	lw	s5,0(v1)
9d0026b8:	0000a021 	move	s4,zero
9d0026bc:	24630004 	addiu	v1,v1,4
9d0026c0:	afa300a0 	sw	v1,160(sp)
9d0026c4:	0b400855 	j	9d002154 <_do_print_cdnopuxX+0x354>
9d0026c8:	afa0006c 	sw	zero,108(sp)
9d0026cc:	8c750000 	lw	s5,0(v1)
9d0026d0:	24630004 	addiu	v1,v1,4
9d0026d4:	afa300a0 	sw	v1,160(sp)
9d0026d8:	0015a7c3 	sra	s4,s5,0x1f
9d0026dc:	02801021 	move	v0,s4
9d0026e0:	0441fe9b 	bgez	v0,9d002150 <_do_print_cdnopuxX+0x350>
9d0026e4:	02a01821 	move	v1,s5
9d0026e8:	0b400961 	j	9d002584 <_do_print_cdnopuxX+0x784>
9d0026ec:	00036823 	negu	t5,v1
9d0026f0:	0b400902 	j	9d002408 <_do_print_cdnopuxX+0x608>
9d0026f4:	26100001 	addiu	s0,s0,1
9d0026f8:	82630001 	lb	v1,1(s3)
9d0026fc:	24020030 	li	v0,48
9d002700:	1062fece 	beq	v1,v0,9d00223c <_do_print_cdnopuxX+0x43c>
9d002704:	8fa30064 	lw	v1,100(sp)
9d002708:	a2620000 	sb	v0,0(s3)
9d00270c:	0b40088e 	j	9d002238 <_do_print_cdnopuxX+0x438>
9d002710:	2673ffff 	addiu	s3,s3,-1
9d002714:	8fa300a0 	lw	v1,160(sp)
9d002718:	24750007 	addiu	s5,v1,7
9d00271c:	2402fff8 	li	v0,-8
9d002720:	02a2a824 	and	s5,s5,v0
9d002724:	8ea30000 	lw	v1,0(s5)
9d002728:	8ea20004 	lw	v0,4(s5)
9d00272c:	26b50008 	addiu	s5,s5,8
9d002730:	afb500a0 	sw	s5,160(sp)
9d002734:	0060a821 	move	s5,v1
9d002738:	0441fe85 	bgez	v0,9d002150 <_do_print_cdnopuxX+0x350>
9d00273c:	0040a021 	move	s4,v0
9d002740:	0b400961 	j	9d002584 <_do_print_cdnopuxX+0x784>
9d002744:	00036823 	negu	t5,v1
9d002748:	24950007 	addiu	s5,a0,7
9d00274c:	2402fff8 	li	v0,-8
9d002750:	02a21024 	and	v0,s5,v0
9d002754:	24430008 	addiu	v1,v0,8
9d002758:	afa300a0 	sw	v1,160(sp)
9d00275c:	8c550000 	lw	s5,0(v0)
9d002760:	8c540004 	lw	s4,4(v0)
9d002764:	0b400855 	j	9d002154 <_do_print_cdnopuxX+0x354>
9d002768:	afa0006c 	sw	zero,108(sp)
9d00276c:	8fa300a0 	lw	v1,160(sp)
9d002770:	8c7e0000 	lw	s8,0(v1)
9d002774:	24750004 	addiu	s5,v1,4
9d002778:	26030002 	addiu	v1,s0,2
9d00277c:	82020002 	lb	v0,2(s0)
9d002780:	afb500a0 	sw	s5,160(sp)
9d002784:	07c1fe0a 	bgez	s8,9d001fb0 <_do_print_cdnopuxX+0x1b0>
9d002788:	00608021 	move	s0,v1
9d00278c:	0b4007ec 	j	9d001fb0 <_do_print_cdnopuxX+0x1b0>
9d002790:	241effff 	li	s8,-1
9d002794:	36f70001 	ori	s7,s7,0x1
9d002798:	26100001 	addiu	s0,s0,1
9d00279c:	0b400902 	j	9d002408 <_do_print_cdnopuxX+0x608>
9d0027a0:	26100001 	addiu	s0,s0,1
9d0027a4:	24020058 	li	v0,88
9d0027a8:	24030078 	li	v1,120
9d0027ac:	0064100a 	movz	v0,v1,a0
9d0027b0:	a2620000 	sb	v0,0(s3)
9d0027b4:	24020030 	li	v0,48
9d0027b8:	a262ffff 	sb	v0,-1(s3)
9d0027bc:	0b40088e 	j	9d002238 <_do_print_cdnopuxX+0x438>
9d0027c0:	2673fffe 	addiu	s3,s3,-2
9d0027c4:	27a20057 	addiu	v0,sp,87
9d0027c8:	afa20068 	sw	v0,104(sp)
9d0027cc:	0b400878 	j	9d0021e0 <_do_print_cdnopuxX+0x3e0>
9d0027d0:	00409821 	move	s3,v0
9d0027d4:	36f78000 	ori	s7,s7,0x8000
9d0027d8:	26100001 	addiu	s0,s0,1
9d0027dc:	0b400902 	j	9d002408 <_do_print_cdnopuxX+0x608>
9d0027e0:	26100001 	addiu	s0,s0,1
9d0027e4:	82620001 	lb	v0,1(s3)
9d0027e8:	38420030 	xori	v0,v0,0x30
9d0027ec:	0002102b 	sltu	v0,zero,v0
9d0027f0:	0b4008cb 	j	9d00232c <_do_print_cdnopuxX+0x52c>
9d0027f4:	00621823 	subu	v1,v1,v0
9d0027f8:	8c430000 	lw	v1,0(v0)
9d0027fc:	00001021 	move	v0,zero
9d002800:	8fa400a0 	lw	a0,160(sp)
9d002804:	24840004 	addiu	a0,a0,4
9d002808:	afa400a0 	sw	a0,160(sp)
9d00280c:	8fa40060 	lw	a0,96(sp)
9d002810:	0b40089e 	j	9d002278 <_do_print_cdnopuxX+0x478>
9d002814:	ac640000 	sw	a0,0(v1)
9d002818:	0f40110c 	jal	9d004430 <strlen>
9d00281c:	02002021 	move	a0,s0
9d002820:	0b400984 	j	9d002610 <_do_print_cdnopuxX+0x810>
9d002824:	afb70010 	sw	s7,16(sp)
9d002828:	8c820000 	lw	v0,0(a0)
9d00282c:	8fa40060 	lw	a0,96(sp)
9d002830:	00041fc3 	sra	v1,a0,0x1f
9d002834:	8fa400a0 	lw	a0,160(sp)
9d002838:	24840004 	addiu	a0,a0,4
9d00283c:	afa400a0 	sw	a0,160(sp)
9d002840:	8fa40060 	lw	a0,96(sp)
9d002844:	ac440000 	sw	a0,0(v0)
9d002848:	ac430004 	sw	v1,4(v0)
9d00284c:	0b40089e 	j	9d002278 <_do_print_cdnopuxX+0x478>
9d002850:	00001021 	move	v0,zero
9d002854:	8fa200a0 	lw	v0,160(sp)
9d002858:	8c430000 	lw	v1,0(v0)
9d00285c:	00001021 	move	v0,zero
9d002860:	8fa400a0 	lw	a0,160(sp)
9d002864:	24840004 	addiu	a0,a0,4
9d002868:	afa400a0 	sw	a0,160(sp)
9d00286c:	11000003 	beqz	t0,9d00287c <_do_print_cdnopuxX+0xa7c>
9d002870:	8fa40060 	lw	a0,96(sp)
9d002874:	0b40089e 	j	9d002278 <_do_print_cdnopuxX+0x478>
9d002878:	a0640000 	sb	a0,0(v1)
9d00287c:	0b40089e 	j	9d002278 <_do_print_cdnopuxX+0x478>
9d002880:	ac640000 	sw	a0,0(v1)
9d002884:	0b400983 	j	9d00260c <_do_print_cdnopuxX+0x80c>
9d002888:	00001021 	move	v0,zero

Disassembly of section .text:

9d00288c <__umoddi3>:
9d00288c:	00c04021 	move	t0,a2
9d002890:	00804821 	move	t1,a0
9d002894:	14e0003b 	bnez	a3,9d002984 <__umoddi3+0xf8>
9d002898:	00a01821 	move	v1,a1
9d00289c:	00a6102b 	sltu	v0,a1,a2
9d0028a0:	10400048 	beqz	v0,9d0029c4 <__umoddi3+0x138>
9d0028a4:	70c21020 	clz	v0,a2
9d0028a8:	50400008 	beqzl	v0,9d0028cc <__umoddi3+0x40>
9d0028ac:	00083402 	srl	a2,t0,0x10
9d0028b0:	00021823 	negu	v1,v0
9d0028b4:	00452804 	sllv	a1,a1,v0
9d0028b8:	00641806 	srlv	v1,a0,v1
9d0028bc:	00464004 	sllv	t0,a2,v0
9d0028c0:	00651825 	or	v1,v1,a1
9d0028c4:	00444804 	sllv	t1,a0,v0
9d0028c8:	00083402 	srl	a2,t0,0x10
9d0028cc:	0066001b 	divu	zero,v1,a2
9d0028d0:	00c001f4 	teq	a2,zero,0x7
9d0028d4:	00002010 	mfhi	a0
9d0028d8:	00005812 	mflo	t3
9d0028dc:	310cffff 	andi	t4,t0,0xffff
9d0028e0:	00095402 	srl	t2,t1,0x10
9d0028e4:	716c5802 	mul	t3,t3,t4
9d0028e8:	00042400 	sll	a0,a0,0x10
9d0028ec:	008a5025 	or	t2,a0,t2
9d0028f0:	014b682b 	sltu	t5,t2,t3
9d0028f4:	0066001b 	divu	zero,v1,a2
9d0028f8:	00c001f4 	teq	a2,zero,0x7
9d0028fc:	51a00009 	beqzl	t5,9d002924 <__umoddi3+0x98>
9d002900:	014b5023 	subu	t2,t2,t3
9d002904:	01485021 	addu	t2,t2,t0
9d002908:	0148182b 	sltu	v1,t2,t0
9d00290c:	54600005 	bnezl	v1,9d002924 <__umoddi3+0x98>
9d002910:	014b5023 	subu	t2,t2,t3
9d002914:	014b202b 	sltu	a0,t2,t3
9d002918:	01481821 	addu	v1,t2,t0
9d00291c:	0064500b 	movn	t2,v1,a0
9d002920:	014b5023 	subu	t2,t2,t3
9d002924:	3123ffff 	andi	v1,t1,0xffff
9d002928:	0146001b 	divu	zero,t2,a2
9d00292c:	00c001f4 	teq	a2,zero,0x7
9d002930:	00004810 	mfhi	t1
9d002934:	00002012 	mflo	a0
9d002938:	708c2002 	mul	a0,a0,t4
9d00293c:	00094c00 	sll	t1,t1,0x10
9d002940:	01234825 	or	t1,t1,v1
9d002944:	0124182b 	sltu	v1,t1,a0
9d002948:	0146001b 	divu	zero,t2,a2
9d00294c:	00c001f4 	teq	a2,zero,0x7
9d002950:	50600009 	beqzl	v1,9d002978 <__umoddi3+0xec>
9d002954:	01244823 	subu	t1,t1,a0
9d002958:	01284821 	addu	t1,t1,t0
9d00295c:	0128182b 	sltu	v1,t1,t0
9d002960:	54600005 	bnezl	v1,9d002978 <__umoddi3+0xec>
9d002964:	01244823 	subu	t1,t1,a0
9d002968:	0124182b 	sltu	v1,t1,a0
9d00296c:	01284021 	addu	t0,t1,t0
9d002970:	0103480b 	movn	t1,t0,v1
9d002974:	01244823 	subu	t1,t1,a0
9d002978:	00491006 	srlv	v0,t1,v0
9d00297c:	03e00008 	jr	ra
9d002980:	00001821 	move	v1,zero
9d002984:	00a7102b 	sltu	v0,a1,a3
9d002988:	14400047 	bnez	v0,9d002aa8 <__umoddi3+0x21c>
9d00298c:	70ea5020 	clz	t2,a3
9d002990:	15400048 	bnez	t2,9d002ab4 <__umoddi3+0x228>
9d002994:	240b0020 	li	t3,32
9d002998:	00e5102b 	sltu	v0,a3,a1
9d00299c:	14400005 	bnez	v0,9d0029b4 <__umoddi3+0x128>
9d0029a0:	00861023 	subu	v0,a0,a2
9d0029a4:	0086402b 	sltu	t0,a0,a2
9d0029a8:	15000089 	bnez	t0,9d002bd0 <__umoddi3+0x344>
9d0029ac:	00801021 	move	v0,a0
9d0029b0:	00861023 	subu	v0,a0,a2
9d0029b4:	00a72823 	subu	a1,a1,a3
9d0029b8:	0082202b 	sltu	a0,a0,v0
9d0029bc:	03e00008 	jr	ra
9d0029c0:	00a41823 	subu	v1,a1,a0
9d0029c4:	14c00006 	bnez	a2,9d0029e0 <__umoddi3+0x154>
9d0029c8:	71021020 	clz	v0,t0
9d0029cc:	24020001 	li	v0,1
9d0029d0:	0046001b 	divu	zero,v0,a2
9d0029d4:	00c001f4 	teq	a2,zero,0x7
9d0029d8:	00004012 	mflo	t0
9d0029dc:	71021020 	clz	v0,t0
9d0029e0:	5440007d 	bnezl	v0,9d002bd8 <__umoddi3+0x34c>
9d0029e4:	00484004 	sllv	t0,t0,v0
9d0029e8:	00a82823 	subu	a1,a1,t0
9d0029ec:	00081c02 	srl	v1,t0,0x10
9d0029f0:	3107ffff 	andi	a3,t0,0xffff
9d0029f4:	00092402 	srl	a0,t1,0x10
9d0029f8:	00a3001b 	divu	zero,a1,v1
9d0029fc:	006001f4 	teq	v1,zero,0x7
9d002a00:	00005010 	mfhi	t2
9d002a04:	00003012 	mflo	a2
9d002a08:	70c73002 	mul	a2,a2,a3
9d002a0c:	000a5400 	sll	t2,t2,0x10
9d002a10:	01442025 	or	a0,t2,a0
9d002a14:	0086502b 	sltu	t2,a0,a2
9d002a18:	00a3001b 	divu	zero,a1,v1
9d002a1c:	006001f4 	teq	v1,zero,0x7
9d002a20:	51400009 	beqzl	t2,9d002a48 <__umoddi3+0x1bc>
9d002a24:	00862023 	subu	a0,a0,a2
9d002a28:	00882021 	addu	a0,a0,t0
9d002a2c:	0088282b 	sltu	a1,a0,t0
9d002a30:	54a00005 	bnezl	a1,9d002a48 <__umoddi3+0x1bc>
9d002a34:	00862023 	subu	a0,a0,a2
9d002a38:	0086502b 	sltu	t2,a0,a2
9d002a3c:	00882821 	addu	a1,a0,t0
9d002a40:	00aa200b 	movn	a0,a1,t2
9d002a44:	00862023 	subu	a0,a0,a2
9d002a48:	3126ffff 	andi	a2,t1,0xffff
9d002a4c:	0083001b 	divu	zero,a0,v1
9d002a50:	006001f4 	teq	v1,zero,0x7
9d002a54:	00004810 	mfhi	t1
9d002a58:	00002812 	mflo	a1
9d002a5c:	70a72802 	mul	a1,a1,a3
9d002a60:	00094c00 	sll	t1,t1,0x10
9d002a64:	01264825 	or	t1,t1,a2
9d002a68:	0125302b 	sltu	a2,t1,a1
9d002a6c:	0083001b 	divu	zero,a0,v1
9d002a70:	006001f4 	teq	v1,zero,0x7
9d002a74:	50c00009 	beqzl	a2,9d002a9c <__umoddi3+0x210>
9d002a78:	01254823 	subu	t1,t1,a1
9d002a7c:	01284821 	addu	t1,t1,t0
9d002a80:	0128182b 	sltu	v1,t1,t0
9d002a84:	54600005 	bnezl	v1,9d002a9c <__umoddi3+0x210>
9d002a88:	01254823 	subu	t1,t1,a1
9d002a8c:	0125182b 	sltu	v1,t1,a1
9d002a90:	01284021 	addu	t0,t1,t0
9d002a94:	0103480b 	movn	t1,t0,v1
9d002a98:	01254823 	subu	t1,t1,a1
9d002a9c:	00491006 	srlv	v0,t1,v0
9d002aa0:	03e00008 	jr	ra
9d002aa4:	00001821 	move	v1,zero
9d002aa8:	00801021 	move	v0,a0
9d002aac:	03e00008 	jr	ra
9d002ab0:	00a01821 	move	v1,a1
9d002ab4:	016a5823 	subu	t3,t3,t2
9d002ab8:	01473804 	sllv	a3,a3,t2
9d002abc:	01661006 	srlv	v0,a2,t3
9d002ac0:	00473825 	or	a3,v0,a3
9d002ac4:	01656806 	srlv	t5,a1,t3
9d002ac8:	00074c02 	srl	t1,a3,0x10
9d002acc:	01a9001b 	divu	zero,t5,t1
9d002ad0:	012001f4 	teq	t1,zero,0x7
9d002ad4:	00006010 	mfhi	t4
9d002ad8:	00001812 	mflo	v1
9d002adc:	30eeffff 	andi	t6,a3,0xffff
9d002ae0:	01452804 	sllv	a1,a1,t2
9d002ae4:	01641006 	srlv	v0,a0,t3
9d002ae8:	00451025 	or	v0,v0,a1
9d002aec:	00022c02 	srl	a1,v0,0x10
9d002af0:	01463004 	sllv	a2,a2,t2
9d002af4:	00004012 	mflo	t0
9d002af8:	706e7802 	mul	t7,v1,t6
9d002afc:	000c6400 	sll	t4,t4,0x10
9d002b00:	01856025 	or	t4,t4,a1
9d002b04:	018f282b 	sltu	a1,t4,t7
9d002b08:	01a9001b 	divu	zero,t5,t1
9d002b0c:	012001f4 	teq	t1,zero,0x7
9d002b10:	10a0000a 	beqz	a1,9d002b3c <__umoddi3+0x2b0>
9d002b14:	01442004 	sllv	a0,a0,t2
9d002b18:	01876021 	addu	t4,t4,a3
9d002b1c:	0187282b 	sltu	a1,t4,a3
9d002b20:	14a00006 	bnez	a1,9d002b3c <__umoddi3+0x2b0>
9d002b24:	2468ffff 	addiu	t0,v1,-1
9d002b28:	018f282b 	sltu	a1,t4,t7
9d002b2c:	50a00004 	beqzl	a1,9d002b40 <__umoddi3+0x2b4>
9d002b30:	018f6023 	subu	t4,t4,t7
9d002b34:	2468fffe 	addiu	t0,v1,-2
9d002b38:	01876021 	addu	t4,t4,a3
9d002b3c:	018f6023 	subu	t4,t4,t7
9d002b40:	3042ffff 	andi	v0,v0,0xffff
9d002b44:	0189001b 	divu	zero,t4,t1
9d002b48:	012001f4 	teq	t1,zero,0x7
9d002b4c:	00002810 	mfhi	a1
9d002b50:	00001812 	mflo	v1
9d002b54:	00006812 	mflo	t5
9d002b58:	706e7002 	mul	t6,v1,t6
9d002b5c:	00052c00 	sll	a1,a1,0x10
9d002b60:	00a21025 	or	v0,a1,v0
9d002b64:	004e282b 	sltu	a1,v0,t6
9d002b68:	0189001b 	divu	zero,t4,t1
9d002b6c:	012001f4 	teq	t1,zero,0x7
9d002b70:	50a00006 	beqzl	a1,9d002b8c <__umoddi3+0x300>
9d002b74:	00084400 	sll	t0,t0,0x10
9d002b78:	00471021 	addu	v0,v0,a3
9d002b7c:	0047282b 	sltu	a1,v0,a3
9d002b80:	10a0004c 	beqz	a1,9d002cb4 <__umoddi3+0x428>
9d002b84:	246dffff 	addiu	t5,v1,-1
9d002b88:	00084400 	sll	t0,t0,0x10
9d002b8c:	01a84025 	or	t0,t5,t0
9d002b90:	004e1023 	subu	v0,v0,t6
9d002b94:	01060019 	multu	t0,a2
9d002b98:	00004810 	mfhi	t1
9d002b9c:	0049182b 	sltu	v1,v0,t1
9d002ba0:	1460003e 	bnez	v1,9d002c9c <__umoddi3+0x410>
9d002ba4:	00004012 	mflo	t0
9d002ba8:	1049004b 	beq	v0,t1,9d002cd8 <__umoddi3+0x44c>
9d002bac:	00491823 	subu	v1,v0,t1
9d002bb0:	00003012 	mflo	a2
9d002bb4:	00863023 	subu	a2,a0,a2
9d002bb8:	0086202b 	sltu	a0,a0,a2
9d002bbc:	00641823 	subu	v1,v1,a0
9d002bc0:	01631004 	sllv	v0,v1,t3
9d002bc4:	01463006 	srlv	a2,a2,t2
9d002bc8:	00461025 	or	v0,v0,a2
9d002bcc:	01431806 	srlv	v1,v1,t2
9d002bd0:	03e00008 	jr	ra
9d002bd4:	00000000 	nop
9d002bd8:	24090020 	li	t1,32
9d002bdc:	01224823 	subu	t1,t1,v0
9d002be0:	01255006 	srlv	t2,a1,t1
9d002be4:	00081c02 	srl	v1,t0,0x10
9d002be8:	0143001b 	divu	zero,t2,v1
9d002bec:	006001f4 	teq	v1,zero,0x7
9d002bf0:	00003010 	mfhi	a2
9d002bf4:	00005812 	mflo	t3
9d002bf8:	3107ffff 	andi	a3,t0,0xffff
9d002bfc:	00452804 	sllv	a1,a1,v0
9d002c00:	01244806 	srlv	t1,a0,t1
9d002c04:	01252825 	or	a1,t1,a1
9d002c08:	00056402 	srl	t4,a1,0x10
9d002c0c:	00444804 	sllv	t1,a0,v0
9d002c10:	71675802 	mul	t3,t3,a3
9d002c14:	00063400 	sll	a2,a2,0x10
9d002c18:	01863025 	or	a2,t4,a2
9d002c1c:	00cb202b 	sltu	a0,a2,t3
9d002c20:	0143001b 	divu	zero,t2,v1
9d002c24:	006001f4 	teq	v1,zero,0x7
9d002c28:	50800006 	beqzl	a0,9d002c44 <__umoddi3+0x3b8>
9d002c2c:	00cb3023 	subu	a2,a2,t3
9d002c30:	00c83021 	addu	a2,a2,t0
9d002c34:	00c8202b 	sltu	a0,a2,t0
9d002c38:	10800024 	beqz	a0,9d002ccc <__umoddi3+0x440>
9d002c3c:	00cb502b 	sltu	t2,a2,t3
9d002c40:	00cb3023 	subu	a2,a2,t3
9d002c44:	30aaffff 	andi	t2,a1,0xffff
9d002c48:	00c3001b 	divu	zero,a2,v1
9d002c4c:	006001f4 	teq	v1,zero,0x7
9d002c50:	00002010 	mfhi	a0
9d002c54:	00002812 	mflo	a1
9d002c58:	70a72802 	mul	a1,a1,a3
9d002c5c:	00042400 	sll	a0,a0,0x10
9d002c60:	008a2025 	or	a0,a0,t2
9d002c64:	0085502b 	sltu	t2,a0,a1
9d002c68:	00c3001b 	divu	zero,a2,v1
9d002c6c:	006001f4 	teq	v1,zero,0x7
9d002c70:	5140ff60 	beqzl	t2,9d0029f4 <__umoddi3+0x168>
9d002c74:	00852823 	subu	a1,a0,a1
9d002c78:	00882021 	addu	a0,a0,t0
9d002c7c:	0088302b 	sltu	a2,a0,t0
9d002c80:	54c0ff5c 	bnezl	a2,9d0029f4 <__umoddi3+0x168>
9d002c84:	00852823 	subu	a1,a0,a1
9d002c88:	0085502b 	sltu	t2,a0,a1
9d002c8c:	00883021 	addu	a2,a0,t0
9d002c90:	00ca200b 	movn	a0,a2,t2
9d002c94:	0b400a7d 	j	9d0029f4 <__umoddi3+0x168>
9d002c98:	00852823 	subu	a1,a0,a1
9d002c9c:	01063023 	subu	a2,t0,a2
9d002ca0:	01271823 	subu	v1,t1,a3
9d002ca4:	0106402b 	sltu	t0,t0,a2
9d002ca8:	00681823 	subu	v1,v1,t0
9d002cac:	0b400aed 	j	9d002bb4 <__umoddi3+0x328>
9d002cb0:	00431823 	subu	v1,v0,v1
9d002cb4:	004e282b 	sltu	a1,v0,t6
9d002cb8:	50a0ffb4 	beqzl	a1,9d002b8c <__umoddi3+0x300>
9d002cbc:	00084400 	sll	t0,t0,0x10
9d002cc0:	246dfffe 	addiu	t5,v1,-2
9d002cc4:	0b400ae2 	j	9d002b88 <__umoddi3+0x2fc>
9d002cc8:	00471021 	addu	v0,v0,a3
9d002ccc:	00c82021 	addu	a0,a2,t0
9d002cd0:	0b400b10 	j	9d002c40 <__umoddi3+0x3b4>
9d002cd4:	008a300b 	movn	a2,a0,t2
9d002cd8:	0088182b 	sltu	v1,a0,t0
9d002cdc:	5460fff0 	bnezl	v1,9d002ca0 <__umoddi3+0x414>
9d002ce0:	01063023 	subu	a2,t0,a2
9d002ce4:	00003012 	mflo	a2
9d002ce8:	0b400aed 	j	9d002bb4 <__umoddi3+0x328>
9d002cec:	00001821 	move	v1,zero

9d002cf0 <__udivdi3>:
9d002cf0:	00c04021 	move	t0,a2
9d002cf4:	00801021 	move	v0,a0
9d002cf8:	14e0003f 	bnez	a3,9d002df8 <__udivdi3+0x108>
9d002cfc:	00a04821 	move	t1,a1
9d002d00:	00a6182b 	sltu	v1,a1,a2
9d002d04:	10600047 	beqz	v1,9d002e24 <__udivdi3+0x134>
9d002d08:	70c31820 	clz	v1,a2
9d002d0c:	50600008 	beqzl	v1,9d002d30 <__udivdi3+0x40>
9d002d10:	00081c02 	srl	v1,t0,0x10
9d002d14:	00034823 	negu	t1,v1
9d002d18:	00652804 	sllv	a1,a1,v1
9d002d1c:	01244806 	srlv	t1,a0,t1
9d002d20:	00664004 	sllv	t0,a2,v1
9d002d24:	01254825 	or	t1,t1,a1
9d002d28:	00641004 	sllv	v0,a0,v1
9d002d2c:	00081c02 	srl	v1,t0,0x10
9d002d30:	0123001b 	divu	zero,t1,v1
9d002d34:	006001f4 	teq	v1,zero,0x7
9d002d38:	00006010 	mfhi	t4
9d002d3c:	00005812 	mflo	t3
9d002d40:	310affff 	andi	t2,t0,0xffff
9d002d44:	00022402 	srl	a0,v0,0x10
9d002d48:	00003012 	mflo	a2
9d002d4c:	716a3802 	mul	a3,t3,t2
9d002d50:	000c6400 	sll	t4,t4,0x10
9d002d54:	01842025 	or	a0,t4,a0
9d002d58:	0087602b 	sltu	t4,a0,a3
9d002d5c:	0123001b 	divu	zero,t1,v1
9d002d60:	006001f4 	teq	v1,zero,0x7
9d002d64:	1180000b 	beqz	t4,9d002d94 <__udivdi3+0xa4>
9d002d68:	00872823 	subu	a1,a0,a3
9d002d6c:	00882021 	addu	a0,a0,t0
9d002d70:	0088282b 	sltu	a1,a0,t0
9d002d74:	14a00006 	bnez	a1,9d002d90 <__udivdi3+0xa0>
9d002d78:	2566ffff 	addiu	a2,t3,-1
9d002d7c:	0087282b 	sltu	a1,a0,a3
9d002d80:	10a00004 	beqz	a1,9d002d94 <__udivdi3+0xa4>
9d002d84:	00872823 	subu	a1,a0,a3
9d002d88:	2566fffe 	addiu	a2,t3,-2
9d002d8c:	00882021 	addu	a0,a0,t0
9d002d90:	00872823 	subu	a1,a0,a3
9d002d94:	3042ffff 	andi	v0,v0,0xffff
9d002d98:	00a3001b 	divu	zero,a1,v1
9d002d9c:	006001f4 	teq	v1,zero,0x7
9d002da0:	00004810 	mfhi	t1
9d002da4:	00003812 	mflo	a3
9d002da8:	00002012 	mflo	a0
9d002dac:	70ea5002 	mul	t2,a3,t2
9d002db0:	00094c00 	sll	t1,t1,0x10
9d002db4:	01221025 	or	v0,t1,v0
9d002db8:	004a482b 	sltu	t1,v0,t2
9d002dbc:	00a3001b 	divu	zero,a1,v1
9d002dc0:	006001f4 	teq	v1,zero,0x7
9d002dc4:	51200009 	beqzl	t1,9d002dec <__udivdi3+0xfc>
9d002dc8:	00061400 	sll	v0,a2,0x10
9d002dcc:	00481021 	addu	v0,v0,t0
9d002dd0:	0048402b 	sltu	t0,v0,t0
9d002dd4:	15000004 	bnez	t0,9d002de8 <__udivdi3+0xf8>
9d002dd8:	24e4ffff 	addiu	a0,a3,-1
9d002ddc:	004a502b 	sltu	t2,v0,t2
9d002de0:	24e7fffe 	addiu	a3,a3,-2
9d002de4:	00ea200b 	movn	a0,a3,t2
9d002de8:	00061400 	sll	v0,a2,0x10
9d002dec:	00821025 	or	v0,a0,v0
9d002df0:	03e00008 	jr	ra
9d002df4:	00001821 	move	v1,zero
9d002df8:	00a7102b 	sltu	v0,a1,a3
9d002dfc:	14400044 	bnez	v0,9d002f10 <__udivdi3+0x220>
9d002e00:	70e84020 	clz	t0,a3
9d002e04:	55000045 	bnezl	t0,9d002f1c <__udivdi3+0x22c>
9d002e08:	24020020 	li	v0,32
9d002e0c:	00e5282b 	sltu	a1,a3,a1
9d002e10:	14a000c8 	bnez	a1,9d003134 <__udivdi3+0x444>
9d002e14:	0086302b 	sltu	a2,a0,a2
9d002e18:	38c20001 	xori	v0,a2,0x1
9d002e1c:	03e00008 	jr	ra
9d002e20:	00001821 	move	v1,zero
9d002e24:	14c00006 	bnez	a2,9d002e40 <__udivdi3+0x150>
9d002e28:	71031820 	clz	v1,t0
9d002e2c:	24030001 	li	v1,1
9d002e30:	0066001b 	divu	zero,v1,a2
9d002e34:	00c001f4 	teq	a2,zero,0x7
9d002e38:	00004012 	mflo	t0
9d002e3c:	71031820 	clz	v1,t0
9d002e40:	5460007b 	bnezl	v1,9d003030 <__udivdi3+0x340>
9d002e44:	00684004 	sllv	t0,t0,v1
9d002e48:	00a82023 	subu	a0,a1,t0
9d002e4c:	00083c02 	srl	a3,t0,0x10
9d002e50:	310bffff 	andi	t3,t0,0xffff
9d002e54:	24030001 	li	v1,1
9d002e58:	00023402 	srl	a2,v0,0x10
9d002e5c:	0087001b 	divu	zero,a0,a3
9d002e60:	00e001f4 	teq	a3,zero,0x7
9d002e64:	00006810 	mfhi	t5
9d002e68:	00006012 	mflo	t4
9d002e6c:	00004812 	mflo	t1
9d002e70:	718b5002 	mul	t2,t4,t3
9d002e74:	000d6c00 	sll	t5,t5,0x10
9d002e78:	01a63025 	or	a2,t5,a2
9d002e7c:	00ca682b 	sltu	t5,a2,t2
9d002e80:	0087001b 	divu	zero,a0,a3
9d002e84:	00e001f4 	teq	a3,zero,0x7
9d002e88:	11a00009 	beqz	t5,9d002eb0 <__udivdi3+0x1c0>
9d002e8c:	00ca2823 	subu	a1,a2,t2
9d002e90:	00c83021 	addu	a2,a2,t0
9d002e94:	00c8202b 	sltu	a0,a2,t0
9d002e98:	14800004 	bnez	a0,9d002eac <__udivdi3+0x1bc>
9d002e9c:	2589ffff 	addiu	t1,t4,-1
9d002ea0:	00ca202b 	sltu	a0,a2,t2
9d002ea4:	548000a6 	bnezl	a0,9d003140 <__udivdi3+0x450>
9d002ea8:	2589fffe 	addiu	t1,t4,-2
9d002eac:	00ca2823 	subu	a1,a2,t2
9d002eb0:	3042ffff 	andi	v0,v0,0xffff
9d002eb4:	00a7001b 	divu	zero,a1,a3
9d002eb8:	00e001f4 	teq	a3,zero,0x7
9d002ebc:	00005010 	mfhi	t2
9d002ec0:	00003012 	mflo	a2
9d002ec4:	00002012 	mflo	a0
9d002ec8:	70cb5802 	mul	t3,a2,t3
9d002ecc:	000a5400 	sll	t2,t2,0x10
9d002ed0:	01421025 	or	v0,t2,v0
9d002ed4:	004b502b 	sltu	t2,v0,t3
9d002ed8:	00a7001b 	divu	zero,a1,a3
9d002edc:	00e001f4 	teq	a3,zero,0x7
9d002ee0:	51400009 	beqzl	t2,9d002f08 <__udivdi3+0x218>
9d002ee4:	00091400 	sll	v0,t1,0x10
9d002ee8:	00481021 	addu	v0,v0,t0
9d002eec:	0048402b 	sltu	t0,v0,t0
9d002ef0:	15000004 	bnez	t0,9d002f04 <__udivdi3+0x214>
9d002ef4:	24c4ffff 	addiu	a0,a2,-1
9d002ef8:	004b582b 	sltu	t3,v0,t3
9d002efc:	24c6fffe 	addiu	a2,a2,-2
9d002f00:	00cb200b 	movn	a0,a2,t3
9d002f04:	00091400 	sll	v0,t1,0x10
9d002f08:	03e00008 	jr	ra
9d002f0c:	00821025 	or	v0,a0,v0
9d002f10:	00001821 	move	v1,zero
9d002f14:	03e00008 	jr	ra
9d002f18:	00001021 	move	v0,zero
9d002f1c:	00481023 	subu	v0,v0,t0
9d002f20:	01073804 	sllv	a3,a3,t0
9d002f24:	00461806 	srlv	v1,a2,v0
9d002f28:	00673825 	or	a3,v1,a3
9d002f2c:	00455006 	srlv	t2,a1,v0
9d002f30:	00071c02 	srl	v1,a3,0x10
9d002f34:	0143001b 	divu	zero,t2,v1
9d002f38:	006001f4 	teq	v1,zero,0x7
9d002f3c:	00004810 	mfhi	t1
9d002f40:	00006812 	mflo	t5
9d002f44:	30ebffff 	andi	t3,a3,0xffff
9d002f48:	01052804 	sllv	a1,a1,t0
9d002f4c:	00441006 	srlv	v0,a0,v0
9d002f50:	00452825 	or	a1,v0,a1
9d002f54:	00057402 	srl	t6,a1,0x10
9d002f58:	00001012 	mflo	v0
9d002f5c:	71ab6002 	mul	t4,t5,t3
9d002f60:	00094c00 	sll	t1,t1,0x10
9d002f64:	012e4825 	or	t1,t1,t6
9d002f68:	012c702b 	sltu	t6,t1,t4
9d002f6c:	0143001b 	divu	zero,t2,v1
9d002f70:	006001f4 	teq	v1,zero,0x7
9d002f74:	11c0000a 	beqz	t6,9d002fa0 <__udivdi3+0x2b0>
9d002f78:	01063004 	sllv	a2,a2,t0
9d002f7c:	01274821 	addu	t1,t1,a3
9d002f80:	0127502b 	sltu	t2,t1,a3
9d002f84:	15400006 	bnez	t2,9d002fa0 <__udivdi3+0x2b0>
9d002f88:	25a2ffff 	addiu	v0,t5,-1
9d002f8c:	012c502b 	sltu	t2,t1,t4
9d002f90:	51400004 	beqzl	t2,9d002fa4 <__udivdi3+0x2b4>
9d002f94:	012c4823 	subu	t1,t1,t4
9d002f98:	25a2fffe 	addiu	v0,t5,-2
9d002f9c:	01274821 	addu	t1,t1,a3
9d002fa0:	012c4823 	subu	t1,t1,t4
9d002fa4:	30a5ffff 	andi	a1,a1,0xffff
9d002fa8:	0123001b 	divu	zero,t1,v1
9d002fac:	006001f4 	teq	v1,zero,0x7
9d002fb0:	00006810 	mfhi	t5
9d002fb4:	00006012 	mflo	t4
9d002fb8:	00005012 	mflo	t2
9d002fbc:	718b5802 	mul	t3,t4,t3
9d002fc0:	000d6c00 	sll	t5,t5,0x10
9d002fc4:	01a52825 	or	a1,t5,a1
9d002fc8:	00ab682b 	sltu	t5,a1,t3
9d002fcc:	0123001b 	divu	zero,t1,v1
9d002fd0:	006001f4 	teq	v1,zero,0x7
9d002fd4:	51a0000b 	beqzl	t5,9d003004 <__udivdi3+0x314>
9d002fd8:	00021400 	sll	v0,v0,0x10
9d002fdc:	00a72821 	addu	a1,a1,a3
9d002fe0:	00a7182b 	sltu	v1,a1,a3
9d002fe4:	14600006 	bnez	v1,9d003000 <__udivdi3+0x310>
9d002fe8:	258affff 	addiu	t2,t4,-1
9d002fec:	00ab182b 	sltu	v1,a1,t3
9d002ff0:	50600004 	beqzl	v1,9d003004 <__udivdi3+0x314>
9d002ff4:	00021400 	sll	v0,v0,0x10
9d002ff8:	258afffe 	addiu	t2,t4,-2
9d002ffc:	00a72821 	addu	a1,a1,a3
9d003000:	00021400 	sll	v0,v0,0x10
9d003004:	01421025 	or	v0,t2,v0
9d003008:	00ab2823 	subu	a1,a1,t3
9d00300c:	00460019 	multu	v0,a2
9d003010:	00003810 	mfhi	a3
9d003014:	00a7182b 	sltu	v1,a1,a3
9d003018:	14600044 	bnez	v1,9d00312c <__udivdi3+0x43c>
9d00301c:	00003012 	mflo	a2
9d003020:	10a7003f 	beq	a1,a3,9d003120 <__udivdi3+0x430>
9d003024:	01042004 	sllv	a0,a0,t0
9d003028:	03e00008 	jr	ra
9d00302c:	00001821 	move	v1,zero
9d003030:	24020020 	li	v0,32
9d003034:	00431023 	subu	v0,v0,v1
9d003038:	00454806 	srlv	t1,a1,v0
9d00303c:	00083c02 	srl	a3,t0,0x10
9d003040:	0127001b 	divu	zero,t1,a3
9d003044:	00e001f4 	teq	a3,zero,0x7
9d003048:	00003010 	mfhi	a2
9d00304c:	00006012 	mflo	t4
9d003050:	310bffff 	andi	t3,t0,0xffff
9d003054:	00652804 	sllv	a1,a1,v1
9d003058:	00441006 	srlv	v0,a0,v0
9d00305c:	00452825 	or	a1,v0,a1
9d003060:	00056c02 	srl	t5,a1,0x10
9d003064:	00641004 	sllv	v0,a0,v1
9d003068:	00001812 	mflo	v1
9d00306c:	718b5002 	mul	t2,t4,t3
9d003070:	00063400 	sll	a2,a2,0x10
9d003074:	01a63025 	or	a2,t5,a2
9d003078:	00ca202b 	sltu	a0,a2,t2
9d00307c:	0127001b 	divu	zero,t1,a3
9d003080:	00e001f4 	teq	a3,zero,0x7
9d003084:	5080000b 	beqzl	a0,9d0030b4 <__udivdi3+0x3c4>
9d003088:	00ca3023 	subu	a2,a2,t2
9d00308c:	00c83021 	addu	a2,a2,t0
9d003090:	00c8202b 	sltu	a0,a2,t0
9d003094:	14800006 	bnez	a0,9d0030b0 <__udivdi3+0x3c0>
9d003098:	2583ffff 	addiu	v1,t4,-1
9d00309c:	00ca202b 	sltu	a0,a2,t2
9d0030a0:	50800004 	beqzl	a0,9d0030b4 <__udivdi3+0x3c4>
9d0030a4:	00ca3023 	subu	a2,a2,t2
9d0030a8:	2583fffe 	addiu	v1,t4,-2
9d0030ac:	00c83021 	addu	a2,a2,t0
9d0030b0:	00ca3023 	subu	a2,a2,t2
9d0030b4:	30acffff 	andi	t4,a1,0xffff
9d0030b8:	00c7001b 	divu	zero,a2,a3
9d0030bc:	00e001f4 	teq	a3,zero,0x7
9d0030c0:	00002010 	mfhi	a0
9d0030c4:	00005012 	mflo	t2
9d0030c8:	00004812 	mflo	t1
9d0030cc:	714b2802 	mul	a1,t2,t3
9d0030d0:	00042400 	sll	a0,a0,0x10
9d0030d4:	008c2025 	or	a0,a0,t4
9d0030d8:	0085602b 	sltu	t4,a0,a1
9d0030dc:	00c7001b 	divu	zero,a2,a3
9d0030e0:	00e001f4 	teq	a3,zero,0x7
9d0030e4:	5180000b 	beqzl	t4,9d003114 <__udivdi3+0x424>
9d0030e8:	00031c00 	sll	v1,v1,0x10
9d0030ec:	00882021 	addu	a0,a0,t0
9d0030f0:	0088302b 	sltu	a2,a0,t0
9d0030f4:	14c00006 	bnez	a2,9d003110 <__udivdi3+0x420>
9d0030f8:	2549ffff 	addiu	t1,t2,-1
9d0030fc:	0085302b 	sltu	a2,a0,a1
9d003100:	50c00004 	beqzl	a2,9d003114 <__udivdi3+0x424>
9d003104:	00031c00 	sll	v1,v1,0x10
9d003108:	2549fffe 	addiu	t1,t2,-2
9d00310c:	00882021 	addu	a0,a0,t0
9d003110:	00031c00 	sll	v1,v1,0x10
9d003114:	00852023 	subu	a0,a0,a1
9d003118:	0b400b96 	j	9d002e58 <__udivdi3+0x168>
9d00311c:	01231825 	or	v1,t1,v1
9d003120:	0086302b 	sltu	a2,a0,a2
9d003124:	10c0ffc0 	beqz	a2,9d003028 <__udivdi3+0x338>
9d003128:	00000000 	nop
9d00312c:	0b400c0a 	j	9d003028 <__udivdi3+0x338>
9d003130:	2442ffff 	addiu	v0,v0,-1
9d003134:	00001821 	move	v1,zero
9d003138:	03e00008 	jr	ra
9d00313c:	24020001 	li	v0,1
9d003140:	0b400bab 	j	9d002eac <__udivdi3+0x1bc>
9d003144:	00c83021 	addu	a2,a2,t0

9d003148 <NU32_Startup>:

// Perform startup routines:
//  Make NU32_LED1 and NU32_LED2 pins outputs (NU32_USER is by default an input)
//  Initialize the serial port - UART3 (no interrupt) 
//  Enable interrupts
void NU32_Startup() {
9d003148:	27bdfff8 	addiu	sp,sp,-8
9d00314c:	afbf0004 	sw	ra,4(sp)
9d003150:	afbe0000 	sw	s8,0(sp)
9d003154:	03a0f021 	move	s8,sp
  // disable interrupts
  __builtin_disable_interrupts();
9d003158:	41626000 	di	v0
9d00315c:	000000c0 	ehb
9d003160:	00000000 	nop
  // see Chapter 2 "CPU for Devices with M4K Core" of the PIC32 reference manual
  // most of the other bits have prescribed values
  // microchip does not provide a _CP0_SET_CONFIG macro, so we directly use
  // the compiler built-in command _mtc0
  // to disable cache, use 0xa4210582 
  __builtin_mtc0(_CP0_CONFIG, _CP0_CONFIG_SELECT, 0xa4210583); 
9d003164:	3c02a421 	lui	v0,0xa421
9d003168:	34420583 	ori	v0,v0,0x583
9d00316c:	40828000 	mtc0	v0,c0_config
9d003170:	000000c0 	ehb
  
  // set the prefectch cache wait state to 2, as per the
  // electrical characteristics data sheet
  CHECONbits.PFMWS = 0x2;   
9d003174:	3c03bf88 	lui	v1,0xbf88
9d003178:	8c624000 	lw	v0,16384(v1)
9d00317c:	24040002 	li	a0,2
9d003180:	7c821004 	ins	v0,a0,0x0,0x3
9d003184:	ac624000 	sw	v0,16384(v1)

  //enable prefetch for cacheable and noncacheable memory
  CHECONbits.PREFEN = 0x3; 
9d003188:	3c03bf88 	lui	v1,0xbf88
9d00318c:	8c624000 	lw	v0,16384(v1)
9d003190:	24040003 	li	a0,3
9d003194:	7c822904 	ins	v0,a0,0x4,0x2
9d003198:	ac624000 	sw	v0,16384(v1)

  // 0 data RAM access wait states
  BMXCONbits.BMXWSDRM = 0x0;
9d00319c:	3c03bf88 	lui	v1,0xbf88
9d0031a0:	8c622000 	lw	v0,8192(v1)
9d0031a4:	7c023184 	ins	v0,zero,0x6,0x1
9d0031a8:	ac622000 	sw	v0,8192(v1)
  
  // enable multi vector interrupts
  INTCONbits.MVEC = 0x1;
9d0031ac:	3c03bf88 	lui	v1,0xbf88
9d0031b0:	8c621000 	lw	v0,4096(v1)
9d0031b4:	24040001 	li	a0,1
9d0031b8:	7c826304 	ins	v0,a0,0xc,0x1
9d0031bc:	ac621000 	sw	v0,4096(v1)

  // disable JTAG to get B10, B11, B12 and B13 back
  DDPCONbits.JTAGEN = 0;
9d0031c0:	3c03bf81 	lui	v1,0xbf81
9d0031c4:	9062f200 	lbu	v0,-3584(v1)
9d0031c8:	7c0218c4 	ins	v0,zero,0x3,0x1
9d0031cc:	a062f200 	sb	v0,-3584(v1)

  TRISFCLR = 0x0003;  // Make F0 and F1 outputs (LED1 and LED2)
9d0031d0:	3c02bf88 	lui	v0,0xbf88
9d0031d4:	24030003 	li	v1,3
9d0031d8:	ac436144 	sw	v1,24900(v0)
  NU32_LED1 = 1;      // LED1 is off
9d0031dc:	3c03bf88 	lui	v1,0xbf88
9d0031e0:	90626160 	lbu	v0,24928(v1)
9d0031e4:	24040001 	li	a0,1
9d0031e8:	7c820004 	ins	v0,a0,0x0,0x1
9d0031ec:	a0626160 	sb	v0,24928(v1)
  NU32_LED2 = 0;      // LED2 is on
9d0031f0:	3c03bf88 	lui	v1,0xbf88
9d0031f4:	90626160 	lbu	v0,24928(v1)
9d0031f8:	7c020844 	ins	v0,zero,0x1,0x1
9d0031fc:	a0626160 	sb	v0,24928(v1)

  // turn on UART3 without an interrupt
  U3MODEbits.BRGH = 0; // set baud to NU32_DESIRED_BAUD
9d003200:	3c03bf80 	lui	v1,0xbf80
9d003204:	94626400 	lhu	v0,25600(v1)
9d003208:	7c0218c4 	ins	v0,zero,0x3,0x1
9d00320c:	a4626400 	sh	v0,25600(v1)
  U3BRG = ((NU32_SYS_FREQ / NU32_DESIRED_BAUD) / 16) - 1;
9d003210:	3c02bf80 	lui	v0,0xbf80
9d003214:	24030014 	li	v1,20
9d003218:	ac436440 	sw	v1,25664(v0)

  // 8 bit, no parity bit, and 1 stop bit (8N1 setup)
  U3MODEbits.PDSEL = 0;
9d00321c:	3c03bf80 	lui	v1,0xbf80
9d003220:	94626400 	lhu	v0,25600(v1)
9d003224:	7c021044 	ins	v0,zero,0x1,0x2
9d003228:	a4626400 	sh	v0,25600(v1)
  U3MODEbits.STSEL = 0;
9d00322c:	3c03bf80 	lui	v1,0xbf80
9d003230:	94626400 	lhu	v0,25600(v1)
9d003234:	7c020004 	ins	v0,zero,0x0,0x1
9d003238:	a4626400 	sh	v0,25600(v1)

  // configure TX & RX pins as output & input pins
  U3STAbits.UTXEN = 1;
9d00323c:	3c03bf80 	lui	v1,0xbf80
9d003240:	8c626410 	lw	v0,25616(v1)
9d003244:	24040001 	li	a0,1
9d003248:	7c825284 	ins	v0,a0,0xa,0x1
9d00324c:	ac626410 	sw	v0,25616(v1)
  U3STAbits.URXEN = 1;
9d003250:	3c03bf80 	lui	v1,0xbf80
9d003254:	8c626410 	lw	v0,25616(v1)
9d003258:	24040001 	li	a0,1
9d00325c:	7c826304 	ins	v0,a0,0xc,0x1
9d003260:	ac626410 	sw	v0,25616(v1)
  // configure hardware flow control using RTS and CTS
  U3MODEbits.UEN = 2;
9d003264:	3c03bf80 	lui	v1,0xbf80
9d003268:	94626400 	lhu	v0,25600(v1)
9d00326c:	24040002 	li	a0,2
9d003270:	7c824a04 	ins	v0,a0,0x8,0x2
9d003274:	a4626400 	sh	v0,25600(v1)

  // enable the uart
  U3MODEbits.ON = 1;
9d003278:	3c03bf80 	lui	v1,0xbf80
9d00327c:	94626400 	lhu	v0,25600(v1)
9d003280:	24040001 	li	a0,1
9d003284:	7c827bc4 	ins	v0,a0,0xf,0x1
9d003288:	a4626400 	sh	v0,25600(v1)

  __builtin_enable_interrupts();
9d00328c:	41626020 	ei	v0
}
9d003290:	03c0e821 	move	sp,s8
9d003294:	8fbf0004 	lw	ra,4(sp)
9d003298:	8fbe0000 	lw	s8,0(sp)
9d00329c:	27bd0008 	addiu	sp,sp,8
9d0032a0:	03e00008 	jr	ra
9d0032a4:	00000000 	nop

9d0032a8 <NU32_ReadUART3>:

// Read from UART3
// block other functions until you get a '\r' or '\n'
// send the pointer to your char array and the number of elements in the array
void NU32_ReadUART3(char * message, int maxLength) {
9d0032a8:	27bdffe8 	addiu	sp,sp,-24
9d0032ac:	afbe0014 	sw	s8,20(sp)
9d0032b0:	03a0f021 	move	s8,sp
9d0032b4:	afc40018 	sw	a0,24(s8)
9d0032b8:	afc5001c 	sw	a1,28(s8)
  char data = 0;
9d0032bc:	a3c00008 	sb	zero,8(s8)
  int complete = 0, num_bytes = 0;
9d0032c0:	afc00000 	sw	zero,0(s8)
9d0032c4:	afc00004 	sw	zero,4(s8)
  // loop until you get a '\r' or '\n'
  while (!complete) {
9d0032c8:	0b400cd6 	j	9d003358 <NU32_ReadUART3+0xb0>
9d0032cc:	00000000 	nop
    if (U3STAbits.URXDA) { // if data is available
9d0032d0:	3c02bf80 	lui	v0,0xbf80
9d0032d4:	8c426410 	lw	v0,25616(v0)
9d0032d8:	30420001 	andi	v0,v0,0x1
9d0032dc:	1040001e 	beqz	v0,9d003358 <NU32_ReadUART3+0xb0>
9d0032e0:	00000000 	nop
      data = U3RXREG;      // read the data
9d0032e4:	3c02bf80 	lui	v0,0xbf80
9d0032e8:	8c426430 	lw	v0,25648(v0)
9d0032ec:	a3c20008 	sb	v0,8(s8)
      if ((data == '\n') || (data == '\r')) {
9d0032f0:	83c30008 	lb	v1,8(s8)
9d0032f4:	2402000a 	li	v0,10
9d0032f8:	10620005 	beq	v1,v0,9d003310 <NU32_ReadUART3+0x68>
9d0032fc:	00000000 	nop
9d003300:	83c30008 	lb	v1,8(s8)
9d003304:	2402000d 	li	v0,13
9d003308:	14620005 	bne	v1,v0,9d003320 <NU32_ReadUART3+0x78>
9d00330c:	00000000 	nop
        complete = 1;
9d003310:	24020001 	li	v0,1
9d003314:	afc20000 	sw	v0,0(s8)
9d003318:	0b400cd6 	j	9d003358 <NU32_ReadUART3+0xb0>
9d00331c:	00000000 	nop
      } else {
        message[num_bytes] = data;
9d003320:	8fc20004 	lw	v0,4(s8)
9d003324:	8fc30018 	lw	v1,24(s8)
9d003328:	00621021 	addu	v0,v1,v0
9d00332c:	93c30008 	lbu	v1,8(s8)
9d003330:	a0430000 	sb	v1,0(v0)
        ++num_bytes;
9d003334:	8fc20004 	lw	v0,4(s8)
9d003338:	24420001 	addiu	v0,v0,1
9d00333c:	afc20004 	sw	v0,4(s8)
        // roll over if the array is too small
        if (num_bytes >= maxLength) {
9d003340:	8fc30004 	lw	v1,4(s8)
9d003344:	8fc2001c 	lw	v0,28(s8)
9d003348:	0062102a 	slt	v0,v1,v0
9d00334c:	14400002 	bnez	v0,9d003358 <NU32_ReadUART3+0xb0>
9d003350:	00000000 	nop
          num_bytes = 0;
9d003354:	afc00004 	sw	zero,4(s8)
// send the pointer to your char array and the number of elements in the array
void NU32_ReadUART3(char * message, int maxLength) {
  char data = 0;
  int complete = 0, num_bytes = 0;
  // loop until you get a '\r' or '\n'
  while (!complete) {
9d003358:	8fc20000 	lw	v0,0(s8)
9d00335c:	1040ffdc 	beqz	v0,9d0032d0 <NU32_ReadUART3+0x28>
9d003360:	00000000 	nop
        }
      }
    }
  }
  // end the string
  message[num_bytes] = '\0';
9d003364:	8fc20004 	lw	v0,4(s8)
9d003368:	8fc30018 	lw	v1,24(s8)
9d00336c:	00621021 	addu	v0,v1,v0
9d003370:	a0400000 	sb	zero,0(v0)
}
9d003374:	03c0e821 	move	sp,s8
9d003378:	8fbe0014 	lw	s8,20(sp)
9d00337c:	27bd0018 	addiu	sp,sp,24
9d003380:	03e00008 	jr	ra
9d003384:	00000000 	nop

9d003388 <NU32_WriteUART3>:

// Write a character array using UART3
void NU32_WriteUART3(const char * string) {
9d003388:	27bdfff8 	addiu	sp,sp,-8
9d00338c:	afbe0004 	sw	s8,4(sp)
9d003390:	03a0f021 	move	s8,sp
9d003394:	afc40008 	sw	a0,8(s8)
  while (*string != '\0') {
9d003398:	0b400cf6 	j	9d0033d8 <NU32_WriteUART3+0x50>
9d00339c:	00000000 	nop
    while (U3STAbits.UTXBF) {
9d0033a0:	00000000 	nop
9d0033a4:	3c02bf80 	lui	v0,0xbf80
9d0033a8:	8c426410 	lw	v0,25616(v0)
9d0033ac:	30420200 	andi	v0,v0,0x200
9d0033b0:	1440fffc 	bnez	v0,9d0033a4 <NU32_WriteUART3+0x1c>
9d0033b4:	00000000 	nop
      ; // wait until tx buffer isn't full
    }
    U3TXREG = *string;
9d0033b8:	8fc20008 	lw	v0,8(s8)
9d0033bc:	80420000 	lb	v0,0(v0)
9d0033c0:	00401821 	move	v1,v0
9d0033c4:	3c02bf80 	lui	v0,0xbf80
9d0033c8:	ac436420 	sw	v1,25632(v0)
    ++string;
9d0033cc:	8fc20008 	lw	v0,8(s8)
9d0033d0:	24420001 	addiu	v0,v0,1
9d0033d4:	afc20008 	sw	v0,8(s8)
  message[num_bytes] = '\0';
}

// Write a character array using UART3
void NU32_WriteUART3(const char * string) {
  while (*string != '\0') {
9d0033d8:	8fc20008 	lw	v0,8(s8)
9d0033dc:	80420000 	lb	v0,0(v0)
9d0033e0:	1440ffef 	bnez	v0,9d0033a0 <NU32_WriteUART3+0x18>
9d0033e4:	00000000 	nop
      ; // wait until tx buffer isn't full
    }
    U3TXREG = *string;
    ++string;
  }
}
9d0033e8:	03c0e821 	move	sp,s8
9d0033ec:	8fbe0004 	lw	s8,4(sp)
9d0033f0:	27bd0008 	addiu	sp,sp,8
9d0033f4:	03e00008 	jr	ra
9d0033f8:	00000000 	nop

Disassembly of section .text.libm:

9d0033fc <__mchp_sqrtf>:
9d0033fc:	27bdffe0 	addiu	sp,sp,-32
9d003400:	afbf0000 	sw	ra,0(sp)
9d003404:	000445c2 	srl	t0,a0,0x17
9d003408:	00043a00 	sll	a3,a0,0x8
9d00340c:	3c018000 	lui	at,0x8000
9d003410:	00e13825 	or	a3,a3,at
9d003414:	250dffff 	addiu	t5,t0,-1
9d003418:	2da100fe 	sltiu	at,t5,254
9d00341c:	10200048 	beqz	at,9d003540 <Bspec>
9d003420:	00000000 	nop

9d003424 <Blab1>:
9d003424:	afa40004 	sw	a0,4(sp)
9d003428:	afa70010 	sw	a3,16(sp)
9d00342c:	afa80014 	sw	t0,20(sp)
9d003430:	00072025 	or	a0,zero,a3
9d003434:	0f400f41 	jal	9d003d04 <fpexsqrt>
9d003438:	00082825 	or	a1,zero,t0
9d00343c:	00186025 	or	t4,zero,t8
9d003440:	00035825 	or	t3,zero,v1
9d003444:	00025025 	or	t2,zero,v0
9d003448:	8fa80014 	lw	t0,20(sp)
9d00344c:	8fa70010 	lw	a3,16(sp)
9d003450:	8fa40004 	lw	a0,4(sp)
9d003454:	310d0001 	andi	t5,t0,0x1
9d003458:	11a00002 	beqz	t5,9d003464 <i3>
9d00345c:	00000000 	nop
9d003460:	00073842 	srl	a3,a3,0x1

9d003464 <i3>:
9d003464:	014a0019 	multu	t2,t2
9d003468:	00003012 	mflo	a2
9d00346c:	00002810 	mfhi	a1
9d003470:	00a72823 	subu	a1,a1,a3
9d003474:	00a66825 	or	t5,a1,a2
9d003478:	11a00027 	beqz	t5,9d003518 <Bret>
9d00347c:	00000000 	nop
9d003480:	04a00012 	bltz	a1,9d0034cc <Bloo1>
9d003484:	00000000 	nop

9d003488 <Bloo2>:
9d003488:	254affff 	addiu	t2,t2,-1
9d00348c:	2ccd0001 	sltiu	t5,a2,1
9d003490:	24c6ffff 	addiu	a2,a2,-1
9d003494:	00ad2823 	subu	a1,a1,t5
9d003498:	00ca682b 	sltu	t5,a2,t2
9d00349c:	00ca3023 	subu	a2,a2,t2
9d0034a0:	00ad2823 	subu	a1,a1,t5
9d0034a4:	00ca682b 	sltu	t5,a2,t2
9d0034a8:	00ca3023 	subu	a2,a2,t2
9d0034ac:	00ad2823 	subu	a1,a1,t5
9d0034b0:	04a00019 	bltz	a1,9d003518 <Bret>
9d0034b4:	00000000 	nop
9d0034b8:	00a66825 	or	t5,a1,a2
9d0034bc:	15a0fff2 	bnez	t5,9d003488 <Bloo2>
9d0034c0:	00000000 	nop
9d0034c4:	10000014 	b	9d003518 <Bret>
9d0034c8:	00000000 	nop

9d0034cc <Bloo1>:
9d0034cc:	254a0001 	addiu	t2,t2,1
9d0034d0:	2d4d0001 	sltiu	t5,t2,1
9d0034d4:	15a0000f 	bnez	t5,9d003514 <Blab3>
9d0034d8:	00000000 	nop
9d0034dc:	00ca3021 	addu	a2,a2,t2
9d0034e0:	00ca682b 	sltu	t5,a2,t2
9d0034e4:	00ad2821 	addu	a1,a1,t5
9d0034e8:	00ca3021 	addu	a2,a2,t2
9d0034ec:	00ca682b 	sltu	t5,a2,t2
9d0034f0:	00ad2821 	addu	a1,a1,t5
9d0034f4:	2ccd0001 	sltiu	t5,a2,1
9d0034f8:	24c6ffff 	addiu	a2,a2,-1
9d0034fc:	00ad2823 	subu	a1,a1,t5
9d003500:	04a0fff2 	bltz	a1,9d0034cc <Bloo1>
9d003504:	00000000 	nop
9d003508:	00a66825 	or	t5,a1,a2
9d00350c:	11a00002 	beqz	t5,9d003518 <Bret>
9d003510:	00000000 	nop

9d003514 <Blab3>:
9d003514:	254affff 	addiu	t2,t2,-1

9d003518 <Bret>:
9d003518:	254a0080 	addiu	t2,t2,128
9d00351c:	2d4d0080 	sltiu	t5,t2,128
9d003520:	016d5821 	addu	t3,t3,t5
9d003524:	000a1040 	sll	v0,t2,0x1
9d003528:	00021242 	srl	v0,v0,0x9
9d00352c:	000b6dc0 	sll	t5,t3,0x17
9d003530:	004d1025 	or	v0,v0,t5

9d003534 <B999>:
9d003534:	8fbf0000 	lw	ra,0(sp)
9d003538:	03e00008 	jr	ra
9d00353c:	27bd0020 	addiu	sp,sp,32

9d003540 <Bspec>:
9d003540:	04810006 	bgez	a0,9d00355c <i6>
9d003544:	00000000 	nop
9d003548:	00046840 	sll	t5,a0,0x1
9d00354c:	15a00013 	bnez	t5,9d00359c <Bnan>
9d003550:	00000000 	nop
9d003554:	1000fff7 	b	9d003534 <B999>
9d003558:	00041025 	or	v0,zero,a0

9d00355c <i6>:
9d00355c:	1500000a 	bnez	t0,9d003588 <i7>
9d003560:	00000000 	nop
9d003564:	00e73821 	addu	a3,a3,a3
9d003568:	10e00005 	beqz	a3,9d003580 <i8>
9d00356c:	00000000 	nop
9d003570:	70e52820 	clz	a1,a3
9d003574:	01054023 	subu	t0,t0,a1
9d003578:	1000ffaa 	b	9d003424 <Blab1>
9d00357c:	00a73804 	sllv	a3,a3,a1

9d003580 <i8>:
9d003580:	1000ffec 	b	9d003534 <B999>
9d003584:	24020000 	li	v0,0

9d003588 <i7>:
9d003588:	00e76821 	addu	t5,a3,a3
9d00358c:	15a00003 	bnez	t5,9d00359c <Bnan>
9d003590:	00000000 	nop
9d003594:	1000ffe7 	b	9d003534 <B999>
9d003598:	00041025 	or	v0,zero,a0

9d00359c <Bnan>:
9d00359c:	1000ffe5 	b	9d003534 <B999>
9d0035a0:	3c02ffc0 	lui	v0,0xffc0
9d0035a4:	00000000 	nop

Disassembly of section .text:

9d0035a8 <main>:
#include <stdio.h>     
#include <math.h>
#include "NU32.h"

int main(){
9d0035a8:	27bdff40 	addiu	sp,sp,-192
9d0035ac:	afbf00bc 	sw	ra,188(sp)
9d0035b0:	afbe00b8 	sw	s8,184(sp)
9d0035b4:	03a0f021 	move	s8,sp

char output[100];
float f1=2.07, f2;
9d0035b8:	3c029d00 	lui	v0,0x9d00
9d0035bc:	8c42491c 	lw	v0,18716(v0)
9d0035c0:	afc20018 	sw	v0,24(s8)
long double d1=2.07, d2;
9d0035c4:	3c029d00 	lui	v0,0x9d00
9d0035c8:	8c434924 	lw	v1,18724(v0)
9d0035cc:	8c424920 	lw	v0,18720(v0)
9d0035d0:	afc20020 	sw	v0,32(s8)
9d0035d4:	afc30024 	sw	v1,36(s8)

unsigned int elapsed, elapsed1, elapsed2, elapsed3, initial, final;

_CP0_SET_COUNT(0);
9d0035d8:	00001021 	move	v0,zero
9d0035dc:	40824800 	mtc0	v0,c0_count
9d0035e0:	000000c0 	ehb
f2 = cosf(f1);
9d0035e4:	8fc40018 	lw	a0,24(s8)
9d0035e8:	0f400e78 	jal	9d0039e0 <cosf>
9d0035ec:	00000000 	nop
9d0035f0:	afc20028 	sw	v0,40(s8)
final = _CP0_GET_COUNT();
9d0035f4:	40024800 	mfc0	v0,c0_count
9d0035f8:	afc2002c 	sw	v0,44(s8)
elapsed = final - initial;
9d0035fc:	8fc3002c 	lw	v1,44(s8)
9d003600:	8fc20030 	lw	v0,48(s8)
9d003604:	00621023 	subu	v0,v1,v0
9d003608:	afc20034 	sw	v0,52(s8)

_CP0_SET_COUNT(0);
9d00360c:	00001021 	move	v0,zero
9d003610:	40824800 	mtc0	v0,c0_count
9d003614:	000000c0 	ehb
f2 = sqrtf(f1);
9d003618:	8fc40018 	lw	a0,24(s8)
9d00361c:	0f40118c 	jal	9d004630 <sqrtf>
9d003620:	00000000 	nop
9d003624:	afc20028 	sw	v0,40(s8)
final = _CP0_GET_COUNT();
9d003628:	40024800 	mfc0	v0,c0_count
9d00362c:	afc2002c 	sw	v0,44(s8)
elapsed1 = final - initial;
9d003630:	8fc3002c 	lw	v1,44(s8)
9d003634:	8fc20030 	lw	v0,48(s8)
9d003638:	00621023 	subu	v0,v1,v0
9d00363c:	afc20038 	sw	v0,56(s8)

_CP0_SET_COUNT(0);
9d003640:	00001021 	move	v0,zero
9d003644:	40824800 	mtc0	v0,c0_count
9d003648:	000000c0 	ehb
d2 = cos(d1);
9d00364c:	8fc40020 	lw	a0,32(s8)
9d003650:	8fc50024 	lw	a1,36(s8)
9d003654:	0f400f01 	jal	9d003c04 <__truncdfsf2>
9d003658:	00000000 	nop
9d00365c:	00402021 	move	a0,v0
9d003660:	0f400e78 	jal	9d0039e0 <cosf>
9d003664:	00000000 	nop
9d003668:	00402021 	move	a0,v0
9d00366c:	0f401064 	jal	9d004190 <.LFE0>
9d003670:	00000000 	nop
9d003674:	afc20040 	sw	v0,64(s8)
9d003678:	afc30044 	sw	v1,68(s8)
final = _CP0_GET_COUNT();
9d00367c:	40024800 	mfc0	v0,c0_count
9d003680:	afc2002c 	sw	v0,44(s8)
elapsed2 = final - initial;
9d003684:	8fc3002c 	lw	v1,44(s8)
9d003688:	8fc20030 	lw	v0,48(s8)
9d00368c:	00621023 	subu	v0,v1,v0
9d003690:	afc20048 	sw	v0,72(s8)

_CP0_SET_COUNT(0);
9d003694:	00001021 	move	v0,zero
9d003698:	40824800 	mtc0	v0,c0_count
9d00369c:	000000c0 	ehb
d2 = sqrt(d1);
9d0036a0:	8fc40020 	lw	a0,32(s8)
9d0036a4:	8fc50024 	lw	a1,36(s8)
9d0036a8:	0f400f01 	jal	9d003c04 <__truncdfsf2>
9d0036ac:	00000000 	nop
9d0036b0:	00402021 	move	a0,v0
9d0036b4:	0f40118c 	jal	9d004630 <sqrtf>
9d0036b8:	00000000 	nop
9d0036bc:	00402021 	move	a0,v0
9d0036c0:	0f401064 	jal	9d004190 <.LFE0>
9d0036c4:	00000000 	nop
9d0036c8:	afc20040 	sw	v0,64(s8)
9d0036cc:	afc30044 	sw	v1,68(s8)
final = _CP0_GET_COUNT();
9d0036d0:	40024800 	mfc0	v0,c0_count
9d0036d4:	afc2002c 	sw	v0,44(s8)
elapsed3 = final - initial;
9d0036d8:	8fc3002c 	lw	v1,44(s8)
9d0036dc:	8fc20030 	lw	v0,48(s8)
9d0036e0:	00621023 	subu	v0,v1,v0
9d0036e4:	afc2004c 	sw	v0,76(s8)

sprintf(output,"%d, %d, %d, %d \r\n", elapsed, elapsed1, elapsed2, elapsed3);
9d0036e8:	27c20050 	addiu	v0,s8,80
9d0036ec:	8fc30048 	lw	v1,72(s8)
9d0036f0:	afa30010 	sw	v1,16(sp)
9d0036f4:	8fc3004c 	lw	v1,76(s8)
9d0036f8:	afa30014 	sw	v1,20(sp)
9d0036fc:	00402021 	move	a0,v0
9d003700:	3c029d00 	lui	v0,0x9d00
9d003704:	24454908 	addiu	a1,v0,18696
9d003708:	8fc60034 	lw	a2,52(s8)
9d00370c:	8fc70038 	lw	a3,56(s8)
9d003710:	0f401171 	jal	9d0045c4 <_sprintf_cdnopuxX>
9d003714:	00000000 	nop
NU32_WriteUART3(output);
9d003718:	27c20050 	addiu	v0,s8,80
9d00371c:	00402021 	move	a0,v0
9d003720:	0f400ce2 	jal	9d003388 <NU32_WriteUART3>
9d003724:	00000000 	nop

return 0;
9d003728:	00001021 	move	v0,zero

9d00372c:	03c0e821 	move	sp,s8
9d003730:	8fbf00bc 	lw	ra,188(sp)
9d003734:	8fbe00b8 	lw	s8,184(sp)
9d003738:	27bd00c0 	addiu	sp,sp,192
9d00373c:	03e00008 	jr	ra
9d003740:	00000000 	nop

Disassembly of section .dinit:

9d003744 <.dinit>:
9d003744:	a0000168 	sb	zero,360(zero)
9d003748:	00000024 	and	zero,zero,zero
9d00374c:	00000001 	movf	zero,zero,$fcc0
9d003750:	00067677 	0x67677
9d003754:	01111553 	0x1111553
9d003758:	15555724 	bne	t2,s5,9d0193ec <_fsync_string+0x149f4>
9d00375c:	8000006e 	lb	zero,110(zero)
9d003760:	0000ceb4 	teq	zero,zero,0x33a
9d003764:	002d867d 	0x2d867d
9d003768:	05555837 	0x5555837
9d00376c:	40000089 	0x40000089
9d003770:	80000044 	lb	zero,68(zero)
9d003774:	a000018c 	sb	zero,396(zero)
9d003778:	00000004 	sllv	zero,zero,zero
9d00377c:	00000001 	movf	zero,zero,$fcc0
9d003780:	00000001 	movf	zero,zero,$fcc0
9d003784:	a0000008 	sb	zero,8(zero)
9d003788:	00000004 	sllv	zero,zero,zero
9d00378c:	00000000 	nop
9d003790:	a000000c 	sb	zero,12(zero)
9d003794:	000000d4 	0xd4
9d003798:	00000001 	movf	zero,zero,$fcc0
9d00379c:	a0000070 	sb	zero,112(zero)
9d0037a0:	a000008c 	sb	zero,140(zero)
9d0037a4:	a00000a8 	sb	zero,168(zero)
9d0037a8:	a000006c 	sb	zero,108(zero)
9d0037ac:	a00000e0 	sb	zero,224(zero)
9d0037b0:	00000001 	movf	zero,zero,$fcc0
	...
9d003800:	ffffffff 	sdc3	$31,-1(ra)
9d003804:	ffffffff 	sdc3	$31,-1(ra)
9d003808:	00000000 	nop
9d00380c:	00000040 	ssnop
9d003810:	00001009 	jalr	v0,zero
9d003814:	00000000 	nop
9d003818:	9d00498c 	0x9d00498c
9d00381c:	ffffffff 	sdc3	$31,-1(ra)
	...
9d00382c:	00011002 	srl	v0,at,0x0
9d003830:	00000000 	nop
9d003834:	9d00498c 	0x9d00498c
9d003838:	ffffffff 	sdc3	$31,-1(ra)
	...
9d003848:	00020002 	srl	zero,v0,0x0
9d00384c:	00000000 	nop
9d003850:	9d00498c 	0x9d00498c
9d003854:	fffffffd 	sdc3	$31,-3(ra)
	...
9d003870:	a00000e0 	sb	zero,224(zero)
9d003874:	00000088 	0x88
9d003878:	00000000 	nop
9d00387c:	a0000000 	sb	zero,0(zero)
9d003880:	00000004 	sllv	zero,zero,zero
9d003884:	00000001 	movf	zero,zero,$fcc0
9d003888:	a000000c 	sb	zero,12(zero)
9d00388c:	a0000004 	sb	zero,4(zero)
9d003890:	00000004 	sllv	zero,zero,zero
9d003894:	00000001 	movf	zero,zero,$fcc0
9d003898:	00000002 	srl	zero,zero,0x0
9d00389c:	00000000 	nop
9d0038a0:	22222222 	addi	v0,s1,8738

Disassembly of section .text._outcnvrt:

9d0038a4 <_outcnvrt>:
9d0038a4:	27bdffc8 	addiu	sp,sp,-56
9d0038a8:	afbf0034 	sw	ra,52(sp)
9d0038ac:	afb70030 	sw	s7,48(sp)
9d0038b0:	afb6002c 	sw	s6,44(sp)
9d0038b4:	afb50028 	sw	s5,40(sp)
9d0038b8:	afb40024 	sw	s4,36(sp)
9d0038bc:	afb30020 	sw	s3,32(sp)
9d0038c0:	afb2001c 	sw	s2,28(sp)
9d0038c4:	afb10018 	sw	s1,24(sp)
9d0038c8:	afb00014 	sw	s0,20(sp)
9d0038cc:	97b70048 	lhu	s7,72(sp)
9d0038d0:	00808821 	move	s1,a0
9d0038d4:	00a08021 	move	s0,a1
9d0038d8:	32f70008 	andi	s7,s7,0x8
9d0038dc:	32f7ffff 	andi	s7,s7,0xffff
9d0038e0:	00c0a021 	move	s4,a2
9d0038e4:	00e0a821 	move	s5,a3
9d0038e8:	16e00003 	bnez	s7,9d0038f8 <_outcnvrt+0x54>
9d0038ec:	00c7b02a 	slt	s6,a2,a3
9d0038f0:	16c0002a 	bnez	s6,9d00399c <_outcnvrt+0xf8>
9d0038f4:	00000000 	nop
9d0038f8:	02149021 	addu	s2,s0,s4
9d0038fc:	0b400e46 	j	9d003918 <_outcnvrt+0x74>
9d003900:	2413ffff 	li	s3,-1
9d003904:	26100001 	addiu	s0,s0,1
9d003908:	0f4010ba 	jal	9d0042e8 <fputc>
9d00390c:	8204ffff 	lb	a0,-1(s0)
9d003910:	10530007 	beq	v0,s3,9d003930 <_outcnvrt+0x8c>
9d003914:	02a01021 	move	v0,s5
9d003918:	1612fffa 	bne	s0,s2,9d003904 <_outcnvrt+0x60>
9d00391c:	02202821 	move	a1,s1
9d003920:	12e00003 	beqz	s7,9d003930 <_outcnvrt+0x8c>
9d003924:	02a01021 	move	v0,s5
9d003928:	56c0000d 	bnezl	s6,9d003960 <_outcnvrt+0xbc>
9d00392c:	02202021 	move	a0,s1
9d003930:	0296100a 	movz	v0,s4,s6
9d003934:	8fbf0034 	lw	ra,52(sp)
9d003938:	8fb70030 	lw	s7,48(sp)
9d00393c:	8fb6002c 	lw	s6,44(sp)
9d003940:	8fb50028 	lw	s5,40(sp)
9d003944:	8fb40024 	lw	s4,36(sp)
9d003948:	8fb30020 	lw	s3,32(sp)
9d00394c:	8fb2001c 	lw	s2,28(sp)
9d003950:	8fb10018 	lw	s1,24(sp)
9d003954:	8fb00014 	lw	s0,20(sp)
9d003958:	03e00008 	jr	ra
9d00395c:	27bd0038 	addiu	sp,sp,56
9d003960:	0f40108f 	jal	9d00423c <repl.constprop.0>
9d003964:	02b42823 	subu	a1,s5,s4
9d003968:	02a01021 	move	v0,s5
9d00396c:	0296100a 	movz	v0,s4,s6
9d003970:	8fbf0034 	lw	ra,52(sp)
9d003974:	8fb70030 	lw	s7,48(sp)
9d003978:	8fb6002c 	lw	s6,44(sp)
9d00397c:	8fb50028 	lw	s5,40(sp)
9d003980:	8fb40024 	lw	s4,36(sp)
9d003984:	8fb30020 	lw	s3,32(sp)
9d003988:	8fb2001c 	lw	s2,28(sp)
9d00398c:	8fb10018 	lw	s1,24(sp)
9d003990:	8fb00014 	lw	s0,20(sp)
9d003994:	03e00008 	jr	ra
9d003998:	27bd0038 	addiu	sp,sp,56
9d00399c:	0f40108f 	jal	9d00423c <repl.constprop.0>
9d0039a0:	00e62823 	subu	a1,a3,a2
9d0039a4:	2403ffff 	li	v1,-1
9d0039a8:	1443ffd3 	bne	v0,v1,9d0038f8 <_outcnvrt+0x54>
9d0039ac:	02a01021 	move	v0,s5
9d0039b0:	0296100a 	movz	v0,s4,s6
9d0039b4:	8fbf0034 	lw	ra,52(sp)
9d0039b8:	8fb70030 	lw	s7,48(sp)
9d0039bc:	8fb6002c 	lw	s6,44(sp)
9d0039c0:	8fb50028 	lw	s5,40(sp)
9d0039c4:	8fb40024 	lw	s4,36(sp)
9d0039c8:	8fb30020 	lw	s3,32(sp)
9d0039cc:	8fb2001c 	lw	s2,28(sp)
9d0039d0:	8fb10018 	lw	s1,24(sp)
9d0039d4:	8fb00014 	lw	s0,20(sp)
9d0039d8:	03e00008 	jr	ra
9d0039dc:	27bd0038 	addiu	sp,sp,56

Disassembly of section .text.libm:

9d0039e0 <cosf>:
9d0039e0:	27bdfff0 	addiu	sp,sp,-16
9d0039e4:	afbf0000 	sw	ra,0(sp)
9d0039e8:	0f400ebe 	jal	9d003af8 <fpreduct>
9d0039ec:	afa40004 	sw	a0,4(sp)
9d0039f0:	00185025 	or	t2,zero,t8
9d0039f4:	00034825 	or	t1,zero,v1
9d0039f8:	00024025 	or	t0,zero,v0
9d0039fc:	05210003 	bgez	t1,9d003a0c <cosf+0x2c>
9d003a00:	8fa40004 	lw	a0,4(sp)
9d003a04:	10000038 	b	9d003ae8 <cosf+0x108>
9d003a08:	00081025 	or	v0,zero,t0
9d003a0c:	25440002 	addiu	a0,t2,2
9d003a10:	00042082 	srl	a0,a0,0x2
9d003a14:	000427c0 	sll	a0,a0,0x1f
9d003a18:	01080019 	multu	t0,t0
9d003a1c:	00003810 	mfhi	a3
9d003a20:	2405007e 	li	a1,126
9d003a24:	00a92823 	subu	a1,a1,t1
9d003a28:	00052840 	sll	a1,a1,0x1
9d003a2c:	2ca10020 	sltiu	at,a1,32
9d003a30:	14200002 	bnez	at,9d003a3c <cosf+0x5c>
9d003a34:	00000000 	nop
9d003a38:	34070000 	li	a3,0x0
9d003a3c:	00a73806 	srlv	a3,a3,a1
9d003a40:	254cffff 	addiu	t4,t2,-1
9d003a44:	318c0002 	andi	t4,t4,0x2
9d003a48:	1180000d 	beqz	t4,9d003a80 <cosf+0xa0>
9d003a4c:	00000000 	nop
9d003a50:	3c0ba000 	lui	t3,0xa000
9d003a54:	256b0178 	addiu	t3,t3,376
9d003a58:	8d680000 	lw	t0,0(t3)
9d003a5c:	256b0004 	addiu	t3,t3,4
9d003a60:	00e80019 	multu	a3,t0
9d003a64:	00004010 	mfhi	t0
9d003a68:	8d660000 	lw	a2,0(t3)
9d003a6c:	256b0004 	addiu	t3,t3,4
9d003a70:	04c1fffb 	bgez	a2,9d003a60 <cosf+0x80>
9d003a74:	00c84023 	subu	t0,a2,t0
9d003a78:	10000012 	b	9d003ac4 <cosf+0xe4>
9d003a7c:	2409007f 	li	t1,127
9d003a80:	3c0ba000 	lui	t3,0xa000
9d003a84:	256b0168 	addiu	t3,t3,360
9d003a88:	8d650000 	lw	a1,0(t3)
9d003a8c:	256b0004 	addiu	t3,t3,4
9d003a90:	00e50019 	multu	a3,a1
9d003a94:	00002810 	mfhi	a1
9d003a98:	8d660000 	lw	a2,0(t3)
9d003a9c:	256b0004 	addiu	t3,t3,4
9d003aa0:	04c1fffb 	bgez	a2,9d003a90 <cosf+0xb0>
9d003aa4:	00c52823 	subu	a1,a2,a1
9d003aa8:	18a00003 	blez	a1,9d003ab8 <cosf+0xd8>
9d003aac:	00000000 	nop
9d003ab0:	00052840 	sll	a1,a1,0x1
9d003ab4:	2529ffff 	addiu	t1,t1,-1
9d003ab8:	25290001 	addiu	t1,t1,1
9d003abc:	01050019 	multu	t0,a1
9d003ac0:	00004010 	mfhi	t0
9d003ac4:	19000003 	blez	t0,9d003ad4 <cosf+0xf4>
9d003ac8:	00000000 	nop
9d003acc:	00084040 	sll	t0,t0,0x1
9d003ad0:	2529ffff 	addiu	t1,t1,-1
9d003ad4:	00084040 	sll	t0,t0,0x1
9d003ad8:	00084242 	srl	t0,t0,0x9
9d003adc:	000965c0 	sll	t4,t1,0x17
9d003ae0:	010c4025 	or	t0,t0,t4
9d003ae4:	01041025 	or	v0,t0,a0
9d003ae8:	8fbf0000 	lw	ra,0(sp)
9d003aec:	03e00008 	jr	ra
9d003af0:	27bd0010 	addiu	sp,sp,16
9d003af4:	00000000 	nop

9d003af8 <fpreduct>:
9d003af8:	000435c2 30c600ff 00042a00 3c018000     .5.....0.*.....<
9d003b08:	00a12825 24070000 24c8ff82 05000032     %(.....$...$2...
9d003b18:	00000000 29010020 10200034 00000000     .... ..)4. .....
9d003b28:	00052882 24090000 3c0b10b4 356b611a     .(.....$...<.ak5
9d003b38:	3c0a6487 354aed51 00073840 24e70001     .d.<Q.J5@8.....$
9d003b48:	0120602a 01294821 00a52821 00ac2821     *` .!H).!(..!(..
9d003b58:	012b602b 012b4823 00ac682b 00ac2823     +`+.#H+.+h..#(..
9d003b68:	00aa602b 018d6025 11800006 00aa2823     +`..%`......#(..
9d003b78:	24e7ffff 012b4821 012b602b 00aa2821     ...$!H+.+`+.!(..
9d003b88:	00ac2821 2508ffff 0501ffeb 00000000     !(.....%........
9d003b98:	30ec0001 11800007 00000000 0169602b     ...0........+`i.
9d003ba8:	01695823 014c5023 01455023 000b4825     #Xi.#PL.#PE.%H..
9d003bb8:	000a2825 2406007f 04a00007 00000000     %(.....$........
9d003bc8:	0120602a 01294821 00a52821 00ac2821     *` .!H).!(..!(..
9d003bd8:	1000fff9 24c6ffff 00051025 00061825     .......$%...%...
9d003be8:	0007c025 03e00008 00000000 2406ffff     %..............$
9d003bf8:	1000fff9 3c05ffc0 00000000              .......<....

Disassembly of section .text.dptofp:

9d003c04 <__truncdfsf2>:
9d003c04:	00053ac0 00045d42 00eb3825 000432c0     .:..B]..%8...2..
9d003c14:	3c018000 00e13825 3c018000 00a14824     ...<%8.....<$H..
9d003c24:	00054040 00084542 2508fc80 250bffff     @@..BE.....%...%
9d003c34:	2d6100fe 10200012 00000000              ..a-.. .....

9d003c40 <Hlab1>:
9d003c40:	10c00002 	beqz	a2,9d003c4c <i45>
9d003c44:	00000000 	nop
9d003c48:	34e70001 	ori	a3,a3,0x1

9d003c4c <i45>:
9d003c4c:	24e70080 	addiu	a3,a3,128
9d003c50:	2ceb0080 	sltiu	t3,a3,128
9d003c54:	010b4021 	addu	t0,t0,t3
9d003c58:	00075a02 	srl	t3,a3,0x8
9d003c5c:	316b0001 	andi	t3,t3,0x1
9d003c60:	00eb3823 	subu	a3,a3,t3
9d003c64:	00073840 	sll	a3,a3,0x1
9d003c68:	00073a42 	srl	a3,a3,0x9
9d003c6c:	00085dc0 	sll	t3,t0,0x17
9d003c70:	00eb3825 	or	a3,a3,t3
9d003c74:	00e91025 	or	v0,a3,t1

9d003c78 <H999>:
9d003c78:	03e00008 	jr	ra
9d003c7c:	00000000 	nop
9d003c80:	00000000 	nop

9d003c84 <Hspec>:
9d003c84:	2401047f 	li	at,1151
9d003c88:	15010007 	bne	t0,at,9d003ca8 <i46>
9d003c8c:	00000000 	nop
9d003c90:	00075840 	sll	t3,a3,0x1
9d003c94:	01665825 	or	t3,t3,a2
9d003c98:	11600003 	beqz	t3,9d003ca8 <i46>
9d003c9c:	00000000 	nop
9d003ca0:	1000fff5 	b	9d003c78 <H999>
9d003ca4:	3c02ffc0 	lui	v0,0xffc0

9d003ca8 <i46>:
9d003ca8:	290100ff 	slti	at,t0,255
9d003cac:	14200004 	bnez	at,9d003cc0 <i48>
9d003cb0:	00000000 	nop
9d003cb4:	3c017f80 	lui	at,0x7f80
9d003cb8:	1000ffef 	b	9d003c78 <H999>
9d003cbc:	01211025 	or	v0,t1,at

9d003cc0 <i48>:
9d003cc0:	240a0001 	li	t2,1
9d003cc4:	01485023 	subu	t2,t2,t0
9d003cc8:	2d410020 	sltiu	at,t2,32
9d003ccc:	14200003 	bnez	at,9d003cdc <i49>
9d003cd0:	00000000 	nop
9d003cd4:	1000ffe8 	b	9d003c78 <H999>
9d003cd8:	00091025 	or	v0,zero,t1

9d003cdc <i49>:
9d003cdc:	240c0020 	li	t4,32
9d003ce0:	018a6023 	subu	t4,t4,t2
9d003ce4:	01875804 	sllv	t3,a3,t4
9d003ce8:	00cb3025 	or	a2,a2,t3
9d003cec:	01473806 	srlv	a3,a3,t2
9d003cf0:	24080000 	li	t0,0
9d003cf4:	3c018000 	lui	at,0x8000
9d003cf8:	1000ffd1 	b	9d003c40 <Hlab1>
9d003cfc:	00e13825 	or	a3,a3,at
9d003d00:	00000000 	nop

Disassembly of section .text.libm.fpexsqrt:

9d003d04 <fpexsqrt>:
9d003d04:	1080003a 00000000 30ad0001 11a0000b     :..........0....
9d003d14:	00000000 3c0967f2 35291800 00890019     .....g.<..)5....
9d003d24:	00004810 3c014d13 34214800 01214821     .H...M.<.H!4!H!.
9d003d34:	00042042 10000007 24a50001              B .........$

9d003d40 <i1>:
9d003d40:	3c099300 	lui	t1,0x9300
9d003d44:	00890019 	multu	a0,t1
9d003d48:	00004810 	mfhi	t1
9d003d4c:	3c016cff 	lui	at,0x6cff
9d003d50:	3421fc00 	ori	at,at,0xfc00
9d003d54:	01214821 	addu	t1,t1,at

9d003d58 <e1>:
9d003d58:	00053843 	sra	a3,a1,0x1
9d003d5c:	24e7003f 	addiu	a3,a3,63
9d003d60:	00094bc2 	srl	t1,t1,0xf
9d003d64:	012001f4 	teq	t1,zero,0x7
9d003d68:	0089001b 	divu	zero,a0,t1
9d003d6c:	00005012 	mflo	t2
9d003d70:	00094b80 	sll	t1,t1,0xe
9d003d74:	000a5400 	sll	t2,t2,0x10
9d003d78:	012a4821 	addu	t1,t1,t2
9d003d7c:	012a682b 	sltu	t5,t1,t2
9d003d80:	012d4823 	subu	t1,t1,t5
9d003d84:	3c0a8000 	lui	t2,0x8000
9d003d88:	00095c02 	srl	t3,t1,0x10
9d003d8c:	016001f4 	teq	t3,zero,0x7
9d003d90:	014b001b 	divu	zero,t2,t3
9d003d94:	00005012 	mflo	t2
9d003d98:	000a5400 	sll	t2,t2,0x10
9d003d9c:	15400002 	bnez	t2,9d003da8 <i2>
9d003da0:	00000000 	nop
9d003da4:	240affff 	li	t2,-1

9d003da8 <i2>:
9d003da8:	012a0019 	multu	t1,t2
9d003dac:	00005810 	mfhi	t3
9d003db0:	000b5823 	negu	t3,t3
9d003db4:	014b0019 	multu	t2,t3
9d003db8:	00005010 	mfhi	t2
9d003dbc:	01440019 	multu	t2,a0
9d003dc0:	00005010 	mfhi	t2
9d003dc4:	000a5040 	sll	t2,t2,0x1
9d003dc8:	00094842 	srl	t1,t1,0x1
9d003dcc:	012a4821 	addu	t1,t1,t2
9d003dd0:	012a682b 	sltu	t5,t1,t2
9d003dd4:	012d4823 	subu	t1,t1,t5
9d003dd8:	00093025 	or	a2,zero,t1

9d003ddc <Aret>:
9d003ddc:	00061025 	or	v0,zero,a2
9d003de0:	00071825 	or	v1,zero,a3
9d003de4:	0008c025 	or	t8,zero,t0

9d003de8 <A999>:
9d003de8:	03e00008 	jr	ra
9d003dec:	00000000 	nop

9d003df0 <Azer>:
9d003df0:	24070000 	li	a3,0
9d003df4:	1000fff9 	b	9d003ddc <Aret>
9d003df8:	00073025 	or	a2,zero,a3
9d003dfc:	00000000 	nop

Disassembly of section .text._flsbuf_simple:

9d003e00 <_flsbuf_simple>:
9d003e00:	27bdffd8 	addiu	sp,sp,-40
9d003e04:	afbf0024 	sw	ra,36(sp)
9d003e08:	afb10020 	sw	s1,32(sp)
9d003e0c:	afb0001c 	sw	s0,28(sp)
9d003e10:	00a08021 	move	s0,a1
9d003e14:	8ca2000c 	lw	v0,12(a1)
9d003e18:	1040002d 	beqz	v0,9d003ed0 <_flsbuf_simple+0xd0>
9d003e1c:	00808821 	move	s1,a0
9d003e20:	8ca20000 	lw	v0,0(a1)
9d003e24:	24420001 	addiu	v0,v0,1
9d003e28:	2403ffff 	li	v1,-1
9d003e2c:	1043001e 	beq	v0,v1,9d003ea8 <_flsbuf_simple+0xa8>
9d003e30:	aca20000 	sw	v0,0(a1)
9d003e34:	0f401131 	jal	9d0044c4 <_fflush_simple>
9d003e38:	02002021 	move	a0,s0
9d003e3c:	8e040000 	lw	a0,0(s0)
9d003e40:	8e020004 	lw	v0,4(s0)
9d003e44:	2484ffff 	addiu	a0,a0,-1
9d003e48:	24430001 	addiu	v1,v0,1
9d003e4c:	ae040000 	sw	a0,0(s0)
9d003e50:	ae030004 	sw	v1,4(s0)
9d003e54:	a0510000 	sb	s1,0(v0)
9d003e58:	2402000a 	li	v0,10
9d003e5c:	52220007 	beql	s1,v0,9d003e7c <_flsbuf_simple+0x7c>
9d003e60:	96020010 	lhu	v0,16(s0)
9d003e64:	02201021 	move	v0,s1
9d003e68:	8fbf0024 	lw	ra,36(sp)
9d003e6c:	8fb10020 	lw	s1,32(sp)
9d003e70:	8fb0001c 	lw	s0,28(sp)
9d003e74:	03e00008 	jr	ra
9d003e78:	27bd0028 	addiu	sp,sp,40
9d003e7c:	30420008 	andi	v0,v0,0x8
9d003e80:	1040fff9 	beqz	v0,9d003e68 <_flsbuf_simple+0x68>
9d003e84:	02201021 	move	v0,s1
9d003e88:	0f401131 	jal	9d0044c4 <_fflush_simple>
9d003e8c:	02002021 	move	a0,s0
9d003e90:	02201021 	move	v0,s1
9d003e94:	8fbf0024 	lw	ra,36(sp)
9d003e98:	8fb10020 	lw	s1,32(sp)
9d003e9c:	8fb0001c 	lw	s0,28(sp)
9d003ea0:	03e00008 	jr	ra
9d003ea4:	27bd0028 	addiu	sp,sp,40
9d003ea8:	8ca20008 	lw	v0,8(a1)
9d003eac:	1440ffe1 	bnez	v0,9d003e34 <_flsbuf_simple+0x34>
9d003eb0:	00000000 	nop
9d003eb4:	94a20010 	lhu	v0,16(a1)
9d003eb8:	aca00004 	sw	zero,4(a1)
9d003ebc:	aca0000c 	sw	zero,12(a1)
9d003ec0:	34420010 	ori	v0,v0,0x10
9d003ec4:	aca00000 	sw	zero,0(a1)
9d003ec8:	0b400f8d 	j	9d003e34 <_flsbuf_simple+0x34>
9d003ecc:	a4a20010 	sh	v0,16(a1)
9d003ed0:	27a40010 	addiu	a0,sp,16
9d003ed4:	24050001 	li	a1,1
9d003ed8:	0f4011bb 	jal	9d0046ec <_mon_write>
9d003edc:	a3b10010 	sb	s1,16(sp)
9d003ee0:	ae000000 	sw	zero,0(s0)
9d003ee4:	02201021 	move	v0,s1
9d003ee8:	8fbf0024 	lw	ra,36(sp)
9d003eec:	8fb10020 	lw	s1,32(sp)
9d003ef0:	8fb0001c 	lw	s0,28(sp)
9d003ef4:	03e00008 	jr	ra
9d003ef8:	27bd0028 	addiu	sp,sp,40

Disassembly of section .text._mon_getc:

9d003efc <_mon_getc>:
9d003efc:	27bdffe8 	addiu	sp,sp,-24
9d003f00:	afbf0014 	sw	ra,20(sp)
9d003f04:	3c02a000 	lui	v0,0xa000
9d003f08:	8c420004 	lw	v0,4(v0)
9d003f0c:	1440000a 	bnez	v0,9d003f38 <_mon_getc+0x3c>
9d003f10:	24030002 	li	v1,2
9d003f14:	3c020000 	lui	v0,0x0
9d003f18:	24420000 	addiu	v0,v0,0
9d003f1c:	10400029 	beqz	v0,9d003fc4 <_mon_getc+0xc8>
9d003f20:	3c020000 	lui	v0,0x0
9d003f24:	0c000000 	jal	90000000 <_bmxdkpba_address+0x8ffe0000>
9d003f28:	00000000 	nop
9d003f2c:	8fbf0014 	lw	ra,20(sp)
9d003f30:	03e00008 	jr	ra
9d003f34:	27bd0018 	addiu	sp,sp,24
9d003f38:	1043001c 	beq	v0,v1,9d003fac <_mon_getc+0xb0>
9d003f3c:	3c02bf80 	lui	v0,0xbf80
9d003f40:	3c02bf80 	lui	v0,0xbf80
9d003f44:	8c426000 	lw	v0,24576(v0)
9d003f48:	3c05bf80 	lui	a1,0xbf80
9d003f4c:	24a56030 	addiu	a1,a1,24624
9d003f50:	3c04bf80 	lui	a0,0xbf80
9d003f54:	24846010 	addiu	a0,a0,24592
9d003f58:	30428000 	andi	v0,v0,0x8000
9d003f5c:	14400003 	bnez	v0,9d003f6c <_mon_getc+0x70>
9d003f60:	34038000 	li	v1,0x8000
9d003f64:	3c02bf80 	lui	v0,0xbf80
9d003f68:	ac436008 	sw	v1,24584(v0)
9d003f6c:	8c820000 	lw	v0,0(a0)
9d003f70:	30420001 	andi	v0,v0,0x1
9d003f74:	14400009 	bnez	v0,9d003f9c <_mon_getc+0xa0>
9d003f78:	240200a0 	li	v0,160
9d003f7c:	0b400fe3 	j	9d003f8c <_mon_getc+0x90>
9d003f80:	00000000 	nop
9d003f84:	10400005 	beqz	v0,9d003f9c <_mon_getc+0xa0>
9d003f88:	00000000 	nop
9d003f8c:	8c830000 	lw	v1,0(a0)
9d003f90:	30630001 	andi	v1,v1,0x1
9d003f94:	1060fffb 	beqz	v1,9d003f84 <_mon_getc+0x88>
9d003f98:	2442ffff 	addiu	v0,v0,-1
9d003f9c:	8ca20000 	lw	v0,0(a1)
9d003fa0:	8fbf0014 	lw	ra,20(sp)
9d003fa4:	03e00008 	jr	ra
9d003fa8:	27bd0018 	addiu	sp,sp,24
9d003fac:	8c426800 	lw	v0,26624(v0)
9d003fb0:	3c05bf80 	lui	a1,0xbf80
9d003fb4:	24a56830 	addiu	a1,a1,26672
9d003fb8:	3c04bf80 	lui	a0,0xbf80
9d003fbc:	0b400fd6 	j	9d003f58 <_mon_getc+0x5c>
9d003fc0:	24846810 	addiu	a0,a0,26640
9d003fc4:	24420000 	addiu	v0,v0,0
9d003fc8:	5040ffde 	beqzl	v0,9d003f44 <_mon_getc+0x48>
9d003fcc:	3c02bf80 	lui	v0,0xbf80
9d003fd0:	0c000000 	jal	90000000 <_bmxdkpba_address+0x8ffe0000>
9d003fd4:	00000000 	nop
9d003fd8:	0b400fcc 	j	9d003f30 <_mon_getc+0x34>
9d003fdc:	8fbf0014 	lw	ra,20(sp)

Disassembly of section .text.general_exception:

9d003fe0 <_general_exception_context>:
9d003fe0:	27bdffa8 	addiu	sp,sp,-88
9d003fe4:	afa10004 	sw	at,4(sp)
9d003fe8:	afa20008 	sw	v0,8(sp)
9d003fec:	afa3000c 	sw	v1,12(sp)
9d003ff0:	afa40010 	sw	a0,16(sp)
9d003ff4:	afa50014 	sw	a1,20(sp)
9d003ff8:	afa60018 	sw	a2,24(sp)
9d003ffc:	afa7001c 	sw	a3,28(sp)
9d004000:	afa80020 	sw	t0,32(sp)
9d004004:	afa90024 	sw	t1,36(sp)
9d004008:	afaa0028 	sw	t2,40(sp)
9d00400c:	afab002c 	sw	t3,44(sp)
9d004010:	afac0030 	sw	t4,48(sp)
9d004014:	afad0034 	sw	t5,52(sp)
9d004018:	afae0038 	sw	t6,56(sp)
9d00401c:	afaf003c 	sw	t7,60(sp)
9d004020:	afb80040 	sw	t8,64(sp)
9d004024:	afb90044 	sw	t9,68(sp)
9d004028:	afbf0048 	sw	ra,72(sp)
9d00402c:	00004012 	mflo	t0
9d004030:	afa8004c 	sw	t0,76(sp)
9d004034:	00004010 	mfhi	t0
9d004038:	afa80050 	sw	t0,80(sp)
9d00403c:	3c1a9d00 	lui	k0,0x9d00
9d004040:	275a4780 	addiu	k0,k0,18304
9d004044:	00000000 	nop
9d004048:	40046800 	mfc0	a0,c0_cause
9d00404c:	40056000 	mfc0	a1,c0_status
9d004050:	0340f809 	jalr	k0
9d004054:	00000000 	nop
9d004058:	8fa80050 	lw	t0,80(sp)
9d00405c:	01000011 	mthi	t0
9d004060:	8fa8004c 	lw	t0,76(sp)
9d004064:	01000013 	mtlo	t0
9d004068:	8fa10004 	lw	at,4(sp)
9d00406c:	8fa20008 	lw	v0,8(sp)
9d004070:	8fa3000c 	lw	v1,12(sp)
9d004074:	8fa40010 	lw	a0,16(sp)
9d004078:	8fa50014 	lw	a1,20(sp)
9d00407c:	8fa60018 	lw	a2,24(sp)
9d004080:	8fa7001c 	lw	a3,28(sp)
9d004084:	8fa80020 	lw	t0,32(sp)
9d004088:	8fa90024 	lw	t1,36(sp)
9d00408c:	8faa0028 	lw	t2,40(sp)
9d004090:	8fab002c 	lw	t3,44(sp)
9d004094:	8fac0030 	lw	t4,48(sp)
9d004098:	8fad0034 	lw	t5,52(sp)
9d00409c:	8fae0038 	lw	t6,56(sp)
9d0040a0:	8faf003c 	lw	t7,60(sp)
9d0040a4:	8fb80040 	lw	t8,64(sp)
9d0040a8:	8fb90044 	lw	t9,68(sp)
9d0040ac:	8fbf0048 	lw	ra,72(sp)
9d0040b0:	27bd0058 	addiu	sp,sp,88
9d0040b4:	000000c0 	ehb
9d0040b8:	42000018 	eret

Disassembly of section .text._mon_putc:

9d0040bc <_mon_putc>:
9d0040bc:	27bdffe8 	addiu	sp,sp,-24
9d0040c0:	afbf0014 	sw	ra,20(sp)
9d0040c4:	3c02a000 	lui	v0,0xa000
9d0040c8:	8c420004 	lw	v0,4(v0)
9d0040cc:	1440000a 	bnez	v0,9d0040f8 <_mon_putc+0x3c>
9d0040d0:	7c042420 	seb	a0,a0
9d0040d4:	3c020000 	lui	v0,0x0
9d0040d8:	24420000 	addiu	v0,v0,0
9d0040dc:	10400025 	beqz	v0,9d004174 <_mon_putc+0xb8>
9d0040e0:	3c020000 	lui	v0,0x0
9d0040e4:	0c000000 	jal	90000000 <_bmxdkpba_address+0x8ffe0000>
9d0040e8:	00000000 	nop
9d0040ec:	8fbf0014 	lw	ra,20(sp)
9d0040f0:	03e00008 	jr	ra
9d0040f4:	27bd0018 	addiu	sp,sp,24
9d0040f8:	24030001 	li	v1,1
9d0040fc:	10430015 	beq	v0,v1,9d004154 <_mon_putc+0x98>
9d004100:	3c05bf80 	lui	a1,0xbf80
9d004104:	3c05bf80 	lui	a1,0xbf80
9d004108:	24a56820 	addiu	a1,a1,26656
9d00410c:	3c02bf80 	lui	v0,0xbf80
9d004110:	24426818 	addiu	v0,v0,26648
9d004114:	3c06bf80 	lui	a2,0xbf80
9d004118:	24c66808 	addiu	a2,a2,26632
9d00411c:	3c03bf80 	lui	v1,0xbf80
9d004120:	24636810 	addiu	v1,v1,26640
9d004124:	34078000 	li	a3,0x8000
9d004128:	acc70000 	sw	a3,0(a2)
9d00412c:	24060400 	li	a2,1024
9d004130:	ac460000 	sw	a2,0(v0)
9d004134:	8c620000 	lw	v0,0(v1)
9d004138:	30420100 	andi	v0,v0,0x100
9d00413c:	1040fffd 	beqz	v0,9d004134 <_mon_putc+0x78>
9d004140:	00000000 	nop
9d004144:	aca40000 	sw	a0,0(a1)
9d004148:	8fbf0014 	lw	ra,20(sp)
9d00414c:	03e00008 	jr	ra
9d004150:	27bd0018 	addiu	sp,sp,24
9d004154:	24a56020 	addiu	a1,a1,24608
9d004158:	3c02bf80 	lui	v0,0xbf80
9d00415c:	24426018 	addiu	v0,v0,24600
9d004160:	3c06bf80 	lui	a2,0xbf80
9d004164:	24c66008 	addiu	a2,a2,24584
9d004168:	3c03bf80 	lui	v1,0xbf80
9d00416c:	0b401049 	j	9d004124 <_mon_putc+0x68>
9d004170:	24636010 	addiu	v1,v1,24592
9d004174:	24420000 	addiu	v0,v0,0
9d004178:	1040ffe3 	beqz	v0,9d004108 <_mon_putc+0x4c>
9d00417c:	3c05bf80 	lui	a1,0xbf80
9d004180:	0c000000 	jal	90000000 <_bmxdkpba_address+0x8ffe0000>
9d004184:	00000000 	nop
9d004188:	0b40103c 	j	9d0040f0 <_mon_putc+0x34>
9d00418c:	8fbf0014 	lw	ra,20(sp)

Disassembly of section .text.fptodp:

9d004190 <__extendsfdf2>:
9d004190:	00043dc2 30e700ff 3c018000 00813024     .=.....0...<$0..
9d0041a0:	24e9ffff 2d2100fe 1020000d 00000000     ...$..!-.. .....

9d0041b0 <Glab1>:
9d0041b0:	24e70380 	addiu	a3,a3,896
9d0041b4:	00044a40 	sll	t1,a0,0x9
9d0041b8:	00094b02 	srl	t1,t1,0xc
9d0041bc:	00c93025 	or	a2,a2,t1
9d0041c0:	00042f40 	sll	a1,a0,0x1d

9d0041c4 <Gret>:
9d0041c4:	00074d00 	sll	t1,a3,0x14
9d0041c8:	00c93025 	or	a2,a2,t1
9d0041cc:	00051025 	or	v0,zero,a1
9d0041d0:	00061825 	or	v1,zero,a2

9d0041d4 <G999>:
9d0041d4:	03e00008 	jr	ra
9d0041d8:	00000000 	nop
9d0041dc:	00000000 	nop

9d0041e0 <Gspec>:
9d0041e0:	24050000 	li	a1,0
9d0041e4:	00842021 	addu	a0,a0,a0
9d0041e8:	1080fff6 	beqz	a0,9d0041c4 <Gret>
9d0041ec:	00000000 	nop
9d0041f0:	14e00009 	bnez	a3,9d004218 <i42>
9d0041f4:	00000000 	nop

9d0041f8 <b43>:
9d0041f8:	24e7ffff 	addiu	a3,a3,-1
9d0041fc:	00842021 	addu	a0,a0,a0
9d004200:	3c010080 	lui	at,0x80
9d004204:	0081082b 	sltu	at,a0,at
9d004208:	1420fffb 	bnez	at,9d0041f8 <b43>
9d00420c:	00000000 	nop
9d004210:	1000ffe7 	b	9d0041b0 <Glab1>
9d004214:	00000000 	nop

9d004218 <i42>:
9d004218:	240707ff 	li	a3,2047
9d00421c:	3c01ff00 	lui	at,0xff00
9d004220:	34210001 	ori	at,at,0x1
9d004224:	0081082b 	sltu	at,a0,at
9d004228:	1420ffe6 	bnez	at,9d0041c4 <Gret>
9d00422c:	00000000 	nop
9d004230:	1000ffe4 	b	9d0041c4 <Gret>
9d004234:	3c06fff8 	lui	a2,0xfff8
9d004238:	00000000 	nop

Disassembly of section .text.repl.constprop.0:

9d00423c <repl.constprop.0>:
9d00423c:	27bdffd0 	addiu	sp,sp,-48
9d004240:	afbf002c 	sw	ra,44(sp)
9d004244:	afb60028 	sw	s6,40(sp)
9d004248:	afb50024 	sw	s5,36(sp)
9d00424c:	afb40020 	sw	s4,32(sp)
9d004250:	afb3001c 	sw	s3,28(sp)
9d004254:	afb20018 	sw	s2,24(sp)
9d004258:	afb10014 	sw	s1,20(sp)
9d00425c:	afb00010 	sw	s0,16(sp)
9d004260:	10a00016 	beqz	a1,9d0042bc <repl.constprop.0+0x80>
9d004264:	00a0a021 	move	s4,a1
9d004268:	00809021 	move	s2,a0
9d00426c:	3c159d00 	lui	s5,0x9d00
9d004270:	26b548c0 	addiu	s5,s5,18624
9d004274:	24160020 	li	s6,32
9d004278:	2413ffff 	li	s3,-1
9d00427c:	2e910021 	sltiu	s1,s4,33
9d004280:	02c01021 	move	v0,s6
9d004284:	0291100b 	movn	v0,s4,s1
9d004288:	0282a023 	subu	s4,s4,v0
9d00428c:	02a28821 	addu	s1,s5,v0
9d004290:	0b4010ab 	j	9d0042ac <repl.constprop.0+0x70>
9d004294:	02a08021 	move	s0,s5
9d004298:	26100001 	addiu	s0,s0,1
9d00429c:	0f4010ba 	jal	9d0042e8 <fputc>
9d0042a0:	8204ffff 	lb	a0,-1(s0)
9d0042a4:	10530007 	beq	v0,s3,9d0042c4 <repl.constprop.0+0x88>
9d0042a8:	8fbf002c 	lw	ra,44(sp)
9d0042ac:	1611fffa 	bne	s0,s1,9d004298 <repl.constprop.0+0x5c>
9d0042b0:	02402821 	move	a1,s2
9d0042b4:	1680fff2 	bnez	s4,9d004280 <repl.constprop.0+0x44>
9d0042b8:	2e910021 	sltiu	s1,s4,33
9d0042bc:	00001021 	move	v0,zero
9d0042c0:	8fbf002c 	lw	ra,44(sp)
9d0042c4:	8fb60028 	lw	s6,40(sp)
9d0042c8:	8fb50024 	lw	s5,36(sp)
9d0042cc:	8fb40020 	lw	s4,32(sp)
9d0042d0:	8fb3001c 	lw	s3,28(sp)
9d0042d4:	8fb20018 	lw	s2,24(sp)
9d0042d8:	8fb10014 	lw	s1,20(sp)
9d0042dc:	8fb00010 	lw	s0,16(sp)
9d0042e0:	03e00008 	jr	ra
9d0042e4:	27bd0030 	addiu	sp,sp,48

Disassembly of section .text.fputc:

9d0042e8 <fputc>:
9d0042e8:	27bdffe0 	addiu	sp,sp,-32
9d0042ec:	afbf001c 	sw	ra,28(sp)
9d0042f0:	afb10018 	sw	s1,24(sp)
9d0042f4:	afb00014 	sw	s0,20(sp)
9d0042f8:	00a08021 	move	s0,a1
9d0042fc:	8ca20018 	lw	v0,24(a1)
9d004300:	00808821 	move	s1,a0
9d004304:	24050001 	li	a1,1
9d004308:	8c420010 	lw	v0,16(v0)
9d00430c:	0040f809 	jalr	v0
9d004310:	02002021 	move	a0,s0
9d004314:	1040000e 	beqz	v0,9d004350 <fputc+0x68>
9d004318:	2402ffff 	li	v0,-1
9d00431c:	8e020000 	lw	v0,0(s0)
9d004320:	2442ffff 	addiu	v0,v0,-1
9d004324:	04400011 	bltz	v0,9d00436c <fputc+0x84>
9d004328:	ae020000 	sw	v0,0(s0)
9d00432c:	96020010 	lhu	v0,16(s0)
9d004330:	30420008 	andi	v0,v0,0x8
9d004334:	1440000b 	bnez	v0,9d004364 <fputc+0x7c>
9d004338:	2402000a 	li	v0,10
9d00433c:	8e030004 	lw	v1,4(s0)
9d004340:	02201021 	move	v0,s1
9d004344:	24640001 	addiu	a0,v1,1
9d004348:	ae040004 	sw	a0,4(s0)
9d00434c:	a0710000 	sb	s1,0(v1)
9d004350:	8fbf001c 	lw	ra,28(sp)
9d004354:	8fb10018 	lw	s1,24(sp)
9d004358:	8fb00014 	lw	s0,20(sp)
9d00435c:	03e00008 	jr	ra
9d004360:	27bd0020 	addiu	sp,sp,32
9d004364:	5622fff6 	bnel	s1,v0,9d004340 <fputc+0x58>
9d004368:	8e030004 	lw	v1,4(s0)
9d00436c:	8e020018 	lw	v0,24(s0)
9d004370:	02202021 	move	a0,s1
9d004374:	8c420004 	lw	v0,4(v0)
9d004378:	0040f809 	jalr	v0
9d00437c:	02002821 	move	a1,s0
9d004380:	8fbf001c 	lw	ra,28(sp)
9d004384:	8fb10018 	lw	s1,24(sp)
9d004388:	8fb00014 	lw	s0,20(sp)
9d00438c:	03e00008 	jr	ra
9d004390:	27bd0020 	addiu	sp,sp,32

Disassembly of section .text.fpcmp:

9d004394 <__eqsf2>:
9d004394:	2408fffe 00043040 00053840 00c74825     ...$@0..@8..%H..
9d0043a4:	1120001b 00000000 3c01ff00 34210001     .. ........<..!4
9d0043b4:	00c1082b 1020001a 00000000 3c01ff00     +..... ........<
9d0043c4:	34210001 00e1082b 10200015 00000000     ..!4+..... .....
9d0043d4:	04810002 00063042 00063023              ....B0..#0..

9d0043e0 <i48>:
9d0043e0:	04a10002 	bgez	a1,9d0043ec <i49>
9d0043e4:	00073842 	srl	a3,a3,0x1
9d0043e8:	00073823 	negu	a3,a3

9d0043ec <i49>:
9d0043ec:	00c7082a 	slt	at,a2,a3
9d0043f0:	10200003 	beqz	at,9d004400 <i50>
9d0043f4:	00000000 	nop
9d0043f8:	10000007 	b	9d004418 <J999>
9d0043fc:	2402ffff 	li	v0,-1

9d004400 <i50>:
9d004400:	00e6082a 	slt	at,a3,a2
9d004404:	10200003 	beqz	at,9d004414 <Jequ>
9d004408:	00000000 	nop
9d00440c:	10000002 	b	9d004418 <J999>
9d004410:	24020001 	li	v0,1

9d004414 <Jequ>:
9d004414:	24020000 	li	v0,0

9d004418 <J999>:
9d004418:	03e00008 	jr	ra
9d00441c:	00000000 	nop
9d004420:	00000000 	nop

9d004424 <Jnan>:
9d004424:	1000fffc 	b	9d004418 <J999>
9d004428:	00081025 	or	v0,zero,t0
9d00442c:	00000000 	nop

Disassembly of section .text.strlen:

9d004430 <strlen>:
9d004430:	30830003 	andi	v1,a0,0x3
9d004434:	1460001e 	bnez	v1,9d0044b0 <strlen+0x80>
9d004438:	00801021 	move	v0,a0
9d00443c:	8c820000 	lw	v0,0(a0)
9d004440:	3c07fefe 	lui	a3,0xfefe
9d004444:	34e7feff 	ori	a3,a3,0xfeff
9d004448:	00471821 	addu	v1,v0,a3
9d00444c:	00021027 	nor	v0,zero,v0
9d004450:	3c068080 	lui	a2,0x8080
9d004454:	34c68080 	ori	a2,a2,0x8080
9d004458:	00621824 	and	v1,v1,v0
9d00445c:	00661824 	and	v1,v1,a2
9d004460:	14600013 	bnez	v1,9d0044b0 <strlen+0x80>
9d004464:	00801021 	move	v0,a0
9d004468:	24420004 	addiu	v0,v0,4
9d00446c:	8c430000 	lw	v1,0(v0)
9d004470:	00672821 	addu	a1,v1,a3
9d004474:	00031827 	nor	v1,zero,v1
9d004478:	00a31824 	and	v1,a1,v1
9d00447c:	00661824 	and	v1,v1,a2
9d004480:	5460000c 	bnezl	v1,9d0044b4 <strlen+0x84>
9d004484:	80430000 	lb	v1,0(v0)
9d004488:	24420004 	addiu	v0,v0,4
9d00448c:	8c430000 	lw	v1,0(v0)
9d004490:	00672821 	addu	a1,v1,a3
9d004494:	00031827 	nor	v1,zero,v1
9d004498:	00a31824 	and	v1,a1,v1
9d00449c:	00661824 	and	v1,v1,a2
9d0044a0:	5060fff2 	beqzl	v1,9d00446c <strlen+0x3c>
9d0044a4:	24420004 	addiu	v0,v0,4
9d0044a8:	0b40112d 	j	9d0044b4 <strlen+0x84>
9d0044ac:	80430000 	lb	v1,0(v0)
9d0044b0:	80430000 	lb	v1,0(v0)
9d0044b4:	5460fffe 	bnezl	v1,9d0044b0 <strlen+0x80>
9d0044b8:	24420001 	addiu	v0,v0,1
9d0044bc:	03e00008 	jr	ra
9d0044c0:	00441023 	subu	v0,v0,a0

Disassembly of section .text._fflush_simple:

9d0044c4 <_fflush_simple>:
9d0044c4:	27bdffe8 	addiu	sp,sp,-24
9d0044c8:	afbf0014 	sw	ra,20(sp)
9d0044cc:	afb00010 	sw	s0,16(sp)
9d0044d0:	94820010 	lhu	v0,16(a0)
9d0044d4:	30420002 	andi	v0,v0,0x2
9d0044d8:	10400013 	beqz	v0,9d004528 <_fflush_simple+0x64>
9d0044dc:	00808021 	move	s0,a0
9d0044e0:	8c850000 	lw	a1,0(a0)
9d0044e4:	04a0000c 	bltz	a1,9d004518 <_fflush_simple+0x54>
9d0044e8:	00001021 	move	v0,zero
9d0044ec:	8c82000c 	lw	v0,12(a0)
9d0044f0:	50a20006 	beql	a1,v0,9d00450c <_fflush_simple+0x48>
9d0044f4:	8e030008 	lw	v1,8(s0)
9d0044f8:	8c840008 	lw	a0,8(a0)
9d0044fc:	0f4011bb 	jal	9d0046ec <_mon_write>
9d004500:	00452823 	subu	a1,v0,a1
9d004504:	8e02000c 	lw	v0,12(s0)
9d004508:	8e030008 	lw	v1,8(s0)
9d00450c:	ae020000 	sw	v0,0(s0)
9d004510:	ae030004 	sw	v1,4(s0)
9d004514:	00001021 	move	v0,zero
9d004518:	8fbf0014 	lw	ra,20(sp)
9d00451c:	8fb00010 	lw	s0,16(sp)
9d004520:	03e00008 	jr	ra
9d004524:	27bd0018 	addiu	sp,sp,24
9d004528:	2402ffff 	li	v0,-1
9d00452c:	ac820004 	sw	v0,4(a0)
9d004530:	00001021 	move	v0,zero
9d004534:	8fbf0014 	lw	ra,20(sp)
9d004538:	8fb00010 	lw	s0,16(sp)
9d00453c:	03e00008 	jr	ra
9d004540:	27bd0018 	addiu	sp,sp,24

Disassembly of section .text._fwrite_simple:

9d004544 <_fwrite_simple>:
9d004544:	27bdffd8 	addiu	sp,sp,-40
9d004548:	afbf0024 	sw	ra,36(sp)
9d00454c:	afb10020 	sw	s1,32(sp)
9d004550:	afb0001c 	sw	s0,28(sp)
9d004554:	70c58002 	mul	s0,a2,a1
9d004558:	12000007 	beqz	s0,9d004578 <_fwrite_simple+0x34>
9d00455c:	00001021 	move	v0,zero
9d004560:	94e30010 	lhu	v1,16(a3)
9d004564:	30630001 	andi	v1,v1,0x1
9d004568:	10600008 	beqz	v1,9d00458c <_fwrite_simple+0x48>
9d00456c:	3c03a000 	lui	v1,0xa000
9d004570:	24040009 	li	a0,9
9d004574:	ac640008 	sw	a0,8(v1)
9d004578:	8fbf0024 	lw	ra,36(sp)
9d00457c:	8fb10020 	lw	s1,32(sp)
9d004580:	8fb0001c 	lw	s0,28(sp)
9d004584:	03e00008 	jr	ra
9d004588:	27bd0028 	addiu	sp,sp,40
9d00458c:	00808821 	move	s1,a0
9d004590:	00e02021 	move	a0,a3
9d004594:	0f401131 	jal	9d0044c4 <_fflush_simple>
9d004598:	afa60010 	sw	a2,16(sp)
9d00459c:	02202021 	move	a0,s1
9d0045a0:	0f4011bb 	jal	9d0046ec <_mon_write>
9d0045a4:	02002821 	move	a1,s0
9d0045a8:	8fa60010 	lw	a2,16(sp)
9d0045ac:	00c01021 	move	v0,a2
9d0045b0:	8fbf0024 	lw	ra,36(sp)
9d0045b4:	8fb10020 	lw	s1,32(sp)
9d0045b8:	8fb0001c 	lw	s0,28(sp)
9d0045bc:	03e00008 	jr	ra
9d0045c0:	27bd0028 	addiu	sp,sp,40

Disassembly of section .text._sprintf_cdnopuxX:

9d0045c4 <_sprintf_cdnopuxX>:
9d0045c4:	27bdffc8 	addiu	sp,sp,-56
9d0045c8:	afbf0034 	sw	ra,52(sp)
9d0045cc:	27a20040 	addiu	v0,sp,64
9d0045d0:	00801821 	move	v1,a0
9d0045d4:	afa60040 	sw	a2,64(sp)
9d0045d8:	27a40010 	addiu	a0,sp,16
9d0045dc:	00403021 	move	a2,v0
9d0045e0:	afa70044 	sw	a3,68(sp)
9d0045e4:	2407ffff 	li	a3,-1
9d0045e8:	a7a70022 	sh	a3,34(sp)
9d0045ec:	24070082 	li	a3,130
9d0045f0:	a7a70020 	sh	a3,32(sp)
9d0045f4:	3c077fff 	lui	a3,0x7fff
9d0045f8:	34e7fffe 	ori	a3,a3,0xfffe
9d0045fc:	afa70010 	sw	a3,16(sp)
9d004600:	afa30018 	sw	v1,24(sp)
9d004604:	afa30014 	sw	v1,20(sp)
9d004608:	3c039d00 	lui	v1,0x9d00
9d00460c:	246349b4 	addiu	v1,v1,18868
9d004610:	afa30028 	sw	v1,40(sp)
9d004614:	0f400780 	jal	9d001e00 <_do_print_cdnopuxX>
9d004618:	afa2002c 	sw	v0,44(sp)
9d00461c:	8fa30014 	lw	v1,20(sp)
9d004620:	a0600000 	sb	zero,0(v1)
9d004624:	8fbf0034 	lw	ra,52(sp)
9d004628:	03e00008 	jr	ra
9d00462c:	27bd0038 	addiu	sp,sp,56

Disassembly of section .text.sqrtf:

9d004630 <sqrtf>:
9d004630:	27bdffe8 	addiu	sp,sp,-24
9d004634:	afbf0014 	sw	ra,20(sp)
9d004638:	afb00010 	sw	s0,16(sp)
9d00463c:	3c02a000 	lui	v0,0xa000
9d004640:	8c42018c 	lw	v0,396(v0)
9d004644:	30420001 	andi	v0,v0,0x1
9d004648:	10400005 	beqz	v0,9d004660 <sqrtf+0x30>
9d00464c:	00808021 	move	s0,a0
9d004650:	0f4010e5 	jal	9d004394 <__eqsf2>
9d004654:	00002821 	move	a1,zero
9d004658:	04400007 	bltz	v0,9d004678 <sqrtf+0x48>
9d00465c:	24030021 	li	v1,33
9d004660:	0f400cff 	jal	9d0033fc <__mchp_sqrtf>
9d004664:	02002021 	move	a0,s0
9d004668:	8fbf0014 	lw	ra,20(sp)
9d00466c:	8fb00010 	lw	s0,16(sp)
9d004670:	03e00008 	jr	ra
9d004674:	27bd0018 	addiu	sp,sp,24
9d004678:	3c02a000 	lui	v0,0xa000
9d00467c:	ac430008 	sw	v1,8(v0)
9d004680:	0f400cff 	jal	9d0033fc <__mchp_sqrtf>
9d004684:	02002021 	move	a0,s0
9d004688:	8fbf0014 	lw	ra,20(sp)
9d00468c:	8fb00010 	lw	s0,16(sp)
9d004690:	03e00008 	jr	ra
9d004694:	27bd0018 	addiu	sp,sp,24

Disassembly of section .text.main_entry:

9d004698 <_main_entry>:
9d004698:	3c040000 	lui	a0,0x0
9d00469c:	27bdffe8 	addiu	sp,sp,-24
9d0046a0:	24840000 	addiu	a0,a0,0
9d0046a4:	10800003 	beqz	a0,9d0046b4 <_main_entry+0x1c>
9d0046a8:	afbf0014 	sw	ra,20(sp)
9d0046ac:	0080f809 	jalr	a0
9d0046b0:	00000000 	nop
9d0046b4:	30840000 	andi	a0,a0,0x0
9d0046b8:	30a50000 	andi	a1,a1,0x0
9d0046bc:	3c089d00 	lui	t0,0x9d00
9d0046c0:	250835a8 	addiu	t0,t0,13736
9d0046c4:	0100f809 	jalr	t0
9d0046c8:	00000000 	nop

9d0046cc <__crt0_exit>:
9d0046cc:	3c020000 24420000 10400003 00000000     ...<..B$..@.....
9d0046dc:	0040f809 00000000 1000fff9 00000000     ..@.............

Disassembly of section .text._mon_write:

9d0046ec <_mon_write>:
9d0046ec:	27bdffe0 	addiu	sp,sp,-32
9d0046f0:	afbf001c 	sw	ra,28(sp)
9d0046f4:	afb10018 	sw	s1,24(sp)
9d0046f8:	afb00014 	sw	s0,20(sp)
9d0046fc:	10800009 	beqz	a0,9d004724 <_mon_write+0x38>
9d004700:	00808021 	move	s0,a0
9d004704:	10a00007 	beqz	a1,9d004724 <_mon_write+0x38>
9d004708:	00a08821 	move	s1,a1
9d00470c:	82040000 	lb	a0,0(s0)
9d004710:	2631ffff 	addiu	s1,s1,-1
9d004714:	0f40102f 	jal	9d0040bc <_mon_putc>
9d004718:	26100001 	addiu	s0,s0,1
9d00471c:	5620fffc 	bnezl	s1,9d004710 <_mon_write+0x24>
9d004720:	82040000 	lb	a0,0(s0)
9d004724:	8fbf001c 	lw	ra,28(sp)
9d004728:	8fb10018 	lw	s1,24(sp)
9d00472c:	8fb00014 	lw	s0,20(sp)
9d004730:	03e00008 	jr	ra
9d004734:	27bd0020 	addiu	sp,sp,32

Disassembly of section .text._bootstrap_exception_handler:

9d004738 <_bootstrap_exception_handler>:
9d004738:	3c020000 	lui	v0,0x0
9d00473c:	24420000 	addiu	v0,v0,0
9d004740:	10400005 	beqz	v0,9d004758 <_bootstrap_exception_handler+0x20>
9d004744:	3c020000 	lui	v0,0x0
9d004748:	24420000 	addiu	v0,v0,0
9d00474c:	10400003 	beqz	v0,9d00475c <_bootstrap_exception_handler+0x24>
9d004750:	3c029d00 	lui	v0,0x9d00
9d004754:	7000003f 	sdbbp
9d004758:	3c029d00 	lui	v0,0x9d00
9d00475c:	24424810 	addiu	v0,v0,18448
9d004760:	10400005 	beqz	v0,9d004778 <_bootstrap_exception_handler+0x40>
9d004764:	00000000 	nop
9d004768:	27bdffe8 	addiu	sp,sp,-24
9d00476c:	afbf0014 	sw	ra,20(sp)
9d004770:	0040f809 	jalr	v0
9d004774:	00000000 	nop
9d004778:	0b4011de 	j	9d004778 <_bootstrap_exception_handler+0x40>
9d00477c:	00000000 	nop

Disassembly of section .text._general_exception_handler:

9d004780 <_general_exception_handler>:
9d004780:	3c020000 	lui	v0,0x0
9d004784:	24420000 	addiu	v0,v0,0
9d004788:	10400005 	beqz	v0,9d0047a0 <_general_exception_handler+0x20>
9d00478c:	3c020000 	lui	v0,0x0
9d004790:	24420000 	addiu	v0,v0,0
9d004794:	10400003 	beqz	v0,9d0047a4 <_general_exception_handler+0x24>
9d004798:	3c029d00 	lui	v0,0x9d00
9d00479c:	7000003f 	sdbbp
9d0047a0:	3c029d00 	lui	v0,0x9d00
9d0047a4:	24424810 	addiu	v0,v0,18448
9d0047a8:	10400005 	beqz	v0,9d0047c0 <_general_exception_handler+0x40>
9d0047ac:	00000000 	nop
9d0047b0:	27bdffe8 	addiu	sp,sp,-24
9d0047b4:	afbf0014 	sw	ra,20(sp)
9d0047b8:	0040f809 	jalr	v0
9d0047bc:	00000000 	nop
9d0047c0:	0b4011f0 	j	9d0047c0 <_general_exception_handler+0x40>
9d0047c4:	00000000 	nop

Disassembly of section .vector_default:

9d0047c8 <_DefaultInterrupt>:
9d0047c8:	3c020000 	lui	v0,0x0
9d0047cc:	24420000 	addiu	v0,v0,0
9d0047d0:	10400007 	beqz	v0,9d0047f0 <_DefaultInterrupt+0x28>
9d0047d4:	3c020000 	lui	v0,0x0
9d0047d8:	24420000 	addiu	v0,v0,0
9d0047dc:	50400005 	beqzl	v0,9d0047f4 <_DefaultInterrupt+0x2c>
9d0047e0:	3c029d00 	lui	v0,0x9d00
9d0047e4:	7000003f 	sdbbp
9d0047e8:	03e00008 	jr	ra
9d0047ec:	00000000 	nop
9d0047f0:	3c029d00 	lui	v0,0x9d00
9d0047f4:	24424810 	addiu	v0,v0,18448
9d0047f8:	10400003 	beqz	v0,9d004808 <_DefaultInterrupt+0x40>
9d0047fc:	00000000 	nop
9d004800:	0040f809 	jalr	v0
9d004804:	00000000 	nop
9d004808:	03e00008 	jr	ra
9d00480c:	00000000 	nop

Disassembly of section .text:

9d004810 <__pic32_software_reset>:
9d004810:	41606000 	di
9d004814:	000000c0 	ehb
9d004818:	3c03aa99 	lui	v1,0xaa99
9d00481c:	3c02bf81 	lui	v0,0xbf81
9d004820:	24636655 	addiu	v1,v1,26197
9d004824:	ac40f230 	sw	zero,-3536(v0)
9d004828:	ac43f230 	sw	v1,-3536(v0)
9d00482c:	3c035566 	lui	v1,0x5566
9d004830:	346399aa 	ori	v1,v1,0x99aa
9d004834:	ac43f230 	sw	v1,-3536(v0)
9d004838:	3c02bf81 	lui	v0,0xbf81
9d00483c:	24030001 	li	v1,1
9d004840:	ac43f618 	sw	v1,-2536(v0)
9d004844:	3c02bf81 	lui	v0,0xbf81
9d004848:	8c42f610 	lw	v0,-2544(v0)
9d00484c:	0b401206 	j	9d004818 <__pic32_software_reset+0x8>
9d004850:	00000000 	nop

Disassembly of section .text._filbuf_simple:

9d004854 <_filbuf_simple>:
9d004854:	8c820004 	lw	v0,4(a0)
9d004858:	2403ffff 	li	v1,-1
9d00485c:	10430003 	beq	v0,v1,9d00486c <_filbuf_simple+0x18>
9d004860:	ac800000 	sw	zero,0(a0)
9d004864:	03e00008 	jr	ra
9d004868:	ac830004 	sw	v1,4(a0)
9d00486c:	27bdffe8 	addiu	sp,sp,-24
9d004870:	afbf0014 	sw	ra,20(sp)
9d004874:	0f400fbf 	jal	9d003efc <_mon_getc>
9d004878:	24040001 	li	a0,1
9d00487c:	8fbf0014 	lw	ra,20(sp)
9d004880:	03e00008 	jr	ra
9d004884:	27bd0018 	addiu	sp,sp,24

Disassembly of section .text._fsync_simple:

9d004888 <_fsync_simple>:
9d004888:	94830010 	lhu	v1,16(a0)
9d00488c:	00a32824 	and	a1,a1,v1
9d004890:	10a00007 	beqz	a1,9d0048b0 <_fsync_simple+0x28>
9d004894:	24020001 	li	v0,1
9d004898:	34630040 	ori	v1,v1,0x40
9d00489c:	a4830010 	sh	v1,16(a0)
9d0048a0:	24030009 	li	v1,9
9d0048a4:	3c02a000 	lui	v0,0xa000
9d0048a8:	ac430008 	sw	v1,8(v0)
9d0048ac:	00001021 	move	v0,zero
9d0048b0:	03e00008 	jr	ra
9d0048b4:	00000000 	nop

Disassembly of section .rodata:

9d0048b8 <spaceData-0x8>:
9d0048b8:	6c756e28 	0x6c756e28
9d0048bc:	0000296c 	0x296c

9d0048c0 <spaceData>:
9d0048c0:	20202020 20202020 20202020 20202020                     
9d0048d0:	20202020 20202020 20202020 20202020                     

Disassembly of section .text.putchar:

9d0048e0 <putchar>:
9d0048e0:	27bdffe8 	addiu	sp,sp,-24
9d0048e4:	afbf0014 	sw	ra,20(sp)
9d0048e8:	3c02a000 	lui	v0,0xa000
9d0048ec:	8c420000 	lw	v0,0(v0)
9d0048f0:	0f4010ba 	jal	9d0042e8 <fputc>
9d0048f4:	8c450004 	lw	a1,4(v0)
9d0048f8:	8fbf0014 	lw	ra,20(sp)
9d0048fc:	03e00008 	jr	ra
9d004900:	27bd0018 	addiu	sp,sp,24

Disassembly of section .rodata:

9d004908 <.rodata>:
9d004908:	202c6425 	addi	t4,at,25637
9d00490c:	202c6425 	addi	t4,at,25637
9d004910:	202c6425 	addi	t4,at,25637
9d004914:	0d206425 	jal	94819094 <_bmxdkpba_address+0x947f9094>
9d004918:	0000000a 	movz	zero,zero,zero
9d00491c:	40047ae1 	0x40047ae1
9d004920:	20000000 	addi	zero,zero,0
9d004924:	40008f5c 	0x40008f5c

Disassembly of section .text._vfprintf_cdnopuxX:

9d004928 <_vfprintf_cdnopuxX>:
9d004928:	27bdffe8 	addiu	sp,sp,-24
9d00492c:	afbf0014 	sw	ra,20(sp)
9d004930:	0f400780 	jal	9d001e00 <_do_print_cdnopuxX>
9d004934:	00000000 	nop
9d004938:	8fbf0014 	lw	ra,20(sp)
9d00493c:	03e00008 	jr	ra
9d004940:	27bd0018 	addiu	sp,sp,24

Disassembly of section .text.putc:

9d004944 <putc>:
9d004944:	27bdffe8 	addiu	sp,sp,-24
9d004948:	afbf0014 	sw	ra,20(sp)
9d00494c:	0f4010ba 	jal	9d0042e8 <fputc>
9d004950:	00000000 	nop
9d004954:	8fbf0014 	lw	ra,20(sp)
9d004958:	03e00008 	jr	ra
9d00495c:	27bd0018 	addiu	sp,sp,24

Disassembly of section .text:

9d004960 <_nmi_handler>:
9d004960:	401a6000 	mfc0	k0,c0_status
9d004964:	3c1bffbf 	lui	k1,0xffbf
9d004968:	377bffff 	ori	k1,k1,0xffff
9d00496c:	035bd024 	and	k0,k0,k1
9d004970:	409a6000 	mtc0	k0,c0_status
9d004974:	42000018 	eret

Disassembly of section .text._io_exit:

9d004978 <_io_exit>:
9d004978:	3c02a000 	lui	v0,0xa000
9d00497c:	8c420000 	lw	v0,0(v0)
9d004980:	24030001 	li	v1,1
9d004984:	03e00008 	jr	ra
9d004988:	ac430038 	sw	v1,56(v0)

Disassembly of section .rodata:

9d00498c <_io_funcs>:
9d00498c:	9d004854 9d003e00 9d0044c4 9d004544     TH...>...D..DE..
9d00499c:	9d004888                                .H..

Disassembly of section .text._io_exit:

9d0049a0 <.text._io_exit>:
9d0049a0:	3c02a000 	lui	v0,0xa000
9d0049a4:	8c420000 	lw	v0,0(v0)
9d0049a8:	24030001 	li	v1,1
9d0049ac:	03e00008 	jr	ra
9d0049b0:	ac430038 	sw	v1,56(v0)

Disassembly of section .rodata:

9d0049b4 <_io_strfuncs>:
9d0049b4:	9d0049d8 9d0049e0 9d0049e8 9d0049f0     .I...I...I...I..
9d0049c4:	9d0049f8                                .I..

Disassembly of section .text._on_reset:

9d0049c8 <_on_reset>:
9d0049c8:	03e00008 	jr	ra
9d0049cc:	00000000 	nop

Disassembly of section .text._on_bootstrap:

9d0049d0 <_on_bootstrap>:
9d0049d0:	03e00008 	jr	ra
9d0049d4:	00000000 	nop

Disassembly of section .text._filbuf_string:

9d0049d8 <_filbuf_string>:
9d0049d8:	03e00008 	jr	ra
9d0049dc:	2402ffff 	li	v0,-1

Disassembly of section .text._flsbuf_string:

9d0049e0 <_flsbuf_string>:
9d0049e0:	03e00008 	jr	ra
9d0049e4:	00801021 	move	v0,a0

Disassembly of section .text._fflush_string:

9d0049e8 <_fflush_string>:
9d0049e8:	03e00008 	jr	ra
9d0049ec:	00001021 	move	v0,zero

Disassembly of section .text._fwrite_string:

9d0049f0 <_fwrite_string>:
9d0049f0:	03e00008 	jr	ra
9d0049f4:	00001021 	move	v0,zero

Disassembly of section .text._fsync_string:

9d0049f8 <_fsync_string>:
9d0049f8:	03e00008 	jr	ra
9d0049fc:	24020001 	li	v0,1
