
out.elf:     file format elf32-tradlittlemips


Disassembly of section .config_BFC02FF0:

bfc02ff0 <__config_BFC02FF0>:
bfc02ff0:	ff ff fe fa                                         ....

Disassembly of section .config_BFC02FF4:

bfc02ff4 <__config_BFC02FF4>:
bfc02ff4:	d9 79 f8 ff                                         .y..

Disassembly of section .config_BFC02FF8:

bfc02ff8 <__config_BFC02FF8>:
bfc02ff8:	db ce 6c ff                                         ..l.

Disassembly of section .config_BFC02FFC:

bfc02ffc <__config_BFC02FFC>:
bfc02ffc:	ff ff ff 7e                                         ...~

Disassembly of section .reset:

bd001970 <_reset>:
bd001970:	0f40065e 	jal	bd001978 <_startup>
bd001974:	00000000 	nop

bd001978 <_startup>:
bd001978:	401a6000 	mfc0	k0,c0_status
bd00197c:	7f5a04c0 	ext	k0,k0,0x13,0x1
bd001980:	13400005 	beqz	k0,bd001998 <_no_nmi>
bd001984:	00000000 	nop
bd001988:	3c1a9d01 	lui	k0,0x9d01
bd00198c:	275ac25c 	addiu	k0,k0,-15780
bd001990:	03400008 	jr	k0
bd001994:	00000000 	nop

bd001998 <_no_nmi>:
bd001998:	3c1da002 	lui	sp,0xa002
bd00199c:	27bdfff8 	addiu	sp,sp,-8
bd0019a0:	3c1ca000 	lui	gp,0xa000
bd0019a4:	279c7ff0 	addiu	gp,gp,32752
bd0019a8:	40096002 	mfc0	t1,c0_srsctl
bd0019ac:	01205820 	add	t3,t1,zero
bd0019b0:	7d2a1e80 	ext	t2,t1,0x1a,0x4
bd0019b4:	7d494984 	ins	t1,t2,0x6,0x4
bd0019b8:	40896002 	mtc0	t1,c0_srsctl
bd0019bc:	000000c0 	ehb
bd0019c0:	41dce000 	wrpgpr	gp,gp
bd0019c4:	408b6002 	mtc0	t3,c0_srsctl
bd0019c8:	000000c0 	ehb
bd0019cc:	3c089d01 	lui	t0,0x9d01
bd0019d0:	2508c304 	addiu	t0,t0,-15612
bd0019d4:	0100f809 	jalr	t0
bd0019d8:	00000000 	nop
bd0019dc:	3c08a000 	lui	t0,0xa000
bd0019e0:	2508001c 	addiu	t0,t0,28
bd0019e4:	3c09a000 	lui	t1,0xa000
bd0019e8:	25290054 	addiu	t1,t1,84
bd0019ec:	10000006 	b	bd001a08 <_bss_check>
bd0019f0:	00000000 	nop

bd0019f4 <_bss_init>:
bd0019f4:	ad000000 	sw	zero,0(t0)
bd0019f8:	ad000004 	sw	zero,4(t0)
bd0019fc:	ad000008 	sw	zero,8(t0)
bd001a00:	ad00000c 	sw	zero,12(t0)
bd001a04:	25080010 	addiu	t0,t0,16

bd001a08 <_bss_check>:
bd001a08:	0109082b 	sltu	at,t0,t1
bd001a0c:	1420fff9 	bnez	at,bd0019f4 <_bss_init>
bd001a10:	00000000 	nop

bd001a14 <_dinit_init>:
bd001a14:	3c089d00 	lui	t0,0x9d00
bd001a18:	25085110 	addiu	t0,t0,20752
bd001a1c:	8d090000 	lw	t1,0(t0)
bd001a20:	11200018 	beqz	t1,bd001a84 <_dinit_end+0x18>
bd001a24:	25080004 	addiu	t0,t0,4
bd001a28:	8d0a0000 	lw	t2,0(t0)
bd001a2c:	25080004 	addiu	t0,t0,4
bd001a30:	8d0b0000 	lw	t3,0(t0)
bd001a34:	11600009 	beqz	t3,bd001a5c <_dinit_clear>
bd001a38:	25080004 	addiu	t0,t0,4

bd001a3c <_dinit_copy>:
bd001a3c:	910c0000 	lbu	t4,0(t0)
bd001a40:	254affff 	addiu	t2,t2,-1
bd001a44:	25080001 	addiu	t0,t0,1
bd001a48:	a12c0000 	sb	t4,0(t1)
bd001a4c:	1540fffb 	bnez	t2,bd001a3c <_dinit_copy>
bd001a50:	25290001 	addiu	t1,t1,1
bd001a54:	10000005 	b	bd001a6c <_dinit_end>
bd001a58:	00000000 	nop

bd001a5c <_dinit_clear>:
bd001a5c:	a1200000 	sb	zero,0(t1)
bd001a60:	254affff 	addiu	t2,t2,-1
bd001a64:	1540fffd 	bnez	t2,bd001a5c <_dinit_clear>
bd001a68:	25290001 	addiu	t1,t1,1

bd001a6c <_dinit_end>:
bd001a6c:	25080003 	addiu	t0,t0,3
bd001a70:	240afffc 	li	t2,-4
bd001a74:	01484024 	and	t0,t2,t0
bd001a78:	8d090000 	lw	t1,0(t0)
bd001a7c:	1520ffe7 	bnez	t1,bd001a1c <_dinit_init+0x8>
bd001a80:	00000000 	nop
bd001a84:	3c090000 	lui	t1,0x0
bd001a88:	25290000 	addiu	t1,t1,0
bd001a8c:	11200010 	beqz	t1,bd001ad0 <_ramfunc_done>
bd001a90:	00000000 	nop
bd001a94:	3c090002 	lui	t1,0x2
bd001a98:	25290000 	addiu	t1,t1,0
bd001a9c:	3c0abf88 	lui	t2,0xbf88
bd001aa0:	254a2010 	addiu	t2,t2,8208
bd001aa4:	ad490000 	sw	t1,0(t2)
bd001aa8:	3c090002 	lui	t1,0x2
bd001aac:	25290000 	addiu	t1,t1,0
bd001ab0:	3c0abf88 	lui	t2,0xbf88
bd001ab4:	254a2020 	addiu	t2,t2,8224
bd001ab8:	ad490000 	sw	t1,0(t2)
bd001abc:	3c090002 	lui	t1,0x2
bd001ac0:	25290000 	addiu	t1,t1,0
bd001ac4:	3c0abf88 	lui	t2,0xbf88
bd001ac8:	254a2030 	addiu	t2,t2,8240
bd001acc:	ad490000 	sw	t1,0(t2)

bd001ad0 <_ramfunc_done>:
bd001ad0:	40804800 	mtc0	zero,c0_count
bd001ad4:	240affff 	li	t2,-1
bd001ad8:	408a5800 	mtc0	t2,c0_compare
bd001adc:	3c080040 	lui	t0,0x40
bd001ae0:	400a6000 	mfc0	t2,c0_status
bd001ae4:	010a5025 	or	t2,t0,t2
bd001ae8:	408a6000 	mtc0	t2,c0_status
bd001aec:	3c099d00 	lui	t1,0x9d00
bd001af0:	25290000 	addiu	t1,t1,0
bd001af4:	000000c0 	ehb
bd001af8:	40897801 	mtc0	t1,c0_ebase
bd001afc:	3c090000 	lui	t1,0x0
bd001b00:	25290001 	addiu	t1,t1,1
bd001b04:	240a0000 	li	t2,0
bd001b08:	7d2a4944 	ins	t2,t1,0x5,0x5
bd001b0c:	408a6001 	mtc0	t2,c0_intctl
bd001b10:	3c090080 	lui	t1,0x80
bd001b14:	40896800 	mtc0	t1,c0_cause
bd001b18:	40088000 	mfc0	t0,c0_config
bd001b1c:	7d090580 	ext	t1,t0,0x16,0x1
bd001b20:	00094c40 	sll	t1,t1,0x11
bd001b24:	40086000 	mfc0	t0,c0_status
bd001b28:	3c010058 	lui	at,0x58
bd001b2c:	01014024 	and	t0,t0,at
bd001b30:	01284025 	or	t0,t1,t0
bd001b34:	40886000 	mtc0	t0,c0_status
bd001b38:	000000c0 	ehb
bd001b3c:	3c089d01 	lui	t0,0x9d01
bd001b40:	2508c30c 	addiu	t0,t0,-15604
bd001b44:	0100f809 	jalr	t0
bd001b48:	00000000 	nop
bd001b4c:	40086000 	mfc0	t0,c0_status
bd001b50:	3c01ffbf 	lui	at,0xffbf
bd001b54:	3421ffff 	ori	at,at,0xffff
bd001b58:	01014024 	and	t0,t0,at
bd001b5c:	40886000 	mtc0	t0,c0_status
bd001b60:	30840000 	andi	a0,a0,0x0
bd001b64:	30a50000 	andi	a1,a1,0x0
bd001b68:	3c089d01 	lui	t0,0x9d01
bd001b6c:	2508bbac 	addiu	t0,t0,-17492
bd001b70:	01000008 	jr	t0
bd001b74:	00000000 	nop

Disassembly of section .bev_excpt:

bd001cf0 <_bev_exception>:
bd001cf0:	3c1a9d01 	lui	k0,0x9d01
bd001cf4:	275abd8c 	addiu	k0,k0,-17012
bd001cf8:	03400008 	jr	k0
bd001cfc:	00000000 	nop

Disassembly of section .app_excpt:

9d000180 <_gen_exception>:
9d000180:	3c1a9d01 	lui	k0,0x9d01
9d000184:	275aab48 	addiu	k0,k0,-21688
9d000188:	03400008 	jr	k0
9d00018c:	00000000 	nop

Disassembly of section .vector_0:

9d000200 <__vector_dispatch_0>:
9d000200:	0b402f87 	j	9d00be1c <.LFE0>
9d000204:	00000000 	nop

Disassembly of section .vector_1:

9d000220 <__vector_dispatch_1>:
9d000220:	0b402f87 	j	9d00be1c <.LFE0>
9d000224:	00000000 	nop

Disassembly of section .vector_2:

9d000240 <__vector_dispatch_2>:
9d000240:	0b402f87 	j	9d00be1c <.LFE0>
9d000244:	00000000 	nop

Disassembly of section .vector_3:

9d000260 <__vector_dispatch_3>:
9d000260:	0b402f87 	j	9d00be1c <.LFE0>
9d000264:	00000000 	nop

Disassembly of section .vector_4:

9d000280 <__vector_dispatch_4>:
9d000280:	0b402f87 	j	9d00be1c <.LFE0>
9d000284:	00000000 	nop

Disassembly of section .vector_5:

9d0002a0 <__vector_dispatch_5>:
9d0002a0:	0b402f87 	j	9d00be1c <.LFE0>
9d0002a4:	00000000 	nop

Disassembly of section .vector_6:

9d0002c0 <__vector_dispatch_6>:
9d0002c0:	0b402f87 	j	9d00be1c <.LFE0>
9d0002c4:	00000000 	nop

Disassembly of section .vector_7:

9d0002e0 <__vector_dispatch_7>:
9d0002e0:	0b402f87 	j	9d00be1c <.LFE0>
9d0002e4:	00000000 	nop

Disassembly of section .vector_8:

9d000300 <__vector_dispatch_8>:
9d000300:	0b400780 	j	9d001e00 <CurrentController>
9d000304:	00000000 	nop

Disassembly of section .vector_9:

9d000320 <__vector_dispatch_9>:
9d000320:	0b402f87 	j	9d00be1c <.LFE0>
9d000324:	00000000 	nop

Disassembly of section .vector_10:

9d000340 <__vector_dispatch_10>:
9d000340:	0b402f87 	j	9d00be1c <.LFE0>
9d000344:	00000000 	nop

Disassembly of section .vector_11:

9d000360 <__vector_dispatch_11>:
9d000360:	0b402f87 	j	9d00be1c <.LFE0>
9d000364:	00000000 	nop

Disassembly of section .vector_12:

9d000380 <__vector_dispatch_12>:
9d000380:	0b402f87 	j	9d00be1c <.LFE0>
9d000384:	00000000 	nop

Disassembly of section .vector_13:

9d0003a0 <__vector_dispatch_13>:
9d0003a0:	0b402f87 	j	9d00be1c <.LFE0>
9d0003a4:	00000000 	nop

Disassembly of section .vector_14:

9d0003c0 <__vector_dispatch_14>:
9d0003c0:	0b402f87 	j	9d00be1c <.LFE0>
9d0003c4:	00000000 	nop

Disassembly of section .vector_15:

9d0003e0 <__vector_dispatch_15>:
9d0003e0:	0b402f87 	j	9d00be1c <.LFE0>
9d0003e4:	00000000 	nop

Disassembly of section .vector_16:

9d000400 <__vector_dispatch_16>:
9d000400:	0b40098c 	j	9d002630 <PositionController>
9d000404:	00000000 	nop

Disassembly of section .vector_17:

9d000420 <__vector_dispatch_17>:
9d000420:	0b402f87 	j	9d00be1c <.LFE0>
9d000424:	00000000 	nop

Disassembly of section .vector_18:

9d000440 <__vector_dispatch_18>:
9d000440:	0b402f87 	j	9d00be1c <.LFE0>
9d000444:	00000000 	nop

Disassembly of section .vector_19:

9d000460 <__vector_dispatch_19>:
9d000460:	0b402f87 	j	9d00be1c <.LFE0>
9d000464:	00000000 	nop

Disassembly of section .vector_20:

9d000480 <__vector_dispatch_20>:
9d000480:	0b402f87 	j	9d00be1c <.LFE0>
9d000484:	00000000 	nop

Disassembly of section .vector_21:

9d0004a0 <__vector_dispatch_21>:
9d0004a0:	0b402f87 	j	9d00be1c <.LFE0>
9d0004a4:	00000000 	nop

Disassembly of section .vector_22:

9d0004c0 <__vector_dispatch_22>:
9d0004c0:	0b402f87 	j	9d00be1c <.LFE0>
9d0004c4:	00000000 	nop

Disassembly of section .vector_23:

9d0004e0 <__vector_dispatch_23>:
9d0004e0:	0b402f87 	j	9d00be1c <.LFE0>
9d0004e4:	00000000 	nop

Disassembly of section .vector_24:

9d000500 <__vector_dispatch_24>:
9d000500:	0b402f87 	j	9d00be1c <.LFE0>
9d000504:	00000000 	nop

Disassembly of section .vector_25:

9d000520 <__vector_dispatch_25>:
9d000520:	0b402f87 	j	9d00be1c <.LFE0>
9d000524:	00000000 	nop

Disassembly of section .vector_26:

9d000540 <__vector_dispatch_26>:
9d000540:	0b402f87 	j	9d00be1c <.LFE0>
9d000544:	00000000 	nop

Disassembly of section .vector_27:

9d000560 <__vector_dispatch_27>:
9d000560:	0b402f87 	j	9d00be1c <.LFE0>
9d000564:	00000000 	nop

Disassembly of section .vector_28:

9d000580 <__vector_dispatch_28>:
9d000580:	0b402f87 	j	9d00be1c <.LFE0>
9d000584:	00000000 	nop

Disassembly of section .vector_29:

9d0005a0 <__vector_dispatch_29>:
9d0005a0:	0b402f87 	j	9d00be1c <.LFE0>
9d0005a4:	00000000 	nop

Disassembly of section .vector_30:

9d0005c0 <__vector_dispatch_30>:
9d0005c0:	0b402f87 	j	9d00be1c <.LFE0>
9d0005c4:	00000000 	nop

Disassembly of section .vector_31:

9d0005e0 <__vector_dispatch_31>:
9d0005e0:	0b402f87 	j	9d00be1c <.LFE0>
9d0005e4:	00000000 	nop

Disassembly of section .vector_32:

9d000600 <__vector_dispatch_32>:
9d000600:	0b402f87 	j	9d00be1c <.LFE0>
9d000604:	00000000 	nop

Disassembly of section .vector_33:

9d000620 <__vector_dispatch_33>:
9d000620:	0b402f87 	j	9d00be1c <.LFE0>
9d000624:	00000000 	nop

Disassembly of section .vector_34:

9d000640 <__vector_dispatch_34>:
9d000640:	0b402f87 	j	9d00be1c <.LFE0>
9d000644:	00000000 	nop

Disassembly of section .vector_35:

9d000660 <__vector_dispatch_35>:
9d000660:	0b402f87 	j	9d00be1c <.LFE0>
9d000664:	00000000 	nop

Disassembly of section .vector_36:

9d000680 <__vector_dispatch_36>:
9d000680:	0b402f87 	j	9d00be1c <.LFE0>
9d000684:	00000000 	nop

Disassembly of section .vector_37:

9d0006a0 <__vector_dispatch_37>:
9d0006a0:	0b402f87 	j	9d00be1c <.LFE0>
9d0006a4:	00000000 	nop

Disassembly of section .vector_38:

9d0006c0 <__vector_dispatch_38>:
9d0006c0:	0b402f87 	j	9d00be1c <.LFE0>
9d0006c4:	00000000 	nop

Disassembly of section .vector_39:

9d0006e0 <__vector_dispatch_39>:
9d0006e0:	0b402f87 	j	9d00be1c <.LFE0>
9d0006e4:	00000000 	nop

Disassembly of section .vector_40:

9d000700 <__vector_dispatch_40>:
9d000700:	0b402f87 	j	9d00be1c <.LFE0>
9d000704:	00000000 	nop

Disassembly of section .vector_41:

9d000720 <__vector_dispatch_41>:
9d000720:	0b402f87 	j	9d00be1c <.LFE0>
9d000724:	00000000 	nop

Disassembly of section .vector_42:

9d000740 <__vector_dispatch_42>:
9d000740:	0b402f87 	j	9d00be1c <.LFE0>
9d000744:	00000000 	nop

Disassembly of section .vector_43:

9d000760 <__vector_dispatch_43>:
9d000760:	0b402f87 	j	9d00be1c <.LFE0>
9d000764:	00000000 	nop

Disassembly of section .vector_44:

9d000780 <__vector_dispatch_44>:
9d000780:	0b402f87 	j	9d00be1c <.LFE0>
9d000784:	00000000 	nop

Disassembly of section .vector_45:

9d0007a0 <__vector_dispatch_45>:
9d0007a0:	0b402f87 	j	9d00be1c <.LFE0>
9d0007a4:	00000000 	nop

Disassembly of section .vector_46:

9d0007c0 <__vector_dispatch_46>:
9d0007c0:	0b402f87 	j	9d00be1c <.LFE0>
9d0007c4:	00000000 	nop

Disassembly of section .vector_47:

9d0007e0 <__vector_dispatch_47>:
9d0007e0:	0b402f87 	j	9d00be1c <.LFE0>
9d0007e4:	00000000 	nop

Disassembly of section .vector_48:

9d000800 <__vector_dispatch_48>:
9d000800:	0b402f87 	j	9d00be1c <.LFE0>
9d000804:	00000000 	nop

Disassembly of section .vector_49:

9d000820 <__vector_dispatch_49>:
9d000820:	0b402f87 	j	9d00be1c <.LFE0>
9d000824:	00000000 	nop

Disassembly of section .vector_50:

9d000840 <__vector_dispatch_50>:
9d000840:	0b402f87 	j	9d00be1c <.LFE0>
9d000844:	00000000 	nop

Disassembly of section .vector_51:

9d000860 <__vector_dispatch_51>:
9d000860:	0b402f87 	j	9d00be1c <.LFE0>
9d000864:	00000000 	nop

Disassembly of section ._debug_exception:

bfc00480 <__DbgExecReturn>:
bfc00480:	409bf800 	mtc0	k1,c0_desave
bfc00484:	000000c0 	ehb
bfc00488:	3c1b9d01 	lui	k1,0x9d01
bfc0048c:	277bbeac 	addiu	k1,k1,-16724
bfc00490:	13600002 	beqz	k1,bfc0049c <__DbgExecReturn+0x1c>
bfc00494:	00000000 	nop
bfc00498:	409bc000 	mtc0	k1,c0_depc
bfc0049c:	401bf800 	mfc0	k1,c0_desave
bfc004a0:	000000c0 	ehb
bfc004a4:	4200001f 	deret
bfc004a8:	00000000 	nop

Disassembly of section .text:

9d001e00 <CurrentController>:
static volatile int TrackingTraj = 0;
static volatile float Traj[2000]; 
static volatile float measuredTraj[2000]; 
static volatile int storingData = 0;   

void __ISR(_TIMER_2_VECTOR, IPL5SOFT) CurrentController(void) {
9d001e00:	415de800 	rdpgpr	sp,sp
9d001e04:	401a7000 	mfc0	k0,c0_epc
9d001e08:	401b6000 	mfc0	k1,c0_status
9d001e0c:	27bdff80 	addiu	sp,sp,-128
9d001e10:	afba007c 	sw	k0,124(sp)
9d001e14:	401a6002 	mfc0	k0,c0_srsctl
9d001e18:	afbb0078 	sw	k1,120(sp)
9d001e1c:	afba0074 	sw	k0,116(sp)
9d001e20:	7c1b7844 	ins	k1,zero,0x1,0xf
9d001e24:	377b1400 	ori	k1,k1,0x1400
9d001e28:	409b6000 	mtc0	k1,c0_status
9d001e2c:	afbf0064 	sw	ra,100(sp)
9d001e30:	afb90060 	sw	t9,96(sp)
9d001e34:	afb8005c 	sw	t8,92(sp)
9d001e38:	afb20058 	sw	s2,88(sp)
9d001e3c:	afb10054 	sw	s1,84(sp)
9d001e40:	afb00050 	sw	s0,80(sp)
9d001e44:	afaf004c 	sw	t7,76(sp)
9d001e48:	afae0048 	sw	t6,72(sp)
9d001e4c:	afad0044 	sw	t5,68(sp)
9d001e50:	afac0040 	sw	t4,64(sp)
9d001e54:	afab003c 	sw	t3,60(sp)
9d001e58:	afaa0038 	sw	t2,56(sp)
9d001e5c:	afa90034 	sw	t1,52(sp)
9d001e60:	afa80030 	sw	t0,48(sp)
9d001e64:	afa7002c 	sw	a3,44(sp)
9d001e68:	afa60028 	sw	a2,40(sp)
9d001e6c:	afa50024 	sw	a1,36(sp)
9d001e70:	afa40020 	sw	a0,32(sp)
9d001e74:	afa3001c 	sw	v1,28(sp)
9d001e78:	afa20018 	sw	v0,24(sp)
9d001e7c:	afa10014 	sw	at,20(sp)
9d001e80:	00001012 	mflo	v0
9d001e84:	afa2006c 	sw	v0,108(sp)
9d001e88:	00001810 	mfhi	v1
9d001e8c:	afa30068 	sw	v1,104(sp)
    static int currentCount = 0;
    static float actualCurrent = 0;
    static float refCurrent = 200;

    switch (GetMode()) {
9d001e90:	0f402ba5 	jal	9d00ae94 <.LFE3>
9d001e94:	00000000 	nop

9d001e98 <.LVL0>:
9d001e98:	2c430005 	sltiu	v1,v0,5
9d001e9c:	106001bc 	beqz	v1,9d002590 <.LBE4>
9d001ea0:	00021080 	sll	v0,v0,0x2
9d001ea4:	3c039d00 	lui	v1,0x9d00
9d001ea8:	24631ebc 	addiu	v1,v1,7868
9d001eac:	00621021 	addu	v0,v1,v0
9d001eb0:	8c420000 	lw	v0,0(v0)
9d001eb4:	00400008 	jr	v0
9d001eb8:	00000000 	nop
9d001ebc:	9d001ed0 	0x9d001ed0
9d001ec0:	9d001ef0 	0x9d001ef0
9d001ec4:	9d001fc0 	0x9d001fc0
9d001ec8:	9d002230 	0x9d002230
9d001ecc:	9d0023e4 	0x9d0023e4
      case IDLE: {
        LATDbits.LATD5 = 0;
9d001ed0:	3c02bf88 	lui	v0,0xbf88
9d001ed4:	944360e0 	lhu	v1,24800(v0)
9d001ed8:	7c032944 	ins	v1,zero,0x5,0x1
9d001edc:	a44360e0 	sh	v1,24800(v0)
        OC1RS = 0;
9d001ee0:	3c02bf80 	lui	v0,0xbf80
9d001ee4:	ac403020 	sw	zero,12320(v0)
        break;
9d001ee8:	0b400965 	j	9d002594 <.LBE4+0x4>
9d001eec:	3c02bf88 	lui	v0,0xbf88
      }
      case PWM: {
        if (speed <= 0) {
9d001ef0:	8f828058 	lw	v0,-32680(gp)
9d001ef4:	1c400019 	bgtz	v0,9d001f5c <.LVL0+0xc4>
9d001ef8:	3c02bf88 	lui	v0,0xbf88
          LATDbits.LATD5 = 0;
9d001efc:	944360e0 	lhu	v1,24800(v0)
9d001f00:	7c032944 	ins	v1,zero,0x5,0x1
9d001f04:	a44360e0 	sh	v1,24800(v0)
          OC1RS = (unsigned int) ((-speed/100.0) * PR3);
9d001f08:	8f848058 	lw	a0,-32680(gp)
9d001f0c:	3c02bf80 	lui	v0,0xbf80
9d001f10:	8c510a20 	lw	s1,2592(v0)
9d001f14:	0f402ed3 	jal	9d00bb4c <__floatsisf>
9d001f18:	00042023 	negu	a0,a0
9d001f1c:	00402021 	move	a0,v0
9d001f20:	3c029d01 	lui	v0,0x9d01
9d001f24:	0f402565 	jal	9d009594 <__divsf3>
9d001f28:	8c45bc8c 	lw	a1,-17268(v0)
9d001f2c:	00408021 	move	s0,v0
9d001f30:	0f402f3d 	jal	9d00bcf4 <.LFE4>
9d001f34:	02202021 	move	a0,s1
9d001f38:	02002021 	move	a0,s0
9d001f3c:	0f402662 	jal	9d009988 <.LFE4>
9d001f40:	00402821 	move	a1,v0
9d001f44:	0f402dc0 	jal	9d00b700 <__fixunssfsi>
9d001f48:	00402021 	move	a0,v0
9d001f4c:	3c03bf80 	lui	v1,0xbf80
9d001f50:	ac623020 	sw	v0,12320(v1)
9d001f54:	0b400965 	j	9d002594 <.LBE4+0x4>
9d001f58:	3c02bf88 	lui	v0,0xbf88
        } else {
          LATDbits.LATD5 = 1;
9d001f5c:	944360e0 	lhu	v1,24800(v0)
9d001f60:	24040001 	li	a0,1
9d001f64:	7c832944 	ins	v1,a0,0x5,0x1
9d001f68:	a44360e0 	sh	v1,24800(v0)
          OC1RS = (unsigned int) ((speed/100.0) * PR3);
9d001f6c:	8f848058 	lw	a0,-32680(gp)
9d001f70:	3c02bf80 	lui	v0,0xbf80
9d001f74:	8c510a20 	lw	s1,2592(v0)
9d001f78:	0f402ed3 	jal	9d00bb4c <__floatsisf>
9d001f7c:	00000000 	nop
9d001f80:	00402021 	move	a0,v0
9d001f84:	3c029d01 	lui	v0,0x9d01
9d001f88:	0f402565 	jal	9d009594 <__divsf3>
9d001f8c:	8c45bc8c 	lw	a1,-17268(v0)
9d001f90:	00408021 	move	s0,v0
9d001f94:	0f402f3d 	jal	9d00bcf4 <.LFE4>
9d001f98:	02202021 	move	a0,s1
9d001f9c:	02002021 	move	a0,s0
9d001fa0:	0f402662 	jal	9d009988 <.LFE4>
9d001fa4:	00402821 	move	a1,v0
9d001fa8:	0f402dc0 	jal	9d00b700 <__fixunssfsi>
9d001fac:	00402021 	move	a0,v0
9d001fb0:	3c03bf80 	lui	v1,0xbf80
9d001fb4:	ac623020 	sw	v0,12320(v1)
        }

        break;
      }
    }
    IFS0bits.T2IF = 0;
9d001fb8:	0b400965 	j	9d002594 <.LBE4+0x4>
9d001fbc:	3c02bf88 	lui	v0,0xbf88
        }
        break;
      }
      case ITEST: {
  
        if (currentCount != 0 && currentCount % 25 == 0) {
9d001fc0:	8f82802c 	lw	v0,-32724(gp)
9d001fc4:	10400013 	beqz	v0,9d002014 <.LBB2>
9d001fc8:	3c0351eb 	lui	v1,0x51eb
9d001fcc:	3463851f 	ori	v1,v1,0x851f
9d001fd0:	00430018 	mult	v0,v1
9d001fd4:	00001810 	mfhi	v1
9d001fd8:	000318c3 	sra	v1,v1,0x3
9d001fdc:	000227c3 	sra	a0,v0,0x1f
9d001fe0:	00641823 	subu	v1,v1,a0
9d001fe4:	000320c0 	sll	a0,v1,0x3
9d001fe8:	00032940 	sll	a1,v1,0x5
9d001fec:	00a42023 	subu	a0,a1,a0
9d001ff0:	00831821 	addu	v1,a0,v1
9d001ff4:	14430005 	bne	v0,v1,9d00200c <.LVL0+0x174>
9d001ff8:	28420064 	slti	v0,v0,100
             refCurrent = refCurrent *= -1; 
9d001ffc:	3c038000 	lui	v1,0x8000
9d002000:	8f848010 	lw	a0,-32752(gp)
9d002004:	00831826 	xor	v1,a0,v1
9d002008:	af838010 	sw	v1,-32752(gp)
        }
        if (currentCount < 100) {
9d00200c:	1040007f 	beqz	v0,9d00220c <.LBE2+0x8>
9d002010:	00000000 	nop

9d002014 <.LBB2>:
          actualCurrent = mA_isense();
9d002014:	0f402a7a 	jal	9d00a9e8 <mA_isense>
9d002018:	00000000 	nop

9d00201c <.LVL11>:
9d00201c:	00408021 	move	s0,v0
          reference_current_array[currentCount] = (int)refCurrent;
9d002020:	8f92802c 	lw	s2,-32724(gp)
9d002024:	8f918010 	lw	s1,-32752(gp)
9d002028:	0f402d60 	jal	9d00b580 <__fixsfsi>
9d00202c:	02202021 	move	a0,s1
9d002030:	00129080 	sll	s2,s2,0x2
9d002034:	3c03a000 	lui	v1,0xa000
9d002038:	24634064 	addiu	v1,v1,16484
9d00203c:	02431821 	addu	v1,s2,v1
9d002040:	ac620000 	sw	v0,0(v1)
          actual_current_array[currentCount] = (int)actualCurrent;
9d002044:	0f402d60 	jal	9d00b580 <__fixsfsi>
9d002048:	02002021 	move	a0,s0
9d00204c:	3c03a000 	lui	v1,0xa000
9d002050:	24633ed4 	addiu	v1,v1,16084
9d002054:	02439021 	addu	s2,s2,v1
9d002058:	ae420000 	sw	v0,0(s2)
        
          
          float error = refCurrent - actualCurrent;
9d00205c:	02202021 	move	a0,s1
9d002060:	0f4024c7 	jal	9d00931c <__subsf3>
9d002064:	02002821 	move	a1,s0
9d002068:	00408021 	move	s0,v0
          eint_current = eint_current + error;
9d00206c:	8f848048 	lw	a0,-32696(gp)
9d002070:	0f402ed3 	jal	9d00bb4c <__floatsisf>
9d002074:	00000000 	nop
9d002078:	00402021 	move	a0,v0
9d00207c:	0f4024c9 	jal	9d009324 <__addsf3>
9d002080:	02002821 	move	a1,s0
9d002084:	0f402d60 	jal	9d00b580 <__fixsfsi>
9d002088:	00402021 	move	a0,v0
9d00208c:	af828048 	sw	v0,-32696(gp)
          float u = Kpcurrent * error + Kicurrent * eint_current;
9d002090:	8f848020 	lw	a0,-32736(gp)
9d002094:	8f928048 	lw	s2,-32696(gp)
9d002098:	8f91801c 	lw	s1,-32740(gp)
9d00209c:	0f402662 	jal	9d009988 <.LFE4>
9d0020a0:	02002821 	move	a1,s0
9d0020a4:	00408021 	move	s0,v0
9d0020a8:	0f402ed3 	jal	9d00bb4c <__floatsisf>
9d0020ac:	02402021 	move	a0,s2
9d0020b0:	00402021 	move	a0,v0
9d0020b4:	0f402662 	jal	9d009988 <.LFE4>
9d0020b8:	02202821 	move	a1,s1
9d0020bc:	02002021 	move	a0,s0
9d0020c0:	0f4024c9 	jal	9d009324 <__addsf3>
9d0020c4:	00402821 	move	a1,v0
          float unew = ((u/1000)/3.3)*100;
9d0020c8:	00402021 	move	a0,v0
9d0020cc:	3c029d01 	lui	v0,0x9d01
9d0020d0:	0f402565 	jal	9d009594 <__divsf3>
9d0020d4:	8c45bc90 	lw	a1,-17264(v0)
9d0020d8:	00402021 	move	a0,v0
9d0020dc:	3c029d01 	lui	v0,0x9d01
9d0020e0:	0f402565 	jal	9d009594 <__divsf3>
9d0020e4:	8c45bc94 	lw	a1,-17260(v0)
9d0020e8:	3c119d01 	lui	s1,0x9d01
9d0020ec:	00402021 	move	a0,v0
9d0020f0:	0f402662 	jal	9d009988 <.LFE4>
9d0020f4:	8e25bc8c 	lw	a1,-17268(s1)
9d0020f8:	00408021 	move	s0,v0
          if (unew > 100.0) {
9d0020fc:	8e24bc8c 	lw	a0,-17268(s1)
9d002100:	0f402ca0 	jal	9d00b280 <.LFE2>
9d002104:	00402821 	move	a1,v0
9d002108:	04400027 	bltz	v0,9d0021a8 <.LVL11+0x18c>
9d00210c:	3c029d01 	lui	v0,0x9d01
            unew = 100.0;
          } 
          else if (unew < -100.0) {
9d002110:	02002021 	move	a0,s0
9d002114:	3c029d01 	lui	v0,0x9d01
9d002118:	0f402ca0 	jal	9d00b280 <.LFE2>
9d00211c:	8c45bc88 	lw	a1,-17272(v0)
9d002120:	04400008 	bltz	v0,9d002144 <.LVL11+0x128>
9d002124:	3c029d01 	lui	v0,0x9d01
            unew = -100.0;
          }

          if (unew < 0) {
9d002128:	02002021 	move	a0,s0
9d00212c:	0f402ca0 	jal	9d00b280 <.LFE2>
9d002130:	00002821 	move	a1,zero
9d002134:	0441001e 	bgez	v0,9d0021b0 <.LVL11+0x194>
9d002138:	3c02bf88 	lui	v0,0xbf88
9d00213c:	0b400853 	j	9d00214c <.LVL11+0x130>
9d002140:	00000000 	nop
          float unew = ((u/1000)/3.3)*100;
          if (unew > 100.0) {
            unew = 100.0;
          } 
          else if (unew < -100.0) {
            unew = -100.0;
9d002144:	8c50bc88 	lw	s0,-17272(v0)
          }

          if (unew < 0) {
            LATDbits.LATD5 = 1;
9d002148:	3c02bf88 	lui	v0,0xbf88
9d00214c:	944360e0 	lhu	v1,24800(v0)
9d002150:	24040001 	li	a0,1
9d002154:	7c832944 	ins	v1,a0,0x5,0x1
9d002158:	a44360e0 	sh	v1,24800(v0)
            OC1RS = (unsigned int) ((-unew/100.0)*PR3);
9d00215c:	3c02bf80 	lui	v0,0xbf80
9d002160:	8c510a20 	lw	s1,2592(v0)
9d002164:	3c048000 	lui	a0,0x8000
9d002168:	00902026 	xor	a0,a0,s0
9d00216c:	3c029d01 	lui	v0,0x9d01
9d002170:	0f402565 	jal	9d009594 <__divsf3>
9d002174:	8c45bc8c 	lw	a1,-17268(v0)
9d002178:	00408021 	move	s0,v0
9d00217c:	0f402f3d 	jal	9d00bcf4 <.LFE4>
9d002180:	02202021 	move	a0,s1
9d002184:	02002021 	move	a0,s0
9d002188:	0f402662 	jal	9d009988 <.LFE4>
9d00218c:	00402821 	move	a1,v0
9d002190:	0f402dc0 	jal	9d00b700 <__fixunssfsi>
9d002194:	00402021 	move	a0,v0
9d002198:	3c03bf80 	lui	v1,0xbf80
9d00219c:	ac623020 	sw	v0,12320(v1)
9d0021a0:	0b400880 	j	9d002200 <.LVL11+0x1e4>
9d0021a4:	8f82802c 	lw	v0,-32724(gp)
          float error = refCurrent - actualCurrent;
          eint_current = eint_current + error;
          float u = Kpcurrent * error + Kicurrent * eint_current;
          float unew = ((u/1000)/3.3)*100;
          if (unew > 100.0) {
            unew = 100.0;
9d0021a8:	8c50bc8c 	lw	s0,-17268(v0)

          if (unew < 0) {
            LATDbits.LATD5 = 1;
            OC1RS = (unsigned int) ((-unew/100.0)*PR3);
          } else {
            LATDbits.LATD5 = 0;
9d0021ac:	3c02bf88 	lui	v0,0xbf88
9d0021b0:	944360e0 	lhu	v1,24800(v0)
9d0021b4:	7c032944 	ins	v1,zero,0x5,0x1
9d0021b8:	a44360e0 	sh	v1,24800(v0)
            OC1RS = (unsigned int) ((unew/100.0)*PR3);
9d0021bc:	3c02bf80 	lui	v0,0xbf80
9d0021c0:	8c510a20 	lw	s1,2592(v0)
9d0021c4:	02002021 	move	a0,s0
9d0021c8:	3c029d01 	lui	v0,0x9d01
9d0021cc:	0f402565 	jal	9d009594 <__divsf3>
9d0021d0:	8c45bc8c 	lw	a1,-17268(v0)
9d0021d4:	00408021 	move	s0,v0
9d0021d8:	0f402f3d 	jal	9d00bcf4 <.LFE4>
9d0021dc:	02202021 	move	a0,s1
9d0021e0:	02002021 	move	a0,s0
9d0021e4:	0f402662 	jal	9d009988 <.LFE4>
9d0021e8:	00402821 	move	a1,v0
9d0021ec:	0f402dc0 	jal	9d00b700 <__fixunssfsi>
9d0021f0:	00402021 	move	a0,v0
9d0021f4:	3c03bf80 	lui	v1,0xbf80
9d0021f8:	ac623020 	sw	v0,12320(v1)
          }

          currentCount++; 
9d0021fc:	8f82802c 	lw	v0,-32724(gp)
9d002200:	24420001 	addiu	v0,v0,1

9d002204 <.LBE2>:
9d002204:	0b400964 	j	9d002590 <.LBE4>
9d002208:	af82802c 	sw	v0,-32724(gp)
        }
        else {
          storingData = 0;
9d00220c:	af808030 	sw	zero,-32720(gp)
          currentCount = 0;
9d002210:	af80802c 	sw	zero,-32724(gp)
          refCurrent = 200;
9d002214:	3c029d01 	lui	v0,0x9d01
9d002218:	8c42bc98 	lw	v0,-17256(v0)
9d00221c:	af828010 	sw	v0,-32752(gp)
          SetMode(IDLE);
9d002220:	0f402bc8 	jal	9d00af20 <SetMode>
9d002224:	00002021 	move	a0,zero

9d002228 <.LVL45>:
        }

        break;
      }
    }
    IFS0bits.T2IF = 0;
9d002228:	0b400965 	j	9d002594 <.LBE4+0x4>
9d00222c:	3c02bf88 	lui	v0,0xbf88

9d002230 <.LBB3>:

        break;
      }
      case HOLD: {
        
        actualCurrent = mA_isense();
9d002230:	0f402a7a 	jal	9d00a9e8 <mA_isense>
9d002234:	00000000 	nop

9d002238 <.LVL46>:
        refCurrent = desired_current;
9d002238:	8f84804c 	lw	a0,-32692(gp)
9d00223c:	af848010 	sw	a0,-32752(gp)

        float error = refCurrent - actualCurrent;
9d002240:	0f4024c7 	jal	9d00931c <__subsf3>
9d002244:	00402821 	move	a1,v0
9d002248:	00408021 	move	s0,v0
        eint_current = eint_current + error;
9d00224c:	8f848048 	lw	a0,-32696(gp)
9d002250:	0f402ed3 	jal	9d00bb4c <__floatsisf>
9d002254:	00000000 	nop
9d002258:	00402021 	move	a0,v0
9d00225c:	0f4024c9 	jal	9d009324 <__addsf3>
9d002260:	02002821 	move	a1,s0
9d002264:	0f402d60 	jal	9d00b580 <__fixsfsi>
9d002268:	00402021 	move	a0,v0
9d00226c:	af828048 	sw	v0,-32696(gp)
        float u = Kpcurrent * error + Kicurrent * eint_current;
9d002270:	8f848020 	lw	a0,-32736(gp)
9d002274:	8f928048 	lw	s2,-32696(gp)
9d002278:	8f91801c 	lw	s1,-32740(gp)
9d00227c:	0f402662 	jal	9d009988 <.LFE4>
9d002280:	02002821 	move	a1,s0
9d002284:	00408021 	move	s0,v0
9d002288:	0f402ed3 	jal	9d00bb4c <__floatsisf>
9d00228c:	02402021 	move	a0,s2
9d002290:	00402021 	move	a0,v0
9d002294:	0f402662 	jal	9d009988 <.LFE4>
9d002298:	02202821 	move	a1,s1
9d00229c:	02002021 	move	a0,s0
9d0022a0:	0f4024c9 	jal	9d009324 <__addsf3>
9d0022a4:	00402821 	move	a1,v0

        float unew = ((u/1000)/3.3)*100;
9d0022a8:	00402021 	move	a0,v0
9d0022ac:	3c029d01 	lui	v0,0x9d01
9d0022b0:	0f402565 	jal	9d009594 <__divsf3>
9d0022b4:	8c45bc90 	lw	a1,-17264(v0)
9d0022b8:	00402021 	move	a0,v0
9d0022bc:	3c029d01 	lui	v0,0x9d01
9d0022c0:	0f402565 	jal	9d009594 <__divsf3>
9d0022c4:	8c45bc94 	lw	a1,-17260(v0)
9d0022c8:	3c119d01 	lui	s1,0x9d01
9d0022cc:	00402021 	move	a0,v0
9d0022d0:	0f402662 	jal	9d009988 <.LFE4>
9d0022d4:	8e25bc8c 	lw	a1,-17268(s1)
9d0022d8:	00408021 	move	s0,v0
        if (unew > 100.0) {
9d0022dc:	8e24bc8c 	lw	a0,-17268(s1)
9d0022e0:	0f402ca0 	jal	9d00b280 <.LFE2>
9d0022e4:	00402821 	move	a1,v0
9d0022e8:	04400027 	bltz	v0,9d002388 <.LVL46+0x150>
9d0022ec:	3c029d01 	lui	v0,0x9d01
          unew = 100.0;
        }
         else if (unew < -100.0) {
9d0022f0:	02002021 	move	a0,s0
9d0022f4:	3c029d01 	lui	v0,0x9d01
9d0022f8:	0f402ca0 	jal	9d00b280 <.LFE2>
9d0022fc:	8c45bc88 	lw	a1,-17272(v0)
9d002300:	04400008 	bltz	v0,9d002324 <.LVL46+0xec>
9d002304:	3c029d01 	lui	v0,0x9d01
          unew = -100.0;
        }

        if (unew < 0) {
9d002308:	02002021 	move	a0,s0
9d00230c:	0f402ca0 	jal	9d00b280 <.LFE2>
9d002310:	00002821 	move	a1,zero
9d002314:	0441001e 	bgez	v0,9d002390 <.LVL46+0x158>
9d002318:	3c02bf88 	lui	v0,0xbf88
9d00231c:	0b4008cb 	j	9d00232c <.LVL46+0xf4>
9d002320:	00000000 	nop
        float unew = ((u/1000)/3.3)*100;
        if (unew > 100.0) {
          unew = 100.0;
        }
         else if (unew < -100.0) {
          unew = -100.0;
9d002324:	8c50bc88 	lw	s0,-17272(v0)
        }

        if (unew < 0) {
          LATDbits.LATD5 = 1;
9d002328:	3c02bf88 	lui	v0,0xbf88
9d00232c:	944360e0 	lhu	v1,24800(v0)
9d002330:	24040001 	li	a0,1
9d002334:	7c832944 	ins	v1,a0,0x5,0x1
9d002338:	a44360e0 	sh	v1,24800(v0)
          OC1RS = (unsigned int) ((-unew/100.0)*PR3);
9d00233c:	3c02bf80 	lui	v0,0xbf80
9d002340:	8c510a20 	lw	s1,2592(v0)
9d002344:	3c048000 	lui	a0,0x8000
9d002348:	00902026 	xor	a0,a0,s0
9d00234c:	3c029d01 	lui	v0,0x9d01
9d002350:	0f402565 	jal	9d009594 <__divsf3>
9d002354:	8c45bc8c 	lw	a1,-17268(v0)
9d002358:	00408021 	move	s0,v0
9d00235c:	0f402f3d 	jal	9d00bcf4 <.LFE4>
9d002360:	02202021 	move	a0,s1
9d002364:	02002021 	move	a0,s0
9d002368:	0f402662 	jal	9d009988 <.LFE4>
9d00236c:	00402821 	move	a1,v0
9d002370:	0f402dc0 	jal	9d00b700 <__fixunssfsi>
9d002374:	00402021 	move	a0,v0
9d002378:	3c03bf80 	lui	v1,0xbf80
9d00237c:	ac623020 	sw	v0,12320(v1)
9d002380:	0b400965 	j	9d002594 <.LBE4+0x4>
9d002384:	3c02bf88 	lui	v0,0xbf88
        eint_current = eint_current + error;
        float u = Kpcurrent * error + Kicurrent * eint_current;

        float unew = ((u/1000)/3.3)*100;
        if (unew > 100.0) {
          unew = 100.0;
9d002388:	8c50bc8c 	lw	s0,-17268(v0)

        if (unew < 0) {
          LATDbits.LATD5 = 1;
          OC1RS = (unsigned int) ((-unew/100.0)*PR3);
        } else {
          LATDbits.LATD5 = 0;
9d00238c:	3c02bf88 	lui	v0,0xbf88
9d002390:	944360e0 	lhu	v1,24800(v0)
9d002394:	7c032944 	ins	v1,zero,0x5,0x1
9d002398:	a44360e0 	sh	v1,24800(v0)
          OC1RS = (unsigned int) ((unew/100.0)*PR3);
9d00239c:	3c02bf80 	lui	v0,0xbf80
9d0023a0:	8c510a20 	lw	s1,2592(v0)
9d0023a4:	02002021 	move	a0,s0
9d0023a8:	3c029d01 	lui	v0,0x9d01
9d0023ac:	0f402565 	jal	9d009594 <__divsf3>
9d0023b0:	8c45bc8c 	lw	a1,-17268(v0)
9d0023b4:	00408021 	move	s0,v0
9d0023b8:	0f402f3d 	jal	9d00bcf4 <.LFE4>
9d0023bc:	02202021 	move	a0,s1
9d0023c0:	02002021 	move	a0,s0
9d0023c4:	0f402662 	jal	9d009988 <.LFE4>
9d0023c8:	00402821 	move	a1,v0
9d0023cc:	0f402dc0 	jal	9d00b700 <__fixunssfsi>
9d0023d0:	00402021 	move	a0,v0
9d0023d4:	3c03bf80 	lui	v1,0xbf80
9d0023d8:	ac623020 	sw	v0,12320(v1)

9d0023dc <.LBE3>:
        }

        break;
      }
    }
    IFS0bits.T2IF = 0;
9d0023dc:	0b400965 	j	9d002594 <.LBE4+0x4>
9d0023e0:	3c02bf88 	lui	v0,0xbf88

9d0023e4 <.LBB4>:
        }

        break;
      }
      case TRACK: {
        actualCurrent = mA_isense();
9d0023e4:	0f402a7a 	jal	9d00a9e8 <mA_isense>
9d0023e8:	00000000 	nop

9d0023ec <.LVL78>:
        refCurrent = desired_current;
9d0023ec:	8f84804c 	lw	a0,-32692(gp)
9d0023f0:	af848010 	sw	a0,-32752(gp)

        float error = refCurrent - actualCurrent;
9d0023f4:	0f4024c7 	jal	9d00931c <__subsf3>
9d0023f8:	00402821 	move	a1,v0
9d0023fc:	00408021 	move	s0,v0
        eint_current = eint_current + error;
9d002400:	8f848048 	lw	a0,-32696(gp)
9d002404:	0f402ed3 	jal	9d00bb4c <__floatsisf>
9d002408:	00000000 	nop
9d00240c:	00402021 	move	a0,v0
9d002410:	0f4024c9 	jal	9d009324 <__addsf3>
9d002414:	02002821 	move	a1,s0
9d002418:	0f402d60 	jal	9d00b580 <__fixsfsi>
9d00241c:	00402021 	move	a0,v0
9d002420:	af828048 	sw	v0,-32696(gp)
        float u = Kpcurrent * error + Kicurrent * eint_current;
9d002424:	8f848020 	lw	a0,-32736(gp)
9d002428:	8f928048 	lw	s2,-32696(gp)
9d00242c:	8f91801c 	lw	s1,-32740(gp)
9d002430:	0f402662 	jal	9d009988 <.LFE4>
9d002434:	02002821 	move	a1,s0
9d002438:	00408021 	move	s0,v0
9d00243c:	0f402ed3 	jal	9d00bb4c <__floatsisf>
9d002440:	02402021 	move	a0,s2
9d002444:	00402021 	move	a0,v0
9d002448:	0f402662 	jal	9d009988 <.LFE4>
9d00244c:	02202821 	move	a1,s1
9d002450:	02002021 	move	a0,s0
9d002454:	0f4024c9 	jal	9d009324 <__addsf3>
9d002458:	00402821 	move	a1,v0

        float unew = ((u/1000)/3.3)*100;
9d00245c:	00402021 	move	a0,v0
9d002460:	3c029d01 	lui	v0,0x9d01
9d002464:	0f402565 	jal	9d009594 <__divsf3>
9d002468:	8c45bc90 	lw	a1,-17264(v0)
9d00246c:	00402021 	move	a0,v0
9d002470:	3c029d01 	lui	v0,0x9d01
9d002474:	0f402565 	jal	9d009594 <__divsf3>
9d002478:	8c45bc94 	lw	a1,-17260(v0)
9d00247c:	3c119d01 	lui	s1,0x9d01
9d002480:	00402021 	move	a0,v0
9d002484:	0f402662 	jal	9d009988 <.LFE4>
9d002488:	8e25bc8c 	lw	a1,-17268(s1)
9d00248c:	00408021 	move	s0,v0
        if (unew > 100.0) {
9d002490:	8e24bc8c 	lw	a0,-17268(s1)
9d002494:	0f402ca0 	jal	9d00b280 <.LFE2>
9d002498:	00402821 	move	a1,v0
9d00249c:	04400027 	bltz	v0,9d00253c <.LVL78+0x150>
9d0024a0:	3c029d01 	lui	v0,0x9d01
          unew = 100.0;
        } 
        else if (unew < -100.0) {
9d0024a4:	02002021 	move	a0,s0
9d0024a8:	3c029d01 	lui	v0,0x9d01
9d0024ac:	0f402ca0 	jal	9d00b280 <.LFE2>
9d0024b0:	8c45bc88 	lw	a1,-17272(v0)
9d0024b4:	04400008 	bltz	v0,9d0024d8 <.LVL78+0xec>
9d0024b8:	3c029d01 	lui	v0,0x9d01
          unew = -100.0;
        }

        if (unew < 0) {
9d0024bc:	02002021 	move	a0,s0
9d0024c0:	0f402ca0 	jal	9d00b280 <.LFE2>
9d0024c4:	00002821 	move	a1,zero
9d0024c8:	0441001e 	bgez	v0,9d002544 <.LVL78+0x158>
9d0024cc:	3c02bf88 	lui	v0,0xbf88
9d0024d0:	0b400938 	j	9d0024e0 <.LVL78+0xf4>
9d0024d4:	00000000 	nop
        float unew = ((u/1000)/3.3)*100;
        if (unew > 100.0) {
          unew = 100.0;
        } 
        else if (unew < -100.0) {
          unew = -100.0;
9d0024d8:	8c50bc88 	lw	s0,-17272(v0)
        }

        if (unew < 0) {
          LATDbits.LATD5 = 1;
9d0024dc:	3c02bf88 	lui	v0,0xbf88
9d0024e0:	944360e0 	lhu	v1,24800(v0)
9d0024e4:	24040001 	li	a0,1
9d0024e8:	7c832944 	ins	v1,a0,0x5,0x1
9d0024ec:	a44360e0 	sh	v1,24800(v0)
          OC1RS = (unsigned int) ((-unew/100.0)*PR3);
9d0024f0:	3c02bf80 	lui	v0,0xbf80
9d0024f4:	8c510a20 	lw	s1,2592(v0)
9d0024f8:	3c048000 	lui	a0,0x8000
9d0024fc:	00902026 	xor	a0,a0,s0
9d002500:	3c029d01 	lui	v0,0x9d01
9d002504:	0f402565 	jal	9d009594 <__divsf3>
9d002508:	8c45bc8c 	lw	a1,-17268(v0)
9d00250c:	00408021 	move	s0,v0
9d002510:	0f402f3d 	jal	9d00bcf4 <.LFE4>
9d002514:	02202021 	move	a0,s1
9d002518:	02002021 	move	a0,s0
9d00251c:	0f402662 	jal	9d009988 <.LFE4>
9d002520:	00402821 	move	a1,v0
9d002524:	0f402dc0 	jal	9d00b700 <__fixunssfsi>
9d002528:	00402021 	move	a0,v0
9d00252c:	3c03bf80 	lui	v1,0xbf80
9d002530:	ac623020 	sw	v0,12320(v1)
9d002534:	0b400965 	j	9d002594 <.LBE4+0x4>
9d002538:	3c02bf88 	lui	v0,0xbf88
        eint_current = eint_current + error;
        float u = Kpcurrent * error + Kicurrent * eint_current;

        float unew = ((u/1000)/3.3)*100;
        if (unew > 100.0) {
          unew = 100.0;
9d00253c:	8c50bc8c 	lw	s0,-17268(v0)
        if (unew < 0) {
          LATDbits.LATD5 = 1;
          OC1RS = (unsigned int) ((-unew/100.0)*PR3);
        } 
        else {
          LATDbits.LATD5 = 0;
9d002540:	3c02bf88 	lui	v0,0xbf88
9d002544:	944360e0 	lhu	v1,24800(v0)
9d002548:	7c032944 	ins	v1,zero,0x5,0x1
9d00254c:	a44360e0 	sh	v1,24800(v0)
          OC1RS = (unsigned int) ((unew/100.0)*PR3);
9d002550:	3c02bf80 	lui	v0,0xbf80
9d002554:	8c510a20 	lw	s1,2592(v0)
9d002558:	02002021 	move	a0,s0
9d00255c:	3c029d01 	lui	v0,0x9d01
9d002560:	0f402565 	jal	9d009594 <__divsf3>
9d002564:	8c45bc8c 	lw	a1,-17268(v0)
9d002568:	00408021 	move	s0,v0
9d00256c:	0f402f3d 	jal	9d00bcf4 <.LFE4>
9d002570:	02202021 	move	a0,s1
9d002574:	02002021 	move	a0,s0
9d002578:	0f402662 	jal	9d009988 <.LFE4>
9d00257c:	00402821 	move	a1,v0
9d002580:	0f402dc0 	jal	9d00b700 <__fixunssfsi>
9d002584:	00402021 	move	a0,v0
9d002588:	3c03bf80 	lui	v1,0xbf80
9d00258c:	ac623020 	sw	v0,12320(v1)

9d002590 <.LBE4>:
        }

        break;
      }
    }
    IFS0bits.T2IF = 0;
9d002590:	3c02bf88 	lui	v0,0xbf88
9d002594:	8c431030 	lw	v1,4144(v0)
9d002598:	7c034204 	ins	v1,zero,0x8,0x1
9d00259c:	ac431030 	sw	v1,4144(v0)
}
9d0025a0:	8fa2006c 	lw	v0,108(sp)
9d0025a4:	00400013 	mtlo	v0
9d0025a8:	8fa30068 	lw	v1,104(sp)
9d0025ac:	00600011 	mthi	v1
9d0025b0:	8fbf0064 	lw	ra,100(sp)
9d0025b4:	8fb90060 	lw	t9,96(sp)
9d0025b8:	8fb8005c 	lw	t8,92(sp)
9d0025bc:	8fb20058 	lw	s2,88(sp)
9d0025c0:	8fb10054 	lw	s1,84(sp)
9d0025c4:	8fb00050 	lw	s0,80(sp)
9d0025c8:	8faf004c 	lw	t7,76(sp)
9d0025cc:	8fae0048 	lw	t6,72(sp)
9d0025d0:	8fad0044 	lw	t5,68(sp)
9d0025d4:	8fac0040 	lw	t4,64(sp)
9d0025d8:	8fab003c 	lw	t3,60(sp)
9d0025dc:	8faa0038 	lw	t2,56(sp)
9d0025e0:	8fa90034 	lw	t1,52(sp)
9d0025e4:	8fa80030 	lw	t0,48(sp)
9d0025e8:	8fa7002c 	lw	a3,44(sp)
9d0025ec:	8fa60028 	lw	a2,40(sp)
9d0025f0:	8fa50024 	lw	a1,36(sp)
9d0025f4:	8fa40020 	lw	a0,32(sp)
9d0025f8:	8fa3001c 	lw	v1,28(sp)
9d0025fc:	8fa20018 	lw	v0,24(sp)
9d002600:	8fa10014 	lw	at,20(sp)
9d002604:	41606000 	di
9d002608:	000000c0 	ehb
9d00260c:	8fba007c 	lw	k0,124(sp)
9d002610:	8fbb0078 	lw	k1,120(sp)
9d002614:	409a7000 	mtc0	k0,c0_epc
9d002618:	8fba0074 	lw	k0,116(sp)
9d00261c:	27bd0080 	addiu	sp,sp,128
9d002620:	409a6002 	mtc0	k0,c0_srsctl
9d002624:	41dde800 	wrpgpr	sp,sp
9d002628:	409b6000 	mtc0	k1,c0_status
9d00262c:	42000018 	eret

9d002630 <PositionController>:

void __ISR(_TIMER_4_VECTOR, IPL5SOFT) PositionController(void) {
9d002630:	415de800 	rdpgpr	sp,sp
9d002634:	401a7000 	mfc0	k0,c0_epc
9d002638:	401b6000 	mfc0	k1,c0_status
9d00263c:	27bdff70 	addiu	sp,sp,-144
9d002640:	afba008c 	sw	k0,140(sp)
9d002644:	401a6002 	mfc0	k0,c0_srsctl
9d002648:	afbb0088 	sw	k1,136(sp)
9d00264c:	afba0084 	sw	k0,132(sp)
9d002650:	7c1b7844 	ins	k1,zero,0x1,0xf
9d002654:	377b1400 	ori	k1,k1,0x1400
9d002658:	409b6000 	mtc0	k1,c0_status
9d00265c:	afbf0074 	sw	ra,116(sp)
9d002660:	afb90070 	sw	t9,112(sp)
9d002664:	afb8006c 	sw	t8,108(sp)
9d002668:	afb60068 	sw	s6,104(sp)
9d00266c:	afb50064 	sw	s5,100(sp)
9d002670:	afb40060 	sw	s4,96(sp)
9d002674:	afb3005c 	sw	s3,92(sp)
9d002678:	afb20058 	sw	s2,88(sp)
9d00267c:	afb10054 	sw	s1,84(sp)
9d002680:	afb00050 	sw	s0,80(sp)
9d002684:	afaf004c 	sw	t7,76(sp)
9d002688:	afae0048 	sw	t6,72(sp)
9d00268c:	afad0044 	sw	t5,68(sp)
9d002690:	afac0040 	sw	t4,64(sp)
9d002694:	afab003c 	sw	t3,60(sp)
9d002698:	afaa0038 	sw	t2,56(sp)
9d00269c:	afa90034 	sw	t1,52(sp)
9d0026a0:	afa80030 	sw	t0,48(sp)
9d0026a4:	afa7002c 	sw	a3,44(sp)
9d0026a8:	afa60028 	sw	a2,40(sp)
9d0026ac:	afa50024 	sw	a1,36(sp)
9d0026b0:	afa40020 	sw	a0,32(sp)
9d0026b4:	afa3001c 	sw	v1,28(sp)
9d0026b8:	afa20018 	sw	v0,24(sp)
9d0026bc:	afa10014 	sw	at,20(sp)
9d0026c0:	00001012 	mflo	v0
9d0026c4:	afa2007c 	sw	v0,124(sp)
9d0026c8:	00001810 	mfhi	v1
9d0026cc:	afa30078 	sw	v1,120(sp)
    static float actual_pos = 0;

    switch (GetMode()) {
9d0026d0:	0f402ba5 	jal	9d00ae94 <.LFE3>
9d0026d4:	00000000 	nop

9d0026d8 <.LVL110>:
9d0026d8:	24030003 	li	v1,3
9d0026dc:	10430006 	beq	v0,v1,9d0026f8 <.LBB5>
9d0026e0:	00402021 	move	a0,v0
9d0026e4:	24020004 	li	v0,4
9d0026e8:	1082004b 	beq	a0,v0,9d002818 <.LBB6>
9d0026ec:	3c02bf88 	lui	v0,0xbf88
9d0026f0:	0b400a67 	j	9d00299c <.LBE6+0x4>
9d0026f4:	00000000 	nop

9d0026f8 <.LBB5>:

        break;
      }
      case HOLD: {
       
        actual_pos = encoder_angle();
9d0026f8:	0f4027bb 	jal	9d009eec <encoder_angle>
9d0026fc:	00000000 	nop

9d002700 <.LVL111>:
        float error = desired_angle - actual_pos;
9d002700:	8f908054 	lw	s0,-32684(gp)

        break;
      }
      case HOLD: {
       
        actual_pos = encoder_angle();
9d002704:	0f402ed3 	jal	9d00bb4c <__floatsisf>
9d002708:	00402021 	move	a0,v0
        float error = desired_angle - actual_pos;
9d00270c:	02002021 	move	a0,s0
9d002710:	0f4024c7 	jal	9d00931c <__subsf3>
9d002714:	00402821 	move	a1,v0
9d002718:	00408021 	move	s0,v0
9d00271c:	00408821 	move	s1,v0
        float ederiv = error - error_prev;
9d002720:	8f948040 	lw	s4,-32704(gp)
        eint_pos = eint_pos + error;
9d002724:	8f848044 	lw	a0,-32700(gp)
9d002728:	0f402ed3 	jal	9d00bb4c <__floatsisf>
9d00272c:	00000000 	nop
9d002730:	00402021 	move	a0,v0
9d002734:	0f4024c9 	jal	9d009324 <__addsf3>
9d002738:	02002821 	move	a1,s0
9d00273c:	0f402d60 	jal	9d00b580 <__fixsfsi>
9d002740:	00402021 	move	a0,v0
9d002744:	af828044 	sw	v0,-32700(gp)
        float u = -(Kp_pos * error + Ki_pos * eint_pos + Kd_pos * ederiv);
9d002748:	8f848018 	lw	a0,-32744(gp)
9d00274c:	8f968044 	lw	s6,-32700(gp)
9d002750:	8f958050 	lw	s5,-32688(gp)
9d002754:	8f938014 	lw	s3,-32748(gp)
9d002758:	0f402662 	jal	9d009988 <.LFE4>
9d00275c:	02002821 	move	a1,s0
9d002760:	00409021 	move	s2,v0
9d002764:	0f402ed3 	jal	9d00bb4c <__floatsisf>
9d002768:	02c02021 	move	a0,s6
9d00276c:	00402021 	move	a0,v0
9d002770:	0f402662 	jal	9d009988 <.LFE4>
9d002774:	02a02821 	move	a1,s5
9d002778:	02402021 	move	a0,s2
9d00277c:	0f4024c9 	jal	9d009324 <__addsf3>
9d002780:	00402821 	move	a1,v0
9d002784:	00409021 	move	s2,v0
      }
      case HOLD: {
       
        actual_pos = encoder_angle();
        float error = desired_angle - actual_pos;
        float ederiv = error - error_prev;
9d002788:	02002021 	move	a0,s0
9d00278c:	0f4024c7 	jal	9d00931c <__subsf3>
9d002790:	02802821 	move	a1,s4
        eint_pos = eint_pos + error;
        float u = -(Kp_pos * error + Ki_pos * eint_pos + Kd_pos * ederiv);
9d002794:	02602021 	move	a0,s3
9d002798:	0f402662 	jal	9d009988 <.LFE4>
9d00279c:	00402821 	move	a1,v0
9d0027a0:	02402021 	move	a0,s2
9d0027a4:	0f4024c9 	jal	9d009324 <__addsf3>
9d0027a8:	00402821 	move	a1,v0
9d0027ac:	3c108000 	lui	s0,0x8000
9d0027b0:	00508026 	xor	s0,v0,s0

   
        if (u > 300) {
9d0027b4:	3c029d01 	lui	v0,0x9d01
9d0027b8:	8c44bc9c 	lw	a0,-17252(v0)
9d0027bc:	0f402ca0 	jal	9d00b280 <.LFE2>
9d0027c0:	02002821 	move	a1,s0
9d0027c4:	04410006 	bgez	v0,9d0027e0 <.LVL111+0xe0>
9d0027c8:	02002021 	move	a0,s0
          desired_current = 300;
9d0027cc:	3c029d01 	lui	v0,0x9d01
9d0027d0:	8c42bc9c 	lw	v0,-17252(v0)
9d0027d4:	af82804c 	sw	v0,-32692(gp)
9d0027d8:	0b400a03 	j	9d00280c <.LVL111+0x10c>
9d0027dc:	00000000 	nop
        } 
        else if (u < -300) {
9d0027e0:	3c029d01 	lui	v0,0x9d01
9d0027e4:	0f402ca0 	jal	9d00b280 <.LFE2>
9d0027e8:	8c45bca0 	lw	a1,-17248(v0)
9d0027ec:	04410006 	bgez	v0,9d002808 <.LVL111+0x108>
9d0027f0:	00000000 	nop
          desired_current = -300;
9d0027f4:	3c029d01 	lui	v0,0x9d01
9d0027f8:	8c42bca0 	lw	v0,-17248(v0)
9d0027fc:	af82804c 	sw	v0,-32692(gp)
9d002800:	0b400a03 	j	9d00280c <.LVL111+0x10c>
9d002804:	00000000 	nop
        } 
        else {
          desired_current = u;
9d002808:	af90804c 	sw	s0,-32692(gp)
        }
        error_prev = error;
9d00280c:	af918040 	sw	s1,-32704(gp)
        break;
9d002810:	0b400a67 	j	9d00299c <.LBE6+0x4>
9d002814:	3c02bf88 	lui	v0,0xbf88

9d002818 <.LBB6>:
      }
      case TRACK: {
        actual_pos = encoder_angle();
9d002818:	0f4027bb 	jal	9d009eec <encoder_angle>
9d00281c:	00000000 	nop

9d002820 <.LVL131>:
9d002820:	0f402ed3 	jal	9d00bb4c <__floatsisf>
9d002824:	00402021 	move	a0,v0
        measuredTraj[TrajIndex] = actual_pos;
9d002828:	8f848038 	lw	a0,-32712(gp)
9d00282c:	00042080 	sll	a0,a0,0x2
9d002830:	3c03a000 	lui	v1,0xa000
9d002834:	24630054 	addiu	v1,v1,84
9d002838:	00831821 	addu	v1,a0,v1
9d00283c:	ac620000 	sw	v0,0(v1)

   
        float error = Traj[TrajIndex] - actual_pos;
9d002840:	8f848038 	lw	a0,-32712(gp)
9d002844:	00042080 	sll	a0,a0,0x2
9d002848:	3c03a000 	lui	v1,0xa000
9d00284c:	24631f94 	addiu	v1,v1,8084
9d002850:	00831821 	addu	v1,a0,v1
9d002854:	8c640000 	lw	a0,0(v1)
9d002858:	0f4024c7 	jal	9d00931c <__subsf3>
9d00285c:	00402821 	move	a1,v0
9d002860:	00408021 	move	s0,v0
9d002864:	00408821 	move	s1,v0
        float ederiv = error - error_prev;
9d002868:	8f948040 	lw	s4,-32704(gp)
        eint_pos = eint_pos + error;
9d00286c:	8f848044 	lw	a0,-32700(gp)
9d002870:	0f402ed3 	jal	9d00bb4c <__floatsisf>
9d002874:	00000000 	nop
9d002878:	00402021 	move	a0,v0
9d00287c:	0f4024c9 	jal	9d009324 <__addsf3>
9d002880:	02002821 	move	a1,s0
9d002884:	0f402d60 	jal	9d00b580 <__fixsfsi>
9d002888:	00402021 	move	a0,v0
9d00288c:	af828044 	sw	v0,-32700(gp)
        float u = -(Kp_pos * error + Ki_pos * eint_pos + Kd_pos * ederiv);
9d002890:	8f848018 	lw	a0,-32744(gp)
9d002894:	8f968044 	lw	s6,-32700(gp)
9d002898:	8f958050 	lw	s5,-32688(gp)
9d00289c:	8f938014 	lw	s3,-32748(gp)
9d0028a0:	0f402662 	jal	9d009988 <.LFE4>
9d0028a4:	02002821 	move	a1,s0
9d0028a8:	00409021 	move	s2,v0
9d0028ac:	0f402ed3 	jal	9d00bb4c <__floatsisf>
9d0028b0:	02c02021 	move	a0,s6
9d0028b4:	00402021 	move	a0,v0
9d0028b8:	0f402662 	jal	9d009988 <.LFE4>
9d0028bc:	02a02821 	move	a1,s5
9d0028c0:	02402021 	move	a0,s2
9d0028c4:	0f4024c9 	jal	9d009324 <__addsf3>
9d0028c8:	00402821 	move	a1,v0
9d0028cc:	00409021 	move	s2,v0
        actual_pos = encoder_angle();
        measuredTraj[TrajIndex] = actual_pos;

   
        float error = Traj[TrajIndex] - actual_pos;
        float ederiv = error - error_prev;
9d0028d0:	02002021 	move	a0,s0
9d0028d4:	0f4024c7 	jal	9d00931c <__subsf3>
9d0028d8:	02802821 	move	a1,s4
        eint_pos = eint_pos + error;
        float u = -(Kp_pos * error + Ki_pos * eint_pos + Kd_pos * ederiv);
9d0028dc:	02602021 	move	a0,s3
9d0028e0:	0f402662 	jal	9d009988 <.LFE4>
9d0028e4:	00402821 	move	a1,v0
9d0028e8:	02402021 	move	a0,s2
9d0028ec:	0f4024c9 	jal	9d009324 <__addsf3>
9d0028f0:	00402821 	move	a1,v0
9d0028f4:	3c108000 	lui	s0,0x8000
9d0028f8:	00508026 	xor	s0,v0,s0

        if (u > 300) {
9d0028fc:	3c029d01 	lui	v0,0x9d01
9d002900:	8c44bc9c 	lw	a0,-17252(v0)
9d002904:	0f402ca0 	jal	9d00b280 <.LFE2>
9d002908:	02002821 	move	a1,s0
9d00290c:	04410006 	bgez	v0,9d002928 <.LVL131+0x108>
9d002910:	02002021 	move	a0,s0
          desired_current = 300;
9d002914:	3c029d01 	lui	v0,0x9d01
9d002918:	8c42bc9c 	lw	v0,-17252(v0)
9d00291c:	af82804c 	sw	v0,-32692(gp)
9d002920:	0b400a54 	j	9d002950 <.LVL131+0x130>
9d002924:	00000000 	nop
        } else if (u < -300) {
9d002928:	3c029d01 	lui	v0,0x9d01
9d00292c:	0f402ca0 	jal	9d00b280 <.LFE2>
9d002930:	8c45bca0 	lw	a1,-17248(v0)
9d002934:	04410005 	bgez	v0,9d00294c <.LVL131+0x12c>
9d002938:	3c029d01 	lui	v0,0x9d01
          desired_current = -300;
9d00293c:	8c42bca0 	lw	v0,-17248(v0)
9d002940:	af82804c 	sw	v0,-32692(gp)
9d002944:	0b400a54 	j	9d002950 <.LVL131+0x130>
9d002948:	00000000 	nop
        } else {
          desired_current = u;
9d00294c:	af90804c 	sw	s0,-32692(gp)
        }

        error_prev = error;
9d002950:	af918040 	sw	s1,-32704(gp)
        TrajIndex++;
9d002954:	8f828038 	lw	v0,-32712(gp)
9d002958:	24420001 	addiu	v0,v0,1
9d00295c:	af828038 	sw	v0,-32712(gp)
        if (TrajIndex == TrajSize) {
9d002960:	8f838038 	lw	v1,-32712(gp)
9d002964:	8f82803c 	lw	v0,-32708(gp)
9d002968:	1462000c 	bne	v1,v0,9d00299c <.LBE6+0x4>
9d00296c:	3c02bf88 	lui	v0,0xbf88
          desired_angle = Traj[TrajIndex-1];
9d002970:	8f838038 	lw	v1,-32712(gp)
9d002974:	2463ffff 	addiu	v1,v1,-1
9d002978:	00031880 	sll	v1,v1,0x2
9d00297c:	3c02a000 	lui	v0,0xa000
9d002980:	24421f94 	addiu	v0,v0,8084
9d002984:	00621021 	addu	v0,v1,v0
9d002988:	8c420000 	lw	v0,0(v0)
9d00298c:	af828054 	sw	v0,-32684(gp)
          TrajIndex = 0;
9d002990:	af808038 	sw	zero,-32712(gp)
          TrackingTraj = 0;
9d002994:	af808034 	sw	zero,-32716(gp)

9d002998 <.LBE6>:
        }
        break;
      }
    }
    IFS0bits.T4IF = 0;
9d002998:	3c02bf88 	lui	v0,0xbf88
9d00299c:	8c431030 	lw	v1,4144(v0)
9d0029a0:	7c038404 	ins	v1,zero,0x10,0x1
9d0029a4:	ac431030 	sw	v1,4144(v0)
}
9d0029a8:	8fa2007c 	lw	v0,124(sp)
9d0029ac:	00400013 	mtlo	v0
9d0029b0:	8fa30078 	lw	v1,120(sp)
9d0029b4:	00600011 	mthi	v1
9d0029b8:	8fbf0074 	lw	ra,116(sp)
9d0029bc:	8fb90070 	lw	t9,112(sp)
9d0029c0:	8fb8006c 	lw	t8,108(sp)
9d0029c4:	8fb60068 	lw	s6,104(sp)
9d0029c8:	8fb50064 	lw	s5,100(sp)
9d0029cc:	8fb40060 	lw	s4,96(sp)
9d0029d0:	8fb3005c 	lw	s3,92(sp)
9d0029d4:	8fb20058 	lw	s2,88(sp)
9d0029d8:	8fb10054 	lw	s1,84(sp)
9d0029dc:	8fb00050 	lw	s0,80(sp)
9d0029e0:	8faf004c 	lw	t7,76(sp)
9d0029e4:	8fae0048 	lw	t6,72(sp)
9d0029e8:	8fad0044 	lw	t5,68(sp)
9d0029ec:	8fac0040 	lw	t4,64(sp)
9d0029f0:	8fab003c 	lw	t3,60(sp)
9d0029f4:	8faa0038 	lw	t2,56(sp)
9d0029f8:	8fa90034 	lw	t1,52(sp)
9d0029fc:	8fa80030 	lw	t0,48(sp)
9d002a00:	8fa7002c 	lw	a3,44(sp)
9d002a04:	8fa60028 	lw	a2,40(sp)
9d002a08:	8fa50024 	lw	a1,36(sp)
9d002a0c:	8fa40020 	lw	a0,32(sp)
9d002a10:	8fa3001c 	lw	v1,28(sp)
9d002a14:	8fa20018 	lw	v0,24(sp)
9d002a18:	8fa10014 	lw	at,20(sp)
9d002a1c:	41606000 	di
9d002a20:	000000c0 	ehb
9d002a24:	8fba008c 	lw	k0,140(sp)
9d002a28:	8fbb0088 	lw	k1,136(sp)
9d002a2c:	409a7000 	mtc0	k0,c0_epc
9d002a30:	8fba0084 	lw	k0,132(sp)
9d002a34:	27bd0090 	addiu	sp,sp,144
9d002a38:	409a6002 	mtc0	k0,c0_srsctl
9d002a3c:	41dde800 	wrpgpr	sp,sp
9d002a40:	409b6000 	mtc0	k1,c0_status
9d002a44:	42000018 	eret

9d002a48 <main>:

int main()
{
9d002a48:	27bdfee0 	addiu	sp,sp,-288
9d002a4c:	afbf011c 	sw	ra,284(sp)
9d002a50:	afbe0118 	sw	s8,280(sp)
9d002a54:	afb70114 	sw	s7,276(sp)
9d002a58:	afb60110 	sw	s6,272(sp)
9d002a5c:	afb5010c 	sw	s5,268(sp)
9d002a60:	afb40108 	sw	s4,264(sp)
9d002a64:	afb30104 	sw	s3,260(sp)
9d002a68:	afb20100 	sw	s2,256(sp)
9d002a6c:	afb100fc 	sw	s1,252(sp)
  char buffer[BUF_SIZE];
  NU32_Startup();
9d002a70:	0f4025f1 	jal	9d0097c4 <NU32_Startup>
9d002a74:	afb000f8 	sw	s0,248(sp)

9d002a78 <.LVL151>:
  NU32_LED1 = 1; 
9d002a78:	3c02bf88 	lui	v0,0xbf88
9d002a7c:	90436160 	lbu	v1,24928(v0)
9d002a80:	24040001 	li	a0,1
9d002a84:	7c830004 	ins	v1,a0,0x0,0x1
9d002a88:	a0436160 	sb	v1,24928(v0)
  NU32_LED2 = 1;
9d002a8c:	90436160 	lbu	v1,24928(v0)
9d002a90:	7c830844 	ins	v1,a0,0x1,0x1
9d002a94:	a0436160 	sb	v1,24928(v0)

  isense_init();
9d002a98:	0f402a8b 	jal	9d00aa2c <isense_init>
9d002a9c:	00000000 	nop

9d002aa0 <.LVL152>:
  
  __builtin_disable_interrupts();
9d002aa0:	41626000 	di	v0
9d002aa4:	000000c0 	ehb
  encoder_init();
9d002aa8:	0f4027db 	jal	9d009f6c <encoder_init>
9d002aac:	00000000 	nop

9d002ab0 <.LVL153>:
  currentcontrol_init();
9d002ab0:	0f4028db 	jal	9d00a36c <currentcontrol_init>
9d002ab4:	00000000 	nop

9d002ab8 <.LVL154>:
  positioncontrol_init();
9d002ab8:	0f402c79 	jal	9d00b1e4 <positioncontrol_init>
9d002abc:	00000000 	nop

9d002ac0 <.LVL155>:
  __builtin_enable_interrupts();
9d002ac0:	41626020 	ei	v0

  //encoder_reset();
  SetMode(IDLE);
9d002ac4:	0f402bc8 	jal	9d00af20 <SetMode>
9d002ac8:	00002021 	move	a0,zero

9d002acc <.LVL156>:

  float Kptemp = 0;
9d002acc:	00001021 	move	v0,zero
9d002ad0:	afa200e0 	sw	v0,224(sp)
  float Kitemp = 0; 
9d002ad4:	afa200e4 	sw	v0,228(sp)
  float Kdtemp = 0;
9d002ad8:	afa200e8 	sw	v0,232(sp)
  float angle = 0;
9d002adc:	afa200ec 	sw	v0,236(sp)

  while(1)
  {
    NU32_ReadUART3(buffer,BUF_SIZE); 
    NU32_LED2 = 1;                   
9d002ae0:	3c17bf88 	lui	s7,0xbf88
    switch (buffer[0]) {
9d002ae4:	3c1e9d00 	lui	s8,0x9d00
9d002ae8:	27de2b44 	addiu	s8,s8,11076
        sprintf(buffer,"%d\r\n", TrajSize);
        NU32_WriteUART3(buffer);
        int j;
        __builtin_disable_interrupts();
        for (j = 0; j < TrajSize; j++) {
          sprintf(buffer,"%f %f\r\n", Traj[j], measuredTraj[j]);
9d002aec:	3c169d01 	lui	s6,0x9d01
9d002af0:	26d6bc78 	addiu	s6,s6,-17288
        TrajSize = size;
        int i;
        float temp;
        for (i = 0; i < TrajSize; i++) {
          NU32_ReadUART3(buffer,BUF_SIZE);
          sscanf(buffer, "%f", &temp);
9d002af4:	3c119d01 	lui	s1,0x9d01
9d002af8:	2631bc68 	addiu	s1,s1,-17304
  float Kdtemp = 0;
  float angle = 0;

  while(1)
  {
    NU32_ReadUART3(buffer,BUF_SIZE); 
9d002afc:	27a40018 	addiu	a0,sp,24
9d002b00:	0f402636 	jal	9d0098d8 <NU32_ReadUART3>
9d002b04:	240500c8 	li	a1,200

9d002b08 <.LVL157>:
    NU32_LED2 = 1;                   
9d002b08:	92e26160 	lbu	v0,24928(s7)
9d002b0c:	24030001 	li	v1,1
9d002b10:	7c620844 	ins	v0,v1,0x1,0x1
9d002b14:	a2e26160 	sb	v0,24928(s7)
    switch (buffer[0]) {
9d002b18:	93a20018 	lbu	v0,24(sp)
9d002b1c:	2442ff9f 	addiu	v0,v0,-97
9d002b20:	304300ff 	andi	v1,v0,0xff
9d002b24:	2c63001a 	sltiu	v1,v1,26
9d002b28:	106001ad 	beqz	v1,9d0031e0 <.LVL246+0x8>
9d002b2c:	304200ff 	andi	v0,v0,0xff
9d002b30:	00021080 	sll	v0,v0,0x2
9d002b34:	03c21021 	addu	v0,s8,v0
9d002b38:	8c420000 	lw	v0,0(v0)
9d002b3c:	00400008 	jr	v0
9d002b40:	00000000 	nop
9d002b44:	9d002bac 	0x9d002bac
9d002b48:	9d002bd8 	0x9d002bd8
9d002b4c:	9d002c04 	0x9d002c04
9d002b50:	9d002c30 	0x9d002c30
9d002b54:	9d002c5c 	0x9d002c5c
9d002b58:	9d002c88 	0x9d002c88
9d002b5c:	9d002cb8 	0x9d002cb8
9d002b60:	9d002d14 	0x9d002d14
9d002b64:	9d002d50 	0x9d002d50
9d002b68:	9d002dd0 	0x9d002dd0
9d002b6c:	9d002e24 	0x9d002e24
9d002b70:	9d002eb4 	0x9d002eb4
9d002b74:	9d002f08 	0x9d002f08
9d002b78:	9d002fa4 	0x9d002fa4
9d002b7c:	9d003040 	0x9d003040
9d002b80:	9d00310c 	0x9d00310c
9d002b84:	9d003120 	0x9d003120
9d002b88:	9d003130 	0x9d003130
9d002b8c:	9d0031e0 	0x9d0031e0
9d002b90:	9d0031e0 	0x9d0031e0
9d002b94:	9d0031e0 	0x9d0031e0
9d002b98:	9d0031e0 	0x9d0031e0
9d002b9c:	9d0031e0 	0x9d0031e0
9d002ba0:	9d0031e0 	0x9d0031e0
9d002ba4:	9d0031e0 	0x9d0031e0
9d002ba8:	9d00315c 	0x9d00315c
      case 'a':                     
      {
        sprintf(buffer,"%d\r\n", ADC_isense()); 
9d002bac:	0f402a5d 	jal	9d00a974 <ADC_isense>
9d002bb0:	00000000 	nop

9d002bb4 <.LVL158>:
9d002bb4:	27a40018 	addiu	a0,sp,24
9d002bb8:	3c039d01 	lui	v1,0x9d01
9d002bbc:	2465bc54 	addiu	a1,v1,-17324
9d002bc0:	0f402e38 	jal	9d00b8e0 <_sprintf_cdfFnopsuxX>
9d002bc4:	00403021 	move	a2,v0

9d002bc8 <.LVL159>:
        // ADC count
        NU32_WriteUART3(buffer);
9d002bc8:	0f402653 	jal	9d00994c <NU32_WriteUART3>
9d002bcc:	27a40018 	addiu	a0,sp,24

9d002bd0 <.LVL160>:
        break;
9d002bd0:	0b400ac0 	j	9d002b00 <.LVL156+0x34>
9d002bd4:	27a40018 	addiu	a0,sp,24
      }
      case 'b':                      
      // read ADC (mA)
      {
        sprintf(buffer,"%f\r\n", mA_isense()); 
9d002bd8:	0f402a7a 	jal	9d00a9e8 <mA_isense>
9d002bdc:	00000000 	nop

9d002be0 <.LVL161>:
9d002be0:	27a40018 	addiu	a0,sp,24
9d002be4:	3c059d01 	lui	a1,0x9d01
9d002be8:	24a5bc5c 	addiu	a1,a1,-17316
9d002bec:	0f402e38 	jal	9d00b8e0 <_sprintf_cdfFnopsuxX>
9d002bf0:	00403021 	move	a2,v0

9d002bf4 <.LVL162>:
        NU32_WriteUART3(buffer);
9d002bf4:	0f402653 	jal	9d00994c <NU32_WriteUART3>
9d002bf8:	27a40018 	addiu	a0,sp,24

9d002bfc <.LVL163>:
        break;
9d002bfc:	0b400ac0 	j	9d002b00 <.LVL156+0x34>
9d002c00:	27a40018 	addiu	a0,sp,24
      }
      case 'c':                      
      // read encoder (counts)
      {
        sprintf(buffer,"%d\r\n", encoder_ticks()); 
9d002c04:	0f4027b2 	jal	9d009ec8 <encoder_ticks>
9d002c08:	00000000 	nop

9d002c0c <.LVL164>:
9d002c0c:	27a40018 	addiu	a0,sp,24
9d002c10:	3c039d01 	lui	v1,0x9d01
9d002c14:	2465bc54 	addiu	a1,v1,-17324
9d002c18:	0f402e38 	jal	9d00b8e0 <_sprintf_cdfFnopsuxX>
9d002c1c:	00403021 	move	a2,v0

9d002c20 <.LVL165>:
        NU32_WriteUART3(buffer);
9d002c20:	0f402653 	jal	9d00994c <NU32_WriteUART3>
9d002c24:	27a40018 	addiu	a0,sp,24

9d002c28 <.LVL166>:
        break;
9d002c28:	0b400ac0 	j	9d002b00 <.LVL156+0x34>
9d002c2c:	27a40018 	addiu	a0,sp,24
      }
      case 'd':                      
      // read encoder (degs)
      {
        sprintf(buffer,"%d\r\n", encoder_angle()); 
9d002c30:	0f4027bb 	jal	9d009eec <encoder_angle>
9d002c34:	00000000 	nop

9d002c38 <.LVL167>:
9d002c38:	27a40018 	addiu	a0,sp,24
9d002c3c:	3c039d01 	lui	v1,0x9d01
9d002c40:	2465bc54 	addiu	a1,v1,-17324
9d002c44:	0f402e38 	jal	9d00b8e0 <_sprintf_cdfFnopsuxX>
9d002c48:	00403021 	move	a2,v0

9d002c4c <.LVL168>:
        NU32_WriteUART3(buffer);
9d002c4c:	0f402653 	jal	9d00994c <NU32_WriteUART3>
9d002c50:	27a40018 	addiu	a0,sp,24

9d002c54 <.LVL169>:
        break;
9d002c54:	0b400ac0 	j	9d002b00 <.LVL156+0x34>
9d002c58:	27a40018 	addiu	a0,sp,24
      }
      case 'e':     
      // reset encoder                
      {
        encoder_reset();
9d002c5c:	0f4027d2 	jal	9d009f48 <encoder_reset>
9d002c60:	00000000 	nop

9d002c64 <.LVL170>:
        sprintf(buffer,"%d\r\n", encoder_angle()); 
9d002c64:	0f4027bb 	jal	9d009eec <encoder_angle>
9d002c68:	00000000 	nop

9d002c6c <.LVL171>:
9d002c6c:	27a40018 	addiu	a0,sp,24
9d002c70:	3c039d01 	lui	v1,0x9d01
9d002c74:	2465bc54 	addiu	a1,v1,-17324
9d002c78:	0f402e38 	jal	9d00b8e0 <_sprintf_cdfFnopsuxX>
9d002c7c:	00403021 	move	a2,v0

9d002c80 <.LVL172>:
        break;
9d002c80:	0b400ac0 	j	9d002b00 <.LVL156+0x34>
9d002c84:	27a40018 	addiu	a0,sp,24
      }
      case 'f':      
      // set PWM               
      {
        SetMode(PWM);
9d002c88:	0f402bc8 	jal	9d00af20 <SetMode>
9d002c8c:	24040001 	li	a0,1

9d002c90 <.LVL173>:
        NU32_ReadUART3(buffer,BUF_SIZE);
9d002c90:	27a40018 	addiu	a0,sp,24
9d002c94:	0f402636 	jal	9d0098d8 <NU32_ReadUART3>
9d002c98:	240500c8 	li	a1,200

9d002c9c <.LVL174>:
        sscanf(buffer, "%d", &speed);
9d002c9c:	27a40018 	addiu	a0,sp,24
9d002ca0:	3c059d01 	lui	a1,0x9d01
9d002ca4:	24a5bc64 	addiu	a1,a1,-17308
9d002ca8:	0f402e1b 	jal	9d00b86c <_sscanf_cdfFnopuxX>
9d002cac:	27868058 	addiu	a2,gp,-32680

9d002cb0 <.LVL175>:
        break;
9d002cb0:	0b400ac0 	j	9d002b00 <.LVL156+0x34>
9d002cb4:	27a40018 	addiu	a0,sp,24
      }
      case 'g':                     
       // set current gains
      {
        NU32_ReadUART3(buffer,BUF_SIZE);
9d002cb8:	27a40018 	addiu	a0,sp,24
9d002cbc:	0f402636 	jal	9d0098d8 <NU32_ReadUART3>
9d002cc0:	240500c8 	li	a1,200

9d002cc4 <.LVL176>:
        sscanf(buffer, "%f", &Kptemp);
9d002cc4:	27a40018 	addiu	a0,sp,24
9d002cc8:	02202821 	move	a1,s1
9d002ccc:	0f402e1b 	jal	9d00b86c <_sscanf_cdfFnopuxX>
9d002cd0:	27a600e0 	addiu	a2,sp,224

9d002cd4 <.LVL177>:
        NU32_ReadUART3(buffer,BUF_SIZE);
9d002cd4:	27a40018 	addiu	a0,sp,24
9d002cd8:	0f402636 	jal	9d0098d8 <NU32_ReadUART3>
9d002cdc:	240500c8 	li	a1,200

9d002ce0 <.LVL178>:
        sscanf(buffer, "%f", &Kitemp);
9d002ce0:	27a40018 	addiu	a0,sp,24
9d002ce4:	02202821 	move	a1,s1
9d002ce8:	0f402e1b 	jal	9d00b86c <_sscanf_cdfFnopuxX>
9d002cec:	27a600e4 	addiu	a2,sp,228

9d002cf0 <.LVL179>:
        __builtin_disable_interrupts(); 
9d002cf0:	41626000 	di	v0
9d002cf4:	000000c0 	ehb
        Kpcurrent = Kptemp;
9d002cf8:	8fa200e0 	lw	v0,224(sp)
9d002cfc:	af828020 	sw	v0,-32736(gp)
        Kicurrent = Kitemp;
9d002d00:	8fa200e4 	lw	v0,228(sp)
9d002d04:	af82801c 	sw	v0,-32740(gp)
        __builtin_enable_interrupts();  
9d002d08:	41626020 	ei	v0
        break;
9d002d0c:	0b400ac0 	j	9d002b00 <.LVL156+0x34>
9d002d10:	27a40018 	addiu	a0,sp,24
      }
      case 'h':    
      {                  
      // get current gains
        sprintf(buffer,"%f\r\n", Kpcurrent); 
9d002d14:	8f868020 	lw	a2,-32736(gp)
9d002d18:	27a40018 	addiu	a0,sp,24
9d002d1c:	3c109d01 	lui	s0,0x9d01
9d002d20:	0f402e38 	jal	9d00b8e0 <_sprintf_cdfFnopsuxX>
9d002d24:	2605bc5c 	addiu	a1,s0,-17316

9d002d28 <.LVL180>:
        NU32_WriteUART3(buffer);
9d002d28:	0f402653 	jal	9d00994c <NU32_WriteUART3>
9d002d2c:	27a40018 	addiu	a0,sp,24

9d002d30 <.LVL181>:
        sprintf(buffer,"%f\r\n", Kicurrent); 
9d002d30:	8f86801c 	lw	a2,-32740(gp)
9d002d34:	27a40018 	addiu	a0,sp,24
9d002d38:	0f402e38 	jal	9d00b8e0 <_sprintf_cdfFnopsuxX>
9d002d3c:	2605bc5c 	addiu	a1,s0,-17316

9d002d40 <.LVL182>:
        NU32_WriteUART3(buffer);
9d002d40:	0f402653 	jal	9d00994c <NU32_WriteUART3>
9d002d44:	27a40018 	addiu	a0,sp,24

9d002d48 <.LVL183>:
        break;
9d002d48:	0b400ac0 	j	9d002b00 <.LVL156+0x34>
9d002d4c:	27a40018 	addiu	a0,sp,24
      }
      case 'i':                      
      // set position gains
      {
        NU32_ReadUART3(buffer,BUF_SIZE);
9d002d50:	27a40018 	addiu	a0,sp,24
9d002d54:	0f402636 	jal	9d0098d8 <NU32_ReadUART3>
9d002d58:	240500c8 	li	a1,200

9d002d5c <.LVL184>:
        sscanf(buffer, "%f", &Kptemp);
9d002d5c:	27a40018 	addiu	a0,sp,24
9d002d60:	02202821 	move	a1,s1
9d002d64:	0f402e1b 	jal	9d00b86c <_sscanf_cdfFnopuxX>
9d002d68:	27a600e0 	addiu	a2,sp,224

9d002d6c <.LVL185>:
        NU32_ReadUART3(buffer,BUF_SIZE);
9d002d6c:	27a40018 	addiu	a0,sp,24
9d002d70:	0f402636 	jal	9d0098d8 <NU32_ReadUART3>
9d002d74:	240500c8 	li	a1,200

9d002d78 <.LVL186>:
        sscanf(buffer, "%f", &Kitemp);
9d002d78:	27a40018 	addiu	a0,sp,24
9d002d7c:	02202821 	move	a1,s1
9d002d80:	0f402e1b 	jal	9d00b86c <_sscanf_cdfFnopuxX>
9d002d84:	27a600e4 	addiu	a2,sp,228

9d002d88 <.LVL187>:
        NU32_ReadUART3(buffer,BUF_SIZE);
9d002d88:	27a40018 	addiu	a0,sp,24
9d002d8c:	0f402636 	jal	9d0098d8 <NU32_ReadUART3>
9d002d90:	240500c8 	li	a1,200

9d002d94 <.LVL188>:
        sscanf(buffer, "%f", &Kdtemp);
9d002d94:	27a40018 	addiu	a0,sp,24
9d002d98:	02202821 	move	a1,s1
9d002d9c:	0f402e1b 	jal	9d00b86c <_sscanf_cdfFnopuxX>
9d002da0:	27a600e8 	addiu	a2,sp,232

9d002da4 <.LVL189>:
        
        __builtin_disable_interrupts(); 
9d002da4:	41626000 	di	v0
9d002da8:	000000c0 	ehb
        Kp_pos = Kptemp;
9d002dac:	8fa200e0 	lw	v0,224(sp)
9d002db0:	af828018 	sw	v0,-32744(gp)
        Ki_pos = Kitemp;
9d002db4:	8fa200e4 	lw	v0,228(sp)
9d002db8:	af828050 	sw	v0,-32688(gp)
        Kd_pos = Kdtemp;
9d002dbc:	8fa200e8 	lw	v0,232(sp)
9d002dc0:	af828014 	sw	v0,-32748(gp)
        __builtin_enable_interrupts(); 
9d002dc4:	41626020 	ei	v0
       
        break;
9d002dc8:	0b400ac0 	j	9d002b00 <.LVL156+0x34>
9d002dcc:	27a40018 	addiu	a0,sp,24
      }
      case 'j':                      
      // get position gains
      {
       sprintf(buffer,"%f\r\n", Kp_pos); 
9d002dd0:	8f868018 	lw	a2,-32744(gp)
9d002dd4:	27a40018 	addiu	a0,sp,24
9d002dd8:	3c109d01 	lui	s0,0x9d01
9d002ddc:	0f402e38 	jal	9d00b8e0 <_sprintf_cdfFnopsuxX>
9d002de0:	2605bc5c 	addiu	a1,s0,-17316

9d002de4 <.LVL190>:
       NU32_WriteUART3(buffer);
9d002de4:	0f402653 	jal	9d00994c <NU32_WriteUART3>
9d002de8:	27a40018 	addiu	a0,sp,24

9d002dec <.LVL191>:
       sprintf(buffer,"%f\r\n", Ki_pos);
9d002dec:	8f868050 	lw	a2,-32688(gp)
9d002df0:	27a40018 	addiu	a0,sp,24
9d002df4:	0f402e38 	jal	9d00b8e0 <_sprintf_cdfFnopsuxX>
9d002df8:	2605bc5c 	addiu	a1,s0,-17316

9d002dfc <.LVL192>:
       NU32_WriteUART3(buffer);
9d002dfc:	0f402653 	jal	9d00994c <NU32_WriteUART3>
9d002e00:	27a40018 	addiu	a0,sp,24

9d002e04 <.LVL193>:
       sprintf(buffer,"%f\r\n", Kd_pos); 
9d002e04:	8f868014 	lw	a2,-32748(gp)
9d002e08:	27a40018 	addiu	a0,sp,24
9d002e0c:	0f402e38 	jal	9d00b8e0 <_sprintf_cdfFnopsuxX>
9d002e10:	2605bc5c 	addiu	a1,s0,-17316

9d002e14 <.LVL194>:
       NU32_WriteUART3(buffer);
9d002e14:	0f402653 	jal	9d00994c <NU32_WriteUART3>
9d002e18:	27a40018 	addiu	a0,sp,24

9d002e1c <.LVL195>:
        break;
9d002e1c:	0b400ac0 	j	9d002b00 <.LVL156+0x34>
9d002e20:	27a40018 	addiu	a0,sp,24

9d002e24 <.LBB9>:
      }
      case 'k':                      
      // current test mode
       {
        int i = 0;
        eint_current = 0;
9d002e24:	af808048 	sw	zero,-32696(gp)
        storingData = 1;
9d002e28:	24020001 	li	v0,1
9d002e2c:	af828030 	sw	v0,-32720(gp)
        SetMode(ITEST);
9d002e30:	0f402bc8 	jal	9d00af20 <SetMode>
9d002e34:	24040002 	li	a0,2

9d002e38 <.LVL197>:
        while (storingData) {
9d002e38:	8f828030 	lw	v0,-32720(gp)
9d002e3c:	1440fffe 	bnez	v0,9d002e38 <.LVL197>
9d002e40:	00000000 	nop
         ;
        }
        __builtin_disable_interrupts();
9d002e44:	41626000 	di	v0
9d002e48:	000000c0 	ehb
        break;
      }
      case 'k':                      
      // current test mode
       {
        int i = 0;
9d002e4c:	00008021 	move	s0,zero
        while (storingData) {
         ;
        }
        __builtin_disable_interrupts();
        for (; i < ITEST_SIZE; ++i) {
          sprintf(buffer,"%d %d %d\r\n", ITEST_SIZE-i, reference_current_array[i], actual_current_array[i]);
9d002e50:	3c15a000 	lui	s5,0xa000
9d002e54:	26b54064 	addiu	s5,s5,16484
9d002e58:	3c14a000 	lui	s4,0xa000
9d002e5c:	26943ed4 	addiu	s4,s4,16084
9d002e60:	24120064 	li	s2,100
9d002e64:	3c139d01 	lui	s3,0x9d01
9d002e68:	2673bc6c 	addiu	s3,s3,-17300
9d002e6c:	00101080 	sll	v0,s0,0x2
9d002e70:	00551821 	addu	v1,v0,s5
9d002e74:	8c670000 	lw	a3,0(v1)
9d002e78:	00541021 	addu	v0,v0,s4
9d002e7c:	8c420000 	lw	v0,0(v0)
9d002e80:	afa20010 	sw	v0,16(sp)
9d002e84:	27a40018 	addiu	a0,sp,24
9d002e88:	02602821 	move	a1,s3
9d002e8c:	0f402e38 	jal	9d00b8e0 <_sprintf_cdfFnopsuxX>
9d002e90:	02503023 	subu	a2,s2,s0

9d002e94 <.LVL199>:
          NU32_WriteUART3(buffer);
9d002e94:	0f402653 	jal	9d00994c <NU32_WriteUART3>
9d002e98:	27a40018 	addiu	a0,sp,24

9d002e9c <.LVL200>:
        SetMode(ITEST);
        while (storingData) {
         ;
        }
        __builtin_disable_interrupts();
        for (; i < ITEST_SIZE; ++i) {
9d002e9c:	26100001 	addiu	s0,s0,1
9d002ea0:	1612fff3 	bne	s0,s2,9d002e70 <.LVL197+0x38>
9d002ea4:	00101080 	sll	v0,s0,0x2
          sprintf(buffer,"%d %d %d\r\n", ITEST_SIZE-i, reference_current_array[i], actual_current_array[i]);
          NU32_WriteUART3(buffer);
        }
        __builtin_enable_interrupts();
9d002ea8:	41626020 	ei	v0
        break;
9d002eac:	0b400ac0 	j	9d002b00 <.LVL156+0x34>
9d002eb0:	27a40018 	addiu	a0,sp,24

9d002eb4 <.LBE9>:
      }
      case 'l':                      
      // go to motor angle
      {
       eint_current = 0;
9d002eb4:	af808048 	sw	zero,-32696(gp)
       eint_pos = 0;
9d002eb8:	af808044 	sw	zero,-32700(gp)
       error_prev = 0;
9d002ebc:	00001021 	move	v0,zero
9d002ec0:	af828040 	sw	v0,-32704(gp)
       desired_current = 0;
9d002ec4:	af82804c 	sw	v0,-32692(gp)
       NU32_ReadUART3(buffer,BUF_SIZE);
9d002ec8:	27a40018 	addiu	a0,sp,24
9d002ecc:	0f402636 	jal	9d0098d8 <NU32_ReadUART3>
9d002ed0:	240500c8 	li	a1,200

9d002ed4 <.LVL203>:
       sscanf(buffer, "%f", &angle);
9d002ed4:	27a40018 	addiu	a0,sp,24
9d002ed8:	02202821 	move	a1,s1
9d002edc:	0f402e1b 	jal	9d00b86c <_sscanf_cdfFnopuxX>
9d002ee0:	27a600ec 	addiu	a2,sp,236

9d002ee4 <.LVL204>:
       
       __builtin_disable_interrupts(); 
9d002ee4:	41626000 	di	v0
9d002ee8:	000000c0 	ehb
       desired_angle = angle;
9d002eec:	8fa200ec 	lw	v0,236(sp)
9d002ef0:	af828054 	sw	v0,-32684(gp)
       __builtin_enable_interrupts(); 
9d002ef4:	41626020 	ei	v0
       SetMode(HOLD);
9d002ef8:	0f402bc8 	jal	9d00af20 <SetMode>
9d002efc:	24040003 	li	a0,3

9d002f00 <.LVL205>:
        break;
9d002f00:	0b400ac0 	j	9d002b00 <.LVL156+0x34>
9d002f04:	27a40018 	addiu	a0,sp,24

9d002f08 <.LBB10>:
      }
      case 'm':
      {
      //load step trajectory
        SetMode(IDLE);
9d002f08:	0f402bc8 	jal	9d00af20 <SetMode>
9d002f0c:	00002021 	move	a0,zero

9d002f10 <.LVL206>:
        int size;
        NU32_ReadUART3(buffer,BUF_SIZE);
9d002f10:	27a40018 	addiu	a0,sp,24
9d002f14:	0f402636 	jal	9d0098d8 <NU32_ReadUART3>
9d002f18:	240500c8 	li	a1,200

9d002f1c <.LVL207>:
        sscanf(buffer, "%d", &size);
9d002f1c:	27a40018 	addiu	a0,sp,24
9d002f20:	3c059d01 	lui	a1,0x9d01
9d002f24:	24a5bc64 	addiu	a1,a1,-17308
9d002f28:	0f402e1b 	jal	9d00b86c <_sscanf_cdfFnopuxX>
9d002f2c:	27a600f4 	addiu	a2,sp,244

9d002f30 <.LVL208>:
        
        __builtin_disable_interrupts();
9d002f30:	41626000 	di	v0
9d002f34:	000000c0 	ehb
        TrajSize = size;
9d002f38:	8fa200f4 	lw	v0,244(sp)
9d002f3c:	af82803c 	sw	v0,-32708(gp)
        
        int j;
        float temp;
        for (j = 0; j < TrajSize; j++) {
9d002f40:	8f82803c 	lw	v0,-32708(gp)
9d002f44:	18400014 	blez	v0,9d002f98 <.LVL212+0x24>
9d002f48:	00000000 	nop
9d002f4c:	00008021 	move	s0,zero
          NU32_ReadUART3(buffer,BUF_SIZE);
          sscanf(buffer, "%f", &temp);
          Traj[j] = temp;
9d002f50:	3c12a000 	lui	s2,0xa000
9d002f54:	26521f94 	addiu	s2,s2,8084
        TrajSize = size;
        
        int j;
        float temp;
        for (j = 0; j < TrajSize; j++) {
          NU32_ReadUART3(buffer,BUF_SIZE);
9d002f58:	27a40018 	addiu	a0,sp,24
9d002f5c:	0f402636 	jal	9d0098d8 <NU32_ReadUART3>
9d002f60:	240500c8 	li	a1,200

9d002f64 <.LVL211>:
          sscanf(buffer, "%f", &temp);
9d002f64:	27a40018 	addiu	a0,sp,24
9d002f68:	02202821 	move	a1,s1
9d002f6c:	0f402e1b 	jal	9d00b86c <_sscanf_cdfFnopuxX>
9d002f70:	27a600f0 	addiu	a2,sp,240

9d002f74 <.LVL212>:
          Traj[j] = temp;
9d002f74:	00101080 	sll	v0,s0,0x2
9d002f78:	00521021 	addu	v0,v0,s2
9d002f7c:	8fa300f0 	lw	v1,240(sp)
9d002f80:	ac430000 	sw	v1,0(v0)
        __builtin_disable_interrupts();
        TrajSize = size;
        
        int j;
        float temp;
        for (j = 0; j < TrajSize; j++) {
9d002f84:	26100001 	addiu	s0,s0,1
9d002f88:	8f82803c 	lw	v0,-32708(gp)
9d002f8c:	0202102a 	slt	v0,s0,v0
9d002f90:	5440fff2 	bnezl	v0,9d002f5c <.LVL208+0x2c>
9d002f94:	27a40018 	addiu	a0,sp,24
          NU32_ReadUART3(buffer,BUF_SIZE);
          sscanf(buffer, "%f", &temp);
          Traj[j] = temp;
        }
        __builtin_enable_interrupts();
9d002f98:	41626020 	ei	v0

9d002f9c <.LBE10>:
  float Kdtemp = 0;
  float angle = 0;

  while(1)
  {
    NU32_ReadUART3(buffer,BUF_SIZE); 
9d002f9c:	0b400ac0 	j	9d002b00 <.LVL156+0x34>
9d002fa0:	27a40018 	addiu	a0,sp,24
        break;
      }
      case 'n':
      //load cubic trajectory
      {
        SetMode(IDLE);
9d002fa4:	0f402bc8 	jal	9d00af20 <SetMode>
9d002fa8:	00002021 	move	a0,zero

9d002fac <.LVL215>:
        int size;
        NU32_ReadUART3(buffer,BUF_SIZE);
9d002fac:	27a40018 	addiu	a0,sp,24
9d002fb0:	0f402636 	jal	9d0098d8 <NU32_ReadUART3>
9d002fb4:	240500c8 	li	a1,200

9d002fb8 <.LVL216>:
        sscanf(buffer, "%d", &size);
9d002fb8:	27a40018 	addiu	a0,sp,24
9d002fbc:	3c059d01 	lui	a1,0x9d01
9d002fc0:	24a5bc64 	addiu	a1,a1,-17308
9d002fc4:	0f402e1b 	jal	9d00b86c <_sscanf_cdfFnopuxX>
9d002fc8:	27a600f4 	addiu	a2,sp,244

9d002fcc <.LVL217>:
        __builtin_disable_interrupts();
9d002fcc:	41626000 	di	v0
9d002fd0:	000000c0 	ehb
        TrajSize = size;
9d002fd4:	8fa200f4 	lw	v0,244(sp)
9d002fd8:	af82803c 	sw	v0,-32708(gp)
        int i;
        float temp;
        for (i = 0; i < TrajSize; i++) {
9d002fdc:	8f82803c 	lw	v0,-32708(gp)
9d002fe0:	18400014 	blez	v0,9d003034 <.LVL221+0x24>
9d002fe4:	00000000 	nop
9d002fe8:	00008021 	move	s0,zero
          NU32_ReadUART3(buffer,BUF_SIZE);
          sscanf(buffer, "%f", &temp);
          Traj[i] = temp;
9d002fec:	3c12a000 	lui	s2,0xa000
9d002ff0:	26521f94 	addiu	s2,s2,8084
        __builtin_disable_interrupts();
        TrajSize = size;
        int i;
        float temp;
        for (i = 0; i < TrajSize; i++) {
          NU32_ReadUART3(buffer,BUF_SIZE);
9d002ff4:	27a40018 	addiu	a0,sp,24
9d002ff8:	0f402636 	jal	9d0098d8 <NU32_ReadUART3>
9d002ffc:	240500c8 	li	a1,200

9d003000 <.LVL220>:
          sscanf(buffer, "%f", &temp);
9d003000:	27a40018 	addiu	a0,sp,24
9d003004:	02202821 	move	a1,s1
9d003008:	0f402e1b 	jal	9d00b86c <_sscanf_cdfFnopuxX>
9d00300c:	27a600f0 	addiu	a2,sp,240

9d003010 <.LVL221>:
          Traj[i] = temp;
9d003010:	00101080 	sll	v0,s0,0x2
9d003014:	00521021 	addu	v0,v0,s2
9d003018:	8fa300f0 	lw	v1,240(sp)
9d00301c:	ac430000 	sw	v1,0(v0)
        sscanf(buffer, "%d", &size);
        __builtin_disable_interrupts();
        TrajSize = size;
        int i;
        float temp;
        for (i = 0; i < TrajSize; i++) {
9d003020:	26100001 	addiu	s0,s0,1
9d003024:	8f82803c 	lw	v0,-32708(gp)
9d003028:	0202102a 	slt	v0,s0,v0
9d00302c:	5440fff2 	bnezl	v0,9d002ff8 <.LVL217+0x2c>
9d003030:	27a40018 	addiu	a0,sp,24
          NU32_ReadUART3(buffer,BUF_SIZE);
          sscanf(buffer, "%f", &temp);
          Traj[i] = temp;
        }
        __builtin_enable_interrupts();
9d003034:	41626020 	ei	v0
  float Kdtemp = 0;
  float angle = 0;

  while(1)
  {
    NU32_ReadUART3(buffer,BUF_SIZE); 
9d003038:	0b400ac0 	j	9d002b00 <.LVL156+0x34>
9d00303c:	27a40018 	addiu	a0,sp,24
        break;
      }
      case 'o':
      {
      //execute trajectory
       eint_current = 0;
9d003040:	af808048 	sw	zero,-32696(gp)
       eint_pos = 0;
9d003044:	af808044 	sw	zero,-32700(gp)
       error_prev = 0;
9d003048:	00001821 	move	v1,zero
9d00304c:	af838040 	sw	v1,-32704(gp)
       desired_current = 0;
9d003050:	af83804c 	sw	v1,-32692(gp)
       TrackingTraj = 1;
9d003054:	24020001 	li	v0,1
9d003058:	af828034 	sw	v0,-32716(gp)
       SetMode(TRACK);
9d00305c:	0f402bc8 	jal	9d00af20 <SetMode>
9d003060:	24040004 	li	a0,4

9d003064 <.LVL224>:
       while (TrackingTraj) {
9d003064:	8f828034 	lw	v0,-32716(gp)
9d003068:	1440fffe 	bnez	v0,9d003064 <.LVL224>
9d00306c:	00000000 	nop
          ;
        }
        SetMode(HOLD);
9d003070:	0f402bc8 	jal	9d00af20 <SetMode>
9d003074:	24040003 	li	a0,3

9d003078 <.LVL225>:
        
        __builtin_disable_interrupts();
9d003078:	41626000 	di	v0
9d00307c:	000000c0 	ehb
        sprintf(buffer,"%d\r\n", TrajSize);
9d003080:	8f86803c 	lw	a2,-32708(gp)
9d003084:	27a40018 	addiu	a0,sp,24
9d003088:	3c029d01 	lui	v0,0x9d01
9d00308c:	0f402e38 	jal	9d00b8e0 <_sprintf_cdfFnopsuxX>
9d003090:	2445bc54 	addiu	a1,v0,-17324

9d003094 <.LVL226>:
        NU32_WriteUART3(buffer);
9d003094:	0f402653 	jal	9d00994c <NU32_WriteUART3>
9d003098:	27a40018 	addiu	a0,sp,24

9d00309c <.LVL227>:
        int j;
        __builtin_disable_interrupts();
9d00309c:	41626000 	di	v0
9d0030a0:	000000c0 	ehb
        for (j = 0; j < TrajSize; j++) {
9d0030a4:	8f82803c 	lw	v0,-32708(gp)
9d0030a8:	18400015 	blez	v0,9d003100 <.LVL231+0x14>
9d0030ac:	00000000 	nop
9d0030b0:	00008021 	move	s0,zero
          sprintf(buffer,"%f %f\r\n", Traj[j], measuredTraj[j]);
9d0030b4:	3c13a000 	lui	s3,0xa000
9d0030b8:	26731f94 	addiu	s3,s3,8084
9d0030bc:	3c12a000 	lui	s2,0xa000
9d0030c0:	26520054 	addiu	s2,s2,84
9d0030c4:	00101080 	sll	v0,s0,0x2
9d0030c8:	00531821 	addu	v1,v0,s3
9d0030cc:	8c660000 	lw	a2,0(v1)
9d0030d0:	00521021 	addu	v0,v0,s2
9d0030d4:	8c470000 	lw	a3,0(v0)
9d0030d8:	27a40018 	addiu	a0,sp,24
9d0030dc:	0f402e38 	jal	9d00b8e0 <_sprintf_cdfFnopsuxX>
9d0030e0:	02c02821 	move	a1,s6

9d0030e4 <.LVL230>:
          NU32_WriteUART3(buffer);
9d0030e4:	0f402653 	jal	9d00994c <NU32_WriteUART3>
9d0030e8:	27a40018 	addiu	a0,sp,24

9d0030ec <.LVL231>:
        __builtin_disable_interrupts();
        sprintf(buffer,"%d\r\n", TrajSize);
        NU32_WriteUART3(buffer);
        int j;
        __builtin_disable_interrupts();
        for (j = 0; j < TrajSize; j++) {
9d0030ec:	26100001 	addiu	s0,s0,1
9d0030f0:	8f82803c 	lw	v0,-32708(gp)
9d0030f4:	0202102a 	slt	v0,s0,v0
9d0030f8:	1440fff3 	bnez	v0,9d0030c8 <.LVL227+0x2c>
9d0030fc:	00101080 	sll	v0,s0,0x2
          sprintf(buffer,"%f %f\r\n", Traj[j], measuredTraj[j]);
          NU32_WriteUART3(buffer);
        }
        __builtin_enable_interrupts();
9d003100:	41626020 	ei	v0
        break;
9d003104:	0b400ac0 	j	9d002b00 <.LVL156+0x34>
9d003108:	27a40018 	addiu	a0,sp,24
      }
      case 'p':
      {
      //set mode to idle
        SetMode(IDLE);
9d00310c:	0f402bc8 	jal	9d00af20 <SetMode>
9d003110:	00002021 	move	a0,zero

9d003114 <.LVL234>:
        speed = 0;
9d003114:	af808058 	sw	zero,-32680(gp)
        break;
9d003118:	0b400ac0 	j	9d002b00 <.LVL156+0x34>
9d00311c:	27a40018 	addiu	a0,sp,24
      }
      case 'q':
      {
      //quit commands, set to IDLE
        SetMode(IDLE);
9d003120:	0f402bc8 	jal	9d00af20 <SetMode>
9d003124:	00002021 	move	a0,zero

9d003128 <.LVL235>:
        break;
9d003128:	0b400ac0 	j	9d002b00 <.LVL156+0x34>
9d00312c:	27a40018 	addiu	a0,sp,24
      }
      case 'r':
      {
        // Get Mode
        sprintf(buffer,"%s\r\n", get_mode_str());
9d003130:	0f402ba8 	jal	9d00aea0 <get_mode_str>
9d003134:	00000000 	nop

9d003138 <.LVL236>:
9d003138:	27a40018 	addiu	a0,sp,24
9d00313c:	3c059d01 	lui	a1,0x9d01
9d003140:	24a5bc80 	addiu	a1,a1,-17280
9d003144:	0f402e38 	jal	9d00b8e0 <_sprintf_cdfFnopsuxX>
9d003148:	00403021 	move	a2,v0

9d00314c <.LVL237>:
        NU32_WriteUART3(buffer);
9d00314c:	0f402653 	jal	9d00994c <NU32_WriteUART3>
9d003150:	27a40018 	addiu	a0,sp,24

9d003154 <.LVL238>:
        break;
9d003154:	0b400ac0 	j	9d002b00 <.LVL156+0x34>
9d003158:	27a40018 	addiu	a0,sp,24
      }
      case 'z':
      {
        sprintf(buffer,"%d\r\n", TrajSize);
9d00315c:	8f86803c 	lw	a2,-32708(gp)
9d003160:	27a40018 	addiu	a0,sp,24
9d003164:	3c039d01 	lui	v1,0x9d01
9d003168:	0f402e38 	jal	9d00b8e0 <_sprintf_cdfFnopsuxX>
9d00316c:	2465bc54 	addiu	a1,v1,-17324

9d003170 <.LVL239>:
        NU32_WriteUART3(buffer);
9d003170:	0f402653 	jal	9d00994c <NU32_WriteUART3>
9d003174:	27a40018 	addiu	a0,sp,24

9d003178 <.LVL240>:
        sprintf(buffer,"%d\r\n", TrajIndex);
9d003178:	8f868038 	lw	a2,-32712(gp)
9d00317c:	27a40018 	addiu	a0,sp,24
9d003180:	3c029d01 	lui	v0,0x9d01
9d003184:	0f402e38 	jal	9d00b8e0 <_sprintf_cdfFnopsuxX>
9d003188:	2445bc54 	addiu	a1,v0,-17324

9d00318c <.LVL241>:
        NU32_WriteUART3(buffer);
9d00318c:	0f402653 	jal	9d00994c <NU32_WriteUART3>
9d003190:	27a40018 	addiu	a0,sp,24

9d003194 <.LVL242>:
        sprintf(buffer,"%f\r\n", Traj[200]);
9d003194:	3c02a000 	lui	v0,0xa000
9d003198:	24421f94 	addiu	v0,v0,8084
9d00319c:	8c460320 	lw	a2,800(v0)
9d0031a0:	27a40018 	addiu	a0,sp,24
9d0031a4:	3c109d01 	lui	s0,0x9d01
9d0031a8:	0f402e38 	jal	9d00b8e0 <_sprintf_cdfFnopsuxX>
9d0031ac:	2605bc5c 	addiu	a1,s0,-17316

9d0031b0 <.LVL243>:
        NU32_WriteUART3(buffer);
9d0031b0:	0f402653 	jal	9d00994c <NU32_WriteUART3>
9d0031b4:	27a40018 	addiu	a0,sp,24

9d0031b8 <.LVL244>:
        sprintf(buffer,"%f\r\n", measuredTraj[200]);
9d0031b8:	3c02a000 	lui	v0,0xa000
9d0031bc:	24420054 	addiu	v0,v0,84
9d0031c0:	8c460320 	lw	a2,800(v0)
9d0031c4:	27a40018 	addiu	a0,sp,24
9d0031c8:	0f402e38 	jal	9d00b8e0 <_sprintf_cdfFnopsuxX>
9d0031cc:	2605bc5c 	addiu	a1,s0,-17316

9d0031d0 <.LVL245>:
        NU32_WriteUART3(buffer);
9d0031d0:	0f402653 	jal	9d00994c <NU32_WriteUART3>
9d0031d4:	27a40018 	addiu	a0,sp,24

9d0031d8 <.LVL246>:
        break;
9d0031d8:	0b400ac0 	j	9d002b00 <.LVL156+0x34>
9d0031dc:	27a40018 	addiu	a0,sp,24
      }
      default:
      {
        NU32_LED2 = 0;  
9d0031e0:	92e26160 	lbu	v0,24928(s7)
9d0031e4:	7c020844 	ins	v0,zero,0x1,0x1
9d0031e8:	a2e26160 	sb	v0,24928(s7)
        break;
9d0031ec:	0b400ac0 	j	9d002b00 <.LVL156+0x34>
9d0031f0:	27a40018 	addiu	a0,sp,24

Disassembly of section .text.do_scan:

9d0031f4 <do_scan>:
9d0031f4:	27bdff00 	addiu	sp,sp,-256
9d0031f8:	afbf00fc 	sw	ra,252(sp)
9d0031fc:	afbe00f8 	sw	s8,248(sp)
9d003200:	afb700f4 	sw	s7,244(sp)
9d003204:	afb600f0 	sw	s6,240(sp)
9d003208:	afb500ec 	sw	s5,236(sp)
9d00320c:	afb400e8 	sw	s4,232(sp)
9d003210:	afb300e4 	sw	s3,228(sp)
9d003214:	afb200e0 	sw	s2,224(sp)
9d003218:	afb100dc 	sw	s1,220(sp)
9d00321c:	afb000d8 	sw	s0,216(sp)
9d003220:	00809821 	move	s3,a0
9d003224:	8c820018 	lw	v0,24(a0)
9d003228:	00a08021 	move	s0,a1
9d00322c:	24050002 	li	a1,2
9d003230:	8c420010 	lw	v0,16(v0)
9d003234:	0040f809 	jalr	v0
9d003238:	00c08821 	move	s1,a2
9d00323c:	104000a2 	beqz	v0,9d0034c8 <do_scan+0x2d4>
9d003240:	2402ffff 	li	v0,-1
9d003244:	afb30098 	sw	s3,152(sp)
9d003248:	afa2009c 	sw	v0,156(sp)
9d00324c:	afb100a4 	sw	s1,164(sp)
9d003250:	afa000ac 	sw	zero,172(sp)
9d003254:	afa000b0 	sw	zero,176(sp)
9d003258:	afa000a8 	sw	zero,168(sp)
9d00325c:	02002821 	move	a1,s0
9d003260:	0000f021 	move	s8,zero
9d003264:	3c109d01 	lui	s0,0x9d01
9d003268:	2610a57d 	addiu	s0,s0,-23171
9d00326c:	3c159d00 	lui	s5,0x9d00
9d003270:	24a20001 	addiu	v0,a1,1
9d003274:	afa200a0 	sw	v0,160(sp)
9d003278:	80b10000 	lb	s1,0(a1)
9d00327c:	12200012 	beqz	s1,9d0032c8 <do_scan+0xd4>
9d003280:	26b533ec 	addiu	s5,s5,13292
9d003284:	17c00010 	bnez	s8,9d0032c8 <do_scan+0xd4>
9d003288:	24020025 	li	v0,37
9d00328c:	12220033 	beq	s1,v0,9d00335c <do_scan+0x168>
9d003290:	02301021 	addu	v0,s1,s0
9d003294:	80420000 	lb	v0,0(v0)
9d003298:	30420088 	andi	v0,v0,0x88
9d00329c:	10400021 	beqz	v0,9d003324 <do_scan+0x130>
9d0032a0:	27a40098 	addiu	a0,sp,152
9d0032a4:	0f402cee 	jal	9d00b3b8 <_eat_white>
9d0032a8:	00000000 	nop
9d0032ac:	0040f021 	move	s8,v0
9d0032b0:	8fa500a0 	lw	a1,160(sp)
9d0032b4:	24a20001 	addiu	v0,a1,1
9d0032b8:	afa200a0 	sw	v0,160(sp)
9d0032bc:	80b10000 	lb	s1,0(a1)
9d0032c0:	1620fff0 	bnez	s1,9d003284 <do_scan+0x90>
9d0032c4:	00000000 	nop
9d0032c8:	8fa4009c 	lw	a0,156(sp)
9d0032cc:	2402ffff 	li	v0,-1
9d0032d0:	10820005 	beq	a0,v0,9d0032e8 <do_scan+0xf4>
9d0032d4:	00000000 	nop
9d0032d8:	96620010 	lhu	v0,16(s3)
9d0032dc:	30420080 	andi	v0,v0,0x80
9d0032e0:	1040008d 	beqz	v0,9d003518 <do_scan+0x324>
9d0032e4:	2402ffff 	li	v0,-1
9d0032e8:	13c20075 	beq	s8,v0,9d0034c0 <do_scan+0x2cc>
9d0032ec:	8fa200ac 	lw	v0,172(sp)
9d0032f0:	8fa200b0 	lw	v0,176(sp)
9d0032f4:	8fbf00fc 	lw	ra,252(sp)
9d0032f8:	8fbe00f8 	lw	s8,248(sp)
9d0032fc:	8fb700f4 	lw	s7,244(sp)
9d003300:	8fb600f0 	lw	s6,240(sp)
9d003304:	8fb500ec 	lw	s5,236(sp)
9d003308:	8fb400e8 	lw	s4,232(sp)
9d00330c:	8fb300e4 	lw	s3,228(sp)
9d003310:	8fb200e0 	lw	s2,224(sp)
9d003314:	8fb100dc 	lw	s1,220(sp)
9d003318:	8fb000d8 	lw	s0,216(sp)
9d00331c:	03e00008 	jr	ra
9d003320:	27bd0100 	addiu	sp,sp,256
9d003324:	0f402ea1 	jal	9d00ba84 <gsgetc>
9d003328:	00000000 	nop
9d00332c:	2403ffff 	li	v1,-1
9d003330:	504301cf 	beql	v0,v1,9d003a70 <do_scan+0x87c>
9d003334:	241effff 	li	s8,-1
9d003338:	5222ffde 	beql	s1,v0,9d0032b4 <do_scan+0xc0>
9d00333c:	8fa500a0 	lw	a1,160(sp)
9d003340:	afa2009c 	sw	v0,156(sp)
9d003344:	241e0001 	li	s8,1
9d003348:	8fa200a8 	lw	v0,168(sp)
9d00334c:	2442ffff 	addiu	v0,v0,-1
9d003350:	afa200a8 	sw	v0,168(sp)
9d003354:	0b400cad 	j	9d0032b4 <do_scan+0xc0>
9d003358:	8fa500a0 	lw	a1,160(sp)
9d00335c:	24a20002 	addiu	v0,a1,2
9d003360:	afa200a0 	sw	v0,160(sp)
9d003364:	80b20001 	lb	s2,1(a1)
9d003368:	125101a2 	beq	s2,s1,9d0039f4 <do_scan+0x800>
9d00336c:	2402002a 	li	v0,42
9d003370:	124200dd 	beq	s2,v0,9d0036e8 <do_scan+0x4f4>
9d003374:	00008821 	move	s1,zero
9d003378:	02121021 	addu	v0,s0,s2
9d00337c:	90420000 	lbu	v0,0(v0)
9d003380:	30420004 	andi	v0,v0,0x4
9d003384:	144000c1 	bnez	v0,9d00368c <do_scan+0x498>
9d003388:	3c167fff 	lui	s6,0x7fff
9d00338c:	36d6ffff 	ori	s6,s6,0xffff
9d003390:	24020068 	li	v0,104
9d003394:	124200cc 	beq	s2,v0,9d0036c8 <do_scan+0x4d4>
9d003398:	afb600d0 	sw	s6,208(sp)
9d00339c:	2a420069 	slti	v0,s2,105
9d0033a0:	144000b2 	bnez	v0,9d00366c <do_scan+0x478>
9d0033a4:	2402006c 	li	v0,108
9d0033a8:	12420054 	beq	s2,v0,9d0034fc <do_scan+0x308>
9d0033ac:	8fa300a0 	lw	v1,160(sp)
9d0033b0:	24020071 	li	v0,113
9d0033b4:	16420005 	bne	s2,v0,9d0033cc <do_scan+0x1d8>
9d0033b8:	8fa200a0 	lw	v0,160(sp)
9d0033bc:	36310800 	ori	s1,s1,0x800
9d0033c0:	24430001 	addiu	v1,v0,1
9d0033c4:	afa300a0 	sw	v1,160(sp)
9d0033c8:	80520000 	lb	s2,0(v0)
9d0033cc:	2652ffbc 	addiu	s2,s2,-68
9d0033d0:	2e420035 	sltiu	v0,s2,53
9d0033d4:	104001bf 	beqz	v0,9d003ad4 <do_scan+0x8e0>
9d0033d8:	00129080 	sll	s2,s2,0x2
9d0033dc:	02b29021 	addu	s2,s5,s2
9d0033e0:	8e420000 	lw	v0,0(s2)
9d0033e4:	00400008 	jr	v0
9d0033e8:	00000000 	nop
9d0033ec:	9d003534 	0x9d003534
9d0033f0:	9d003808 	0x9d003808
9d0033f4:	9d003808 	0x9d003808
9d0033f8:	9d003808 	0x9d003808
9d0033fc:	9d003ad4 	0x9d003ad4
9d003400:	9d003ad4 	0x9d003ad4
9d003404:	9d003ad4 	0x9d003ad4
9d003408:	9d003ad4 	0x9d003ad4
9d00340c:	9d003ad4 	0x9d003ad4
9d003410:	9d003ad4 	0x9d003ad4
9d003414:	9d003ad4 	0x9d003ad4
9d003418:	9d0037f8 	0x9d0037f8
9d00341c:	9d003ad4 	0x9d003ad4
9d003420:	9d003ad4 	0x9d003ad4
9d003424:	9d003ad4 	0x9d003ad4
9d003428:	9d003ad4 	0x9d003ad4
9d00342c:	9d003ad4 	0x9d003ad4
9d003430:	9d0037e8 	0x9d0037e8
9d003434:	9d003ad4 	0x9d003ad4
9d003438:	9d003ad4 	0x9d003ad4
9d00343c:	9d0037dc 	0x9d0037dc
9d003440:	9d003ad4 	0x9d003ad4
9d003444:	9d003ad4 	0x9d003ad4
9d003448:	9d00374c 	0x9d00374c
9d00344c:	9d003ad4 	0x9d003ad4
9d003450:	9d003ad4 	0x9d003ad4
9d003454:	9d003ad4 	0x9d003ad4
9d003458:	9d003ad4 	0x9d003ad4
9d00345c:	9d003ad4 	0x9d003ad4
9d003460:	9d003ad4 	0x9d003ad4
9d003464:	9d003ad4 	0x9d003ad4
9d003468:	9d003708 	0x9d003708
9d00346c:	9d003538 	0x9d003538
9d003470:	9d003808 	0x9d003808
9d003474:	9d003808 	0x9d003808
9d003478:	9d003808 	0x9d003808
9d00347c:	9d003ad4 	0x9d003ad4
9d003480:	9d003774 	0x9d003774
9d003484:	9d003ad4 	0x9d003ad4
9d003488:	9d003ad4 	0x9d003ad4
9d00348c:	9d003ad4 	0x9d003ad4
9d003490:	9d003ad4 	0x9d003ad4
9d003494:	9d003780 	0x9d003780
9d003498:	9d0036fc 	0x9d0036fc
9d00349c:	9d0037dc 	0x9d0037dc
9d0034a0:	9d003ad4 	0x9d003ad4
9d0034a4:	9d003ad4 	0x9d003ad4
9d0034a8:	9d0037bc 	0x9d0037bc
9d0034ac:	9d003ad4 	0x9d003ad4
9d0034b0:	9d00353c 	0x9d00353c
9d0034b4:	9d003ad4 	0x9d003ad4
9d0034b8:	9d003ad4 	0x9d003ad4
9d0034bc:	9d0037dc 	0x9d0037dc
9d0034c0:	1440ff8c 	bnez	v0,9d0032f4 <do_scan+0x100>
9d0034c4:	8fa200b0 	lw	v0,176(sp)
9d0034c8:	2402ffff 	li	v0,-1
9d0034cc:	8fbf00fc 	lw	ra,252(sp)
9d0034d0:	8fbe00f8 	lw	s8,248(sp)
9d0034d4:	8fb700f4 	lw	s7,244(sp)
9d0034d8:	8fb600f0 	lw	s6,240(sp)
9d0034dc:	8fb500ec 	lw	s5,236(sp)
9d0034e0:	8fb400e8 	lw	s4,232(sp)
9d0034e4:	8fb300e4 	lw	s3,228(sp)
9d0034e8:	8fb200e0 	lw	s2,224(sp)
9d0034ec:	8fb100dc 	lw	s1,220(sp)
9d0034f0:	8fb000d8 	lw	s0,216(sp)
9d0034f4:	03e00008 	jr	ra
9d0034f8:	27bd0100 	addiu	sp,sp,256
9d0034fc:	24640001 	addiu	a0,v1,1
9d003500:	afa400a0 	sw	a0,160(sp)
9d003504:	80720000 	lb	s2,0(v1)
9d003508:	12420119 	beq	s2,v0,9d003970 <do_scan+0x77c>
9d00350c:	24620002 	addiu	v0,v1,2
9d003510:	0b400cf3 	j	9d0033cc <do_scan+0x1d8>
9d003514:	36310200 	ori	s1,s1,0x200
9d003518:	0f40284b 	jal	9d00a12c <ungetc>
9d00351c:	8fa50098 	lw	a1,152(sp)
9d003520:	2402ffff 	li	v0,-1
9d003524:	57c2ff73 	bnel	s8,v0,9d0032f4 <do_scan+0x100>
9d003528:	8fa200b0 	lw	v0,176(sp)
9d00352c:	0b400d30 	j	9d0034c0 <do_scan+0x2cc>
9d003530:	8fa200ac 	lw	v0,172(sp)
9d003534:	36310200 	ori	s1,s1,0x200
9d003538:	36311000 	ori	s1,s1,0x1000
9d00353c:	2403000a 	li	v1,10
9d003540:	afa300d4 	sw	v1,212(sp)
9d003544:	0f402cee 	jal	9d00b3b8 <_eat_white>
9d003548:	27a40098 	addiu	a0,sp,152
9d00354c:	1440ff58 	bnez	v0,9d0032b0 <do_scan+0xbc>
9d003550:	0040f021 	move	s8,v0
9d003554:	27a40018 	addiu	a0,sp,24
9d003558:	afa400cc 	sw	a0,204(sp)
9d00355c:	8fa200d0 	lw	v0,208(sp)
9d003560:	1440010b 	bnez	v0,9d003990 <do_scan+0x79c>
9d003564:	00009021 	move	s2,zero
9d003568:	27b60018 	addiu	s6,sp,24
9d00356c:	8fa300d4 	lw	v1,212(sp)
9d003570:	106000fa 	beqz	v1,9d00395c <do_scan+0x768>
9d003574:	2417ffff 	li	s7,-1
9d003578:	24020010 	li	v0,16
9d00357c:	8fa300d4 	lw	v1,212(sp)
9d003580:	1062015a 	beq	v1,v0,9d003aec <do_scan+0x8f8>
9d003584:	24020030 	li	v0,48
9d003588:	24020008 	li	v0,8
9d00358c:	8fa300d4 	lw	v1,212(sp)
9d003590:	146200f5 	bne	v1,v0,9d003968 <do_scan+0x774>
9d003594:	3c029d01 	lui	v0,0x9d01
9d003598:	24030008 	li	v1,8
9d00359c:	afa300d4 	sw	v1,212(sp)
9d0035a0:	3c049d01 	lui	a0,0x9d01
9d0035a4:	2494c04c 	addiu	s4,a0,-16308
9d0035a8:	2403ffff 	li	v1,-1
9d0035ac:	12e30009 	beq	s7,v1,9d0035d4 <do_scan+0x3e0>
9d0035b0:	02802021 	move	a0,s4
9d0035b4:	0f402a20 	jal	9d00a880 <strchr>
9d0035b8:	02e02821 	move	a1,s7
9d0035bc:	1040011d 	beqz	v0,9d003a34 <do_scan+0x840>
9d0035c0:	26c20001 	addiu	v0,s6,1
9d0035c4:	afa200cc 	sw	v0,204(sp)
9d0035c8:	16400121 	bnez	s2,9d003a50 <do_scan+0x85c>
9d0035cc:	a2d70000 	sb	s7,0(s6)
9d0035d0:	8fb600cc 	lw	s6,204(sp)
9d0035d4:	a2c00000 	sb	zero,0(s6)
9d0035d8:	2417ffff 	li	s7,-1
9d0035dc:	32340800 	andi	s4,s1,0x800
9d0035e0:	32361000 	andi	s6,s1,0x1000
9d0035e4:	27a40018 	addiu	a0,sp,24
9d0035e8:	27a500cc 	addiu	a1,sp,204
9d0035ec:	1280010a 	beqz	s4,9d003a18 <do_scan+0x824>
9d0035f0:	8fa600d4 	lw	a2,212(sp)
9d0035f4:	12c00126 	beqz	s6,9d003a90 <do_scan+0x89c>
9d0035f8:	00000000 	nop
9d0035fc:	0f401f00 	jal	9d007c00 <.LFE23>
9d003600:	00000000 	nop
9d003604:	00402021 	move	a0,v0
9d003608:	00602821 	move	a1,v1
9d00360c:	00001021 	move	v0,zero
9d003610:	8fa300ac 	lw	v1,172(sp)
9d003614:	24630001 	addiu	v1,v1,1
9d003618:	afa300ac 	sw	v1,172(sp)
9d00361c:	8fa300d0 	lw	v1,208(sp)
9d003620:	10720115 	beq	v1,s2,9d003a78 <do_scan+0x884>
9d003624:	32230001 	andi	v1,s1,0x1
9d003628:	5460ff22 	bnezl	v1,9d0032b4 <do_scan+0xc0>
9d00362c:	8fa500a0 	lw	a1,160(sp)
9d003630:	56800122 	bnezl	s4,9d003abc <do_scan+0x8c8>
9d003634:	8fa200a4 	lw	v0,164(sp)
9d003638:	32230200 	andi	v1,s1,0x200
9d00363c:	10600171 	beqz	v1,9d003c04 <do_scan+0xa10>
9d003640:	32230100 	andi	v1,s1,0x100
9d003644:	8fa300a4 	lw	v1,164(sp)
9d003648:	24640004 	addiu	a0,v1,4
9d00364c:	afa400a4 	sw	a0,164(sp)
9d003650:	8c630000 	lw	v1,0(v1)
9d003654:	ac620000 	sw	v0,0(v1)
9d003658:	8fa200b0 	lw	v0,176(sp)
9d00365c:	24420001 	addiu	v0,v0,1
9d003660:	afa200b0 	sw	v0,176(sp)
9d003664:	0b400cad 	j	9d0032b4 <do_scan+0xc0>
9d003668:	8fa500a0 	lw	a1,160(sp)
9d00366c:	2402004c 	li	v0,76
9d003670:	1642ff56 	bne	s2,v0,9d0033cc <do_scan+0x1d8>
9d003674:	8fa200a0 	lw	v0,160(sp)
9d003678:	36310400 	ori	s1,s1,0x400
9d00367c:	24430001 	addiu	v1,v0,1
9d003680:	afa300a0 	sw	v1,160(sp)
9d003684:	0b400cf3 	j	9d0033cc <do_scan+0x1d8>
9d003688:	80520000 	lb	s2,0(v0)
9d00368c:	27a500a0 	addiu	a1,sp,160
9d003690:	2406000a 	li	a2,10
9d003694:	8fa200a0 	lw	v0,160(sp)
9d003698:	2442ffff 	addiu	v0,v0,-1
9d00369c:	00402021 	move	a0,v0
9d0036a0:	0f402388 	jal	9d008e20 <strtoul>
9d0036a4:	afa200a0 	sw	v0,160(sp)
9d0036a8:	afa200d0 	sw	v0,208(sp)
9d0036ac:	8fa200a0 	lw	v0,160(sp)
9d0036b0:	24430001 	addiu	v1,v0,1
9d0036b4:	afa300a0 	sw	v1,160(sp)
9d0036b8:	80520000 	lb	s2,0(v0)
9d0036bc:	24020068 	li	v0,104
9d0036c0:	5642ff37 	bnel	s2,v0,9d0033a0 <do_scan+0x1ac>
9d0036c4:	2a420069 	slti	v0,s2,105
9d0036c8:	8fa300a0 	lw	v1,160(sp)
9d0036cc:	24640001 	addiu	a0,v1,1
9d0036d0:	afa400a0 	sw	a0,160(sp)
9d0036d4:	80720000 	lb	s2,0(v1)
9d0036d8:	124200a9 	beq	s2,v0,9d003980 <do_scan+0x78c>
9d0036dc:	24620002 	addiu	v0,v1,2
9d0036e0:	0b400cf3 	j	9d0033cc <do_scan+0x1d8>
9d0036e4:	36310100 	ori	s1,s1,0x100
9d0036e8:	24a20003 	addiu	v0,a1,3
9d0036ec:	afa200a0 	sw	v0,160(sp)
9d0036f0:	80b20002 	lb	s2,2(a1)
9d0036f4:	0b400cde 	j	9d003378 <do_scan+0x184>
9d0036f8:	24110001 	li	s1,1
9d0036fc:	24030008 	li	v1,8
9d003700:	0b400d51 	j	9d003544 <do_scan+0x350>
9d003704:	afa300d4 	sw	v1,212(sp)
9d003708:	3c077fff 	lui	a3,0x7fff
9d00370c:	34e7ffff 	ori	a3,a3,0xffff
9d003710:	8fa400d0 	lw	a0,208(sp)
9d003714:	00873826 	xor	a3,a0,a3
9d003718:	27a20098 	addiu	v0,sp,152
9d00371c:	afa20010 	sw	v0,16(sp)
9d003720:	00002021 	move	a0,zero
9d003724:	00002821 	move	a1,zero
9d003728:	02203021 	move	a2,s1
9d00372c:	24020001 	li	v0,1
9d003730:	8fa300d0 	lw	v1,208(sp)
9d003734:	0047180a 	movz	v1,v0,a3
9d003738:	0f402246 	jal	9d008918 <_strtostr>
9d00373c:	00603821 	move	a3,v1
9d003740:	0040f021 	move	s8,v0
9d003744:	0b400cad 	j	9d0032b4 <do_scan+0xc0>
9d003748:	8fa500a0 	lw	a1,160(sp)
9d00374c:	27a20098 	addiu	v0,sp,152
9d003750:	afa20010 	sw	v0,16(sp)
9d003754:	24040002 	li	a0,2
9d003758:	24050001 	li	a1,1
9d00375c:	02203021 	move	a2,s1
9d003760:	0f402246 	jal	9d008918 <_strtostr>
9d003764:	8fa700d0 	lw	a3,208(sp)
9d003768:	0040f021 	move	s8,v0
9d00376c:	0b400cad 	j	9d0032b4 <do_scan+0xc0>
9d003770:	8fa500a0 	lw	a1,160(sp)
9d003774:	36311000 	ori	s1,s1,0x1000
9d003778:	0b400d51 	j	9d003544 <do_scan+0x350>
9d00377c:	afa000d4 	sw	zero,212(sp)
9d003780:	32220001 	andi	v0,s1,0x1
9d003784:	1440fecb 	bnez	v0,9d0032b4 <do_scan+0xc0>
9d003788:	8fa500a0 	lw	a1,160(sp)
9d00378c:	32230800 	andi	v1,s1,0x800
9d003790:	10600112 	beqz	v1,9d003bdc <do_scan+0x9e8>
9d003794:	8fa200a8 	lw	v0,168(sp)
9d003798:	8fa300a4 	lw	v1,164(sp)
9d00379c:	000227c3 	sra	a0,v0,0x1f
9d0037a0:	24650004 	addiu	a1,v1,4
9d0037a4:	afa500a4 	sw	a1,164(sp)
9d0037a8:	8c630000 	lw	v1,0(v1)
9d0037ac:	ac620000 	sw	v0,0(v1)
9d0037b0:	ac640004 	sw	a0,4(v1)
9d0037b4:	0b400cad 	j	9d0032b4 <do_scan+0xc0>
9d0037b8:	8fa500a0 	lw	a1,160(sp)
9d0037bc:	0f402cee 	jal	9d00b3b8 <_eat_white>
9d0037c0:	27a40098 	addiu	a0,sp,152
9d0037c4:	1440feba 	bnez	v0,9d0032b0 <do_scan+0xbc>
9d0037c8:	0040f021 	move	s8,v0
9d0037cc:	27a30098 	addiu	v1,sp,152
9d0037d0:	afa30010 	sw	v1,16(sp)
9d0037d4:	0b400dd6 	j	9d003758 <do_scan+0x564>
9d0037d8:	24040001 	li	a0,1
9d0037dc:	24030010 	li	v1,16
9d0037e0:	0b400d51 	j	9d003544 <do_scan+0x350>
9d0037e4:	afa300d4 	sw	v1,212(sp)
9d0037e8:	36310200 	ori	s1,s1,0x200
9d0037ec:	2403000a 	li	v1,10
9d0037f0:	0b400d51 	j	9d003544 <do_scan+0x350>
9d0037f4:	afa300d4 	sw	v1,212(sp)
9d0037f8:	36310200 	ori	s1,s1,0x200
9d0037fc:	24030008 	li	v1,8
9d003800:	0b400d51 	j	9d003544 <do_scan+0x350>
9d003804:	afa300d4 	sw	v1,212(sp)
9d003808:	0f402cee 	jal	9d00b3b8 <_eat_white>
9d00380c:	27a40098 	addiu	a0,sp,152
9d003810:	1440fea7 	bnez	v0,9d0032b0 <do_scan+0xbc>
9d003814:	0040f021 	move	s8,v0
9d003818:	8fa400d0 	lw	a0,208(sp)
9d00381c:	afa400b8 	sw	a0,184(sp)
9d003820:	27a20098 	addiu	v0,sp,152
9d003824:	afa200b4 	sw	v0,180(sp)
9d003828:	27a20018 	addiu	v0,sp,24
9d00382c:	afa200bc 	sw	v0,188(sp)
9d003830:	afa000c0 	sw	zero,192(sp)
9d003834:	24020080 	li	v0,128
9d003838:	afa200c4 	sw	v0,196(sp)
9d00383c:	14800109 	bnez	a0,9d003c64 <do_scan+0xa70>
9d003840:	afa000c8 	sw	zero,200(sp)
9d003844:	3c049d01 	lui	a0,0x9d01
9d003848:	2482a57c 	addiu	v0,a0,-23172
9d00384c:	2416ffff 	li	s6,-1
9d003850:	0000a021 	move	s4,zero
9d003854:	0b400e1b 	j	9d00386c <do_scan+0x678>
9d003858:	27b200b4 	addiu	s2,sp,180
9d00385c:	0f402898 	jal	9d00a260 <putget.2773>
9d003860:	02c02021 	move	a0,s6
9d003864:	0040b021 	move	s6,v0
9d003868:	02021021 	addu	v0,s0,v0
9d00386c:	90420000 	lbu	v0,0(v0)
9d003870:	30420004 	andi	v0,v0,0x4
9d003874:	1440fff9 	bnez	v0,9d00385c <do_scan+0x668>
9d003878:	02407821 	move	t7,s2
9d00387c:	2402002e 	li	v0,46
9d003880:	12c20135 	beq	s6,v0,9d003d58 <do_scan+0xb64>
9d003884:	8fa200c8 	lw	v0,200(sp)
9d003888:	00541023 	subu	v0,v0,s4
9d00388c:	18400005 	blez	v0,9d0038a4 <do_scan+0x6b0>
9d003890:	2403ffdf 	li	v1,-33
9d003894:	02c31824 	and	v1,s6,v1
9d003898:	24020045 	li	v0,69
9d00389c:	1062010a 	beq	v1,v0,9d003cc8 <do_scan+0xad4>
9d0038a0:	02407821 	move	t7,s2
9d0038a4:	02407821 	move	t7,s2
9d0038a8:	0f402898 	jal	9d00a260 <putget.2773>
9d0038ac:	00002021 	move	a0,zero
9d0038b0:	2402ffff 	li	v0,-1
9d0038b4:	12c20008 	beq	s6,v0,9d0038d8 <do_scan+0x6e4>
9d0038b8:	8fa200b4 	lw	v0,180(sp)
9d0038bc:	8c430010 	lw	v1,16(v0)
9d0038c0:	8fa400b8 	lw	a0,184(sp)
9d0038c4:	24840001 	addiu	a0,a0,1
9d0038c8:	afa400b8 	sw	a0,184(sp)
9d0038cc:	2463ffff 	addiu	v1,v1,-1
9d0038d0:	ac560004 	sw	s6,4(v0)
9d0038d4:	ac430010 	sw	v1,16(v0)
9d0038d8:	8fa200c8 	lw	v0,200(sp)
9d0038dc:	0054a023 	subu	s4,v0,s4
9d0038e0:	1a8000f7 	blez	s4,9d003cc0 <do_scan+0xacc>
9d0038e4:	8fa200b4 	lw	v0,180(sp)
9d0038e8:	32230001 	andi	v1,s1,0x1
9d0038ec:	8c440014 	lw	a0,20(v0)
9d0038f0:	24840001 	addiu	a0,a0,1
9d0038f4:	14600011 	bnez	v1,9d00393c <do_scan+0x748>
9d0038f8:	ac440014 	sw	a0,20(v0)
9d0038fc:	32230400 	andi	v1,s1,0x400
9d003900:	14600129 	bnez	v1,9d003da8 <do_scan+0xbb4>
9d003904:	00002821 	move	a1,zero
9d003908:	32310200 	andi	s1,s1,0x200
9d00390c:	8c43000c 	lw	v1,12(v0)
9d003910:	8fa400bc 	lw	a0,188(sp)
9d003914:	24660004 	addiu	a2,v1,4
9d003918:	1220011c 	beqz	s1,9d003d8c <do_scan+0xb98>
9d00391c:	ac46000c 	sw	a2,12(v0)
9d003920:	0f40307b 	jal	9d00c1ec <strtod>
9d003924:	8c710000 	lw	s1,0(v1)
9d003928:	ae220000 	sw	v0,0(s1)
9d00392c:	8fa200b4 	lw	v0,180(sp)
9d003930:	8c430018 	lw	v1,24(v0)
9d003934:	24630001 	addiu	v1,v1,1
9d003938:	ac430018 	sw	v1,24(v0)
9d00393c:	8fa400c0 	lw	a0,192(sp)
9d003940:	5080fe5c 	beqzl	a0,9d0032b4 <do_scan+0xc0>
9d003944:	8fa500a0 	lw	a1,160(sp)
9d003948:	0f4022e7 	jal	9d008b9c <free>
9d00394c:	00000000 	nop
9d003950:	0b400cad 	j	9d0032b4 <do_scan+0xc0>
9d003954:	8fa500a0 	lw	a1,160(sp)
9d003958:	2417ffff 	li	s7,-1
9d00395c:	2403000a 	li	v1,10
9d003960:	afa300d4 	sw	v1,212(sp)
9d003964:	3c029d01 	lui	v0,0x9d01
9d003968:	0b400d6a 	j	9d0035a8 <do_scan+0x3b4>
9d00396c:	2454c070 	addiu	s4,v0,-16272
9d003970:	afa200a0 	sw	v0,160(sp)
9d003974:	80720001 	lb	s2,1(v1)
9d003978:	0b400cf3 	j	9d0033cc <do_scan+0x1d8>
9d00397c:	36310800 	ori	s1,s1,0x800
9d003980:	afa200a0 	sw	v0,160(sp)
9d003984:	80720001 	lb	s2,1(v1)
9d003988:	0b400cf3 	j	9d0033cc <do_scan+0x1d8>
9d00398c:	36310080 	ori	s1,s1,0x80
9d003990:	0f402ea1 	jal	9d00ba84 <gsgetc>
9d003994:	27a40098 	addiu	a0,sp,152
9d003998:	0040b821 	move	s7,v0
9d00399c:	2402ffff 	li	v0,-1
9d0039a0:	12e2004f 	beq	s7,v0,9d003ae0 <do_scan+0x8ec>
9d0039a4:	8fa300d0 	lw	v1,208(sp)
9d0039a8:	2402002b 	li	v0,43
9d0039ac:	16e2010c 	bne	s7,v0,9d003de0 <do_scan+0xbec>
9d0039b0:	2472ffff 	addiu	s2,v1,-1
9d0039b4:	8fa200cc 	lw	v0,204(sp)
9d0039b8:	24430001 	addiu	v1,v0,1
9d0039bc:	afa300cc 	sw	v1,204(sp)
9d0039c0:	16400063 	bnez	s2,9d003b50 <do_scan+0x95c>
9d0039c4:	a0570000 	sb	s7,0(v0)
9d0039c8:	8fa300d4 	lw	v1,212(sp)
9d0039cc:	1060ffe2 	beqz	v1,9d003958 <do_scan+0x764>
9d0039d0:	8fb600cc 	lw	s6,204(sp)
9d0039d4:	24020010 	li	v0,16
9d0039d8:	1462feeb 	bne	v1,v0,9d003588 <do_scan+0x394>
9d0039dc:	2417ffff 	li	s7,-1
9d0039e0:	24030010 	li	v1,16
9d0039e4:	afa300d4 	sw	v1,212(sp)
9d0039e8:	3c049d01 	lui	a0,0x9d01
9d0039ec:	0b400d6a 	j	9d0035a8 <do_scan+0x3b4>
9d0039f0:	2494c058 	addiu	s4,a0,-16296
9d0039f4:	0f402ea1 	jal	9d00ba84 <gsgetc>
9d0039f8:	27a40098 	addiu	a0,sp,152
9d0039fc:	2403ffff 	li	v1,-1
9d003a00:	5043001b 	beql	v0,v1,9d003a70 <do_scan+0x87c>
9d003a04:	241effff 	li	s8,-1
9d003a08:	5452fe4e 	bnel	v0,s2,9d003344 <do_scan+0x150>
9d003a0c:	afa2009c 	sw	v0,156(sp)
9d003a10:	0b400cad 	j	9d0032b4 <do_scan+0xc0>
9d003a14:	8fa500a0 	lw	a1,160(sp)
9d003a18:	12c00023 	beqz	s6,9d003aa8 <do_scan+0x8b4>
9d003a1c:	00000000 	nop
9d003a20:	0f402428 	jal	9d0090a0 <strtol>
9d003a24:	00000000 	nop
9d003a28:	00002021 	move	a0,zero
9d003a2c:	0b400d84 	j	9d003610 <do_scan+0x41c>
9d003a30:	00002821 	move	a1,zero
9d003a34:	a2c00000 	sb	zero,0(s6)
9d003a38:	26520001 	addiu	s2,s2,1
9d003a3c:	afb7009c 	sw	s7,156(sp)
9d003a40:	8fa200a8 	lw	v0,168(sp)
9d003a44:	2442ffff 	addiu	v0,v0,-1
9d003a48:	0b400d77 	j	9d0035dc <do_scan+0x3e8>
9d003a4c:	afa200a8 	sw	v0,168(sp)
9d003a50:	0f402ea1 	jal	9d00ba84 <gsgetc>
9d003a54:	27a40098 	addiu	a0,sp,152
9d003a58:	0040b821 	move	s7,v0
9d003a5c:	00021027 	nor	v0,zero,v0
9d003a60:	8fb600cc 	lw	s6,204(sp)
9d003a64:	0002102b 	sltu	v0,zero,v0
9d003a68:	0b400d6a 	j	9d0035a8 <do_scan+0x3b4>
9d003a6c:	02429023 	subu	s2,s2,v0
9d003a70:	0b400cad 	j	9d0032b4 <do_scan+0xc0>
9d003a74:	8fa500a0 	lw	a1,160(sp)
9d003a78:	241effff 	li	s8,-1
9d003a7c:	00174027 	nor	t0,zero,s7
9d003a80:	24020001 	li	v0,1
9d003a84:	0048f00b 	movn	s8,v0,t0
9d003a88:	0b400cad 	j	9d0032b4 <do_scan+0xc0>
9d003a8c:	8fa500a0 	lw	a1,160(sp)
9d003a90:	0f402183 	jal	9d00860c <strtoull>
9d003a94:	00000000 	nop
9d003a98:	00402021 	move	a0,v0
9d003a9c:	00602821 	move	a1,v1
9d003aa0:	0b400d84 	j	9d003610 <do_scan+0x41c>
9d003aa4:	00001021 	move	v0,zero
9d003aa8:	0f402388 	jal	9d008e20 <strtoul>
9d003aac:	00000000 	nop
9d003ab0:	00002021 	move	a0,zero
9d003ab4:	0b400d84 	j	9d003610 <do_scan+0x41c>
9d003ab8:	00002821 	move	a1,zero
9d003abc:	24430004 	addiu	v1,v0,4
9d003ac0:	afa300a4 	sw	v1,164(sp)
9d003ac4:	8c420000 	lw	v0,0(v0)
9d003ac8:	ac440000 	sw	a0,0(v0)
9d003acc:	0b400d96 	j	9d003658 <do_scan+0x464>
9d003ad0:	ac450004 	sw	a1,4(v0)
9d003ad4:	241e0001 	li	s8,1
9d003ad8:	0b400cad 	j	9d0032b4 <do_scan+0xc0>
9d003adc:	8fa500a0 	lw	a1,160(sp)
9d003ae0:	8fb600cc 	lw	s6,204(sp)
9d003ae4:	0b400d5b 	j	9d00356c <do_scan+0x378>
9d003ae8:	8fb200d0 	lw	s2,208(sp)
9d003aec:	16e2ffbd 	bne	s7,v0,9d0039e4 <do_scan+0x7f0>
9d003af0:	24030010 	li	v1,16
9d003af4:	26c20001 	addiu	v0,s6,1
9d003af8:	afa200cc 	sw	v0,204(sp)
9d003afc:	16400004 	bnez	s2,9d003b10 <do_scan+0x91c>
9d003b00:	a2d70000 	sb	s7,0(s6)
9d003b04:	8fb600cc 	lw	s6,204(sp)
9d003b08:	0b400e78 	j	9d0039e0 <do_scan+0x7ec>
9d003b0c:	2417ffff 	li	s7,-1
9d003b10:	0f402ea1 	jal	9d00ba84 <gsgetc>
9d003b14:	27a40098 	addiu	a0,sp,152
9d003b18:	2416ffff 	li	s6,-1
9d003b1c:	1056fff9 	beq	v0,s6,9d003b04 <do_scan+0x910>
9d003b20:	0040b821 	move	s7,v0
9d003b24:	2403ffdf 	li	v1,-33
9d003b28:	00431824 	and	v1,v0,v1
9d003b2c:	24020058 	li	v0,88
9d003b30:	146200a8 	bne	v1,v0,9d003dd4 <do_scan+0xbe0>
9d003b34:	2654ffff 	addiu	s4,s2,-1
9d003b38:	16800080 	bnez	s4,9d003d3c <do_scan+0xb48>
9d003b3c:	00000000 	nop
9d003b40:	8fb600cc 	lw	s6,204(sp)
9d003b44:	00009021 	move	s2,zero
9d003b48:	0b400e78 	j	9d0039e0 <do_scan+0x7ec>
9d003b4c:	2417ffff 	li	s7,-1
9d003b50:	0f402ea1 	jal	9d00ba84 <gsgetc>
9d003b54:	27a40098 	addiu	a0,sp,152
9d003b58:	0040b821 	move	s7,v0
9d003b5c:	2402ffff 	li	v0,-1
9d003b60:	12e2ff9a 	beq	s7,v0,9d0039cc <do_scan+0x7d8>
9d003b64:	8fa300d4 	lw	v1,212(sp)
9d003b68:	8fb600cc 	lw	s6,204(sp)
9d003b6c:	8fa400d0 	lw	a0,208(sp)
9d003b70:	2492fffe 	addiu	s2,a0,-2
9d003b74:	8fa300d4 	lw	v1,212(sp)
9d003b78:	1460fe81 	bnez	v1,9d003580 <do_scan+0x38c>
9d003b7c:	24020010 	li	v0,16
9d003b80:	24020030 	li	v0,48
9d003b84:	16e2ff76 	bne	s7,v0,9d003960 <do_scan+0x76c>
9d003b88:	2403000a 	li	v1,10
9d003b8c:	26c20001 	addiu	v0,s6,1
9d003b90:	afa200cc 	sw	v0,204(sp)
9d003b94:	16400004 	bnez	s2,9d003ba8 <do_scan+0x9b4>
9d003b98:	a2d70000 	sb	s7,0(s6)
9d003b9c:	2417ffff 	li	s7,-1
9d003ba0:	0b400d66 	j	9d003598 <do_scan+0x3a4>
9d003ba4:	8fb600cc 	lw	s6,204(sp)
9d003ba8:	0f402ea1 	jal	9d00ba84 <gsgetc>
9d003bac:	27a40098 	addiu	a0,sp,152
9d003bb0:	2416ffff 	li	s6,-1
9d003bb4:	1056fff9 	beq	v0,s6,9d003b9c <do_scan+0x9a8>
9d003bb8:	0040b821 	move	s7,v0
9d003bbc:	2403ffdf 	li	v1,-33
9d003bc0:	00431824 	and	v1,v0,v1
9d003bc4:	24020058 	li	v0,88
9d003bc8:	1062ffdb 	beq	v1,v0,9d003b38 <do_scan+0x944>
9d003bcc:	2654ffff 	addiu	s4,s2,-1
9d003bd0:	02809021 	move	s2,s4
9d003bd4:	0b400d66 	j	9d003598 <do_scan+0x3a4>
9d003bd8:	8fb600cc 	lw	s6,204(sp)
9d003bdc:	32230200 	andi	v1,s1,0x200
9d003be0:	10600010 	beqz	v1,9d003c24 <do_scan+0xa30>
9d003be4:	32230100 	andi	v1,s1,0x100
9d003be8:	8fa300a4 	lw	v1,164(sp)
9d003bec:	24640004 	addiu	a0,v1,4
9d003bf0:	afa400a4 	sw	a0,164(sp)
9d003bf4:	8c630000 	lw	v1,0(v1)
9d003bf8:	ac620000 	sw	v0,0(v1)
9d003bfc:	0b400cad 	j	9d0032b4 <do_scan+0xc0>
9d003c00:	8fa500a0 	lw	a1,160(sp)
9d003c04:	10600010 	beqz	v1,9d003c48 <do_scan+0xa54>
9d003c08:	32310080 	andi	s1,s1,0x80
9d003c0c:	8fa300a4 	lw	v1,164(sp)
9d003c10:	24640004 	addiu	a0,v1,4
9d003c14:	afa400a4 	sw	a0,164(sp)
9d003c18:	8c630000 	lw	v1,0(v1)
9d003c1c:	0b400d96 	j	9d003658 <do_scan+0x464>
9d003c20:	a4620000 	sh	v0,0(v1)
9d003c24:	1060003d 	beqz	v1,9d003d1c <do_scan+0xb28>
9d003c28:	32310080 	andi	s1,s1,0x80
9d003c2c:	8fa300a4 	lw	v1,164(sp)
9d003c30:	24640004 	addiu	a0,v1,4
9d003c34:	afa400a4 	sw	a0,164(sp)
9d003c38:	8c630000 	lw	v1,0(v1)
9d003c3c:	a4620000 	sh	v0,0(v1)
9d003c40:	0b400cad 	j	9d0032b4 <do_scan+0xc0>
9d003c44:	8fa500a0 	lw	a1,160(sp)
9d003c48:	8fa300a4 	lw	v1,164(sp)
9d003c4c:	24640004 	addiu	a0,v1,4
9d003c50:	afa400a4 	sw	a0,164(sp)
9d003c54:	1220002f 	beqz	s1,9d003d14 <do_scan+0xb20>
9d003c58:	8c630000 	lw	v1,0(v1)
9d003c5c:	0b400d96 	j	9d003658 <do_scan+0x464>
9d003c60:	a0620000 	sb	v0,0(v1)
9d003c64:	0f402ea1 	jal	9d00ba84 <gsgetc>
9d003c68:	27a40098 	addiu	a0,sp,152
9d003c6c:	0040b021 	move	s6,v0
9d003c70:	2402ffff 	li	v0,-1
9d003c74:	52c2fef4 	beql	s6,v0,9d003848 <do_scan+0x654>
9d003c78:	3c049d01 	lui	a0,0x9d01
9d003c7c:	8fa200b8 	lw	v0,184(sp)
9d003c80:	2442ffff 	addiu	v0,v0,-1
9d003c84:	afa200b8 	sw	v0,184(sp)
9d003c88:	2402002b 	li	v0,43
9d003c8c:	56c20059 	bnel	s6,v0,9d003df4 <do_scan+0xc00>
9d003c90:	2402002d 	li	v0,45
9d003c94:	27b200b4 	addiu	s2,sp,180
9d003c98:	02407821 	move	t7,s2
9d003c9c:	0f402898 	jal	9d00a260 <putget.2773>
9d003ca0:	02c02021 	move	a0,s6
9d003ca4:	0040b021 	move	s6,v0
9d003ca8:	24420001 	addiu	v0,v0,1
9d003cac:	3c049d01 	lui	a0,0x9d01
9d003cb0:	2483a57c 	addiu	v1,a0,-23172
9d003cb4:	00621021 	addu	v0,v1,v0
9d003cb8:	0b400e1b 	j	9d00386c <do_scan+0x678>
9d003cbc:	24140001 	li	s4,1
9d003cc0:	0b400e4f 	j	9d00393c <do_scan+0x748>
9d003cc4:	241e0001 	li	s8,1
9d003cc8:	0f402898 	jal	9d00a260 <putget.2773>
9d003ccc:	02c02021 	move	a0,s6
9d003cd0:	0040b021 	move	s6,v0
9d003cd4:	2402002d 	li	v0,45
9d003cd8:	12c20003 	beq	s6,v0,9d003ce8 <do_scan+0xaf4>
9d003cdc:	2402002b 	li	v0,43
9d003ce0:	16c20006 	bne	s6,v0,9d003cfc <do_scan+0xb08>
9d003ce4:	02161021 	addu	v0,s0,s6
9d003ce8:	02407821 	move	t7,s2
9d003cec:	0f402898 	jal	9d00a260 <putget.2773>
9d003cf0:	02c02021 	move	a0,s6
9d003cf4:	0040b021 	move	s6,v0
9d003cf8:	02161021 	addu	v0,s0,s6
9d003cfc:	90420000 	lbu	v0,0(v0)
9d003d00:	30420004 	andi	v0,v0,0x4
9d003d04:	1440fff9 	bnez	v0,9d003cec <do_scan+0xaf8>
9d003d08:	02407821 	move	t7,s2
9d003d0c:	0b400e2a 	j	9d0038a8 <do_scan+0x6b4>
9d003d10:	00000000 	nop
9d003d14:	0b400d96 	j	9d003658 <do_scan+0x464>
9d003d18:	ac620000 	sw	v0,0(v1)
9d003d1c:	8fa300a4 	lw	v1,164(sp)
9d003d20:	24640004 	addiu	a0,v1,4
9d003d24:	afa400a4 	sw	a0,164(sp)
9d003d28:	1220001c 	beqz	s1,9d003d9c <do_scan+0xba8>
9d003d2c:	8c630000 	lw	v1,0(v1)
9d003d30:	a0620000 	sb	v0,0(v1)
9d003d34:	0b400cad 	j	9d0032b4 <do_scan+0xc0>
9d003d38:	8fa500a0 	lw	a1,160(sp)
9d003d3c:	0f402ea1 	jal	9d00ba84 <gsgetc>
9d003d40:	27a40098 	addiu	a0,sp,152
9d003d44:	10560023 	beq	v0,s6,9d003dd4 <do_scan+0xbe0>
9d003d48:	0040b821 	move	s7,v0
9d003d4c:	2652fffe 	addiu	s2,s2,-2
9d003d50:	0b400e78 	j	9d0039e0 <do_scan+0x7ec>
9d003d54:	8fb600cc 	lw	s6,204(sp)
9d003d58:	0b400f59 	j	9d003d64 <do_scan+0xb70>
9d003d5c:	2404002e 	li	a0,46
9d003d60:	02c02021 	move	a0,s6
9d003d64:	0f402898 	jal	9d00a260 <putget.2773>
9d003d68:	00000000 	nop
9d003d6c:	0040b021 	move	s6,v0
9d003d70:	02021021 	addu	v0,s0,v0
9d003d74:	90420000 	lbu	v0,0(v0)
9d003d78:	30420004 	andi	v0,v0,0x4
9d003d7c:	1440fff8 	bnez	v0,9d003d60 <do_scan+0xb6c>
9d003d80:	02407821 	move	t7,s2
9d003d84:	0b400e22 	j	9d003888 <do_scan+0x694>
9d003d88:	8fa200c8 	lw	v0,200(sp)
9d003d8c:	0f403082 	jal	9d00c208 <strtof>
9d003d90:	8c710000 	lw	s1,0(v1)
9d003d94:	0b400e4b 	j	9d00392c <do_scan+0x738>
9d003d98:	ae220000 	sw	v0,0(s1)
9d003d9c:	ac620000 	sw	v0,0(v1)
9d003da0:	0b400cad 	j	9d0032b4 <do_scan+0xc0>
9d003da4:	8fa500a0 	lw	a1,160(sp)
9d003da8:	8c43000c 	lw	v1,12(v0)
9d003dac:	8fa400bc 	lw	a0,188(sp)
9d003db0:	24660004 	addiu	a2,v1,4
9d003db4:	ac46000c 	sw	a2,12(v0)
9d003db8:	0f40307b 	jal	9d00c1ec <strtod>
9d003dbc:	8c710000 	lw	s1,0(v1)
9d003dc0:	0f402bfc 	jal	9d00aff0 <__extendsfdf2>
9d003dc4:	00402021 	move	a0,v0
9d003dc8:	ae220000 	sw	v0,0(s1)
9d003dcc:	0b400e4b 	j	9d00392c <do_scan+0x738>
9d003dd0:	ae230004 	sw	v1,4(s1)
9d003dd4:	8fb600cc 	lw	s6,204(sp)
9d003dd8:	0b400e78 	j	9d0039e0 <do_scan+0x7ec>
9d003ddc:	02809021 	move	s2,s4
9d003de0:	2402002d 	li	v0,45
9d003de4:	12e2fef4 	beq	s7,v0,9d0039b8 <do_scan+0x7c4>
9d003de8:	8fa200cc 	lw	v0,204(sp)
9d003dec:	0b400edd 	j	9d003b74 <do_scan+0x980>
9d003df0:	8fb600cc 	lw	s6,204(sp)
9d003df4:	52c2ffa8 	beql	s6,v0,9d003c98 <do_scan+0xaa4>
9d003df8:	27b200b4 	addiu	s2,sp,180
9d003dfc:	26c20001 	addiu	v0,s6,1
9d003e00:	3c049d01 	lui	a0,0x9d01
9d003e04:	2483a57c 	addiu	v1,a0,-23172
9d003e08:	0b400e14 	j	9d003850 <do_scan+0x65c>
9d003e0c:	00621021 	addu	v0,v1,v0

Disassembly of section .text._do_print_cdfFnopsuxX:

9d003e10 <_do_print_cdfFnopsuxX>:
9d003e10:	27bdff60 	addiu	sp,sp,-160
9d003e14:	afbf009c 	sw	ra,156(sp)
9d003e18:	afbe0098 	sw	s8,152(sp)
9d003e1c:	afb70094 	sw	s7,148(sp)
9d003e20:	afb60090 	sw	s6,144(sp)
9d003e24:	afb5008c 	sw	s5,140(sp)
9d003e28:	afb40088 	sw	s4,136(sp)
9d003e2c:	afb30084 	sw	s3,132(sp)
9d003e30:	afb20080 	sw	s2,128(sp)
9d003e34:	afb1007c 	sw	s1,124(sp)
9d003e38:	afb00078 	sw	s0,120(sp)
9d003e3c:	afa400a0 	sw	a0,160(sp)
9d003e40:	8c820018 	lw	v0,24(a0)
9d003e44:	00a09021 	move	s2,a1
9d003e48:	24050001 	li	a1,1
9d003e4c:	8c420010 	lw	v0,16(v0)
9d003e50:	0040f809 	jalr	v0
9d003e54:	afa600a8 	sw	a2,168(sp)
9d003e58:	104001a9 	beqz	v0,9d004500 <_do_print_cdfFnopsuxX+0x6f0>
9d003e5c:	27a20058 	addiu	v0,sp,88
9d003e60:	afa00068 	sw	zero,104(sp)
9d003e64:	afa20060 	sw	v0,96(sp)
9d003e68:	82440000 	lb	a0,0(s2)
9d003e6c:	1080000d 	beqz	a0,9d003ea4 <_do_print_cdfFnopsuxX+0x94>
9d003e70:	26500001 	addiu	s0,s2,1
9d003e74:	24020025 	li	v0,37
9d003e78:	5082001c 	beql	a0,v0,9d003eec <_do_print_cdfFnopsuxX+0xdc>
9d003e7c:	82420001 	lb	v0,1(s2)
9d003e80:	0f402bd1 	jal	9d00af44 <.LFE2>
9d003e84:	8fa500a0 	lw	a1,160(sp)
9d003e88:	8fa30068 	lw	v1,104(sp)
9d003e8c:	24630001 	addiu	v1,v1,1
9d003e90:	afa30068 	sw	v1,104(sp)
9d003e94:	02009021 	move	s2,s0
9d003e98:	82440000 	lb	a0,0(s2)
9d003e9c:	1480fff5 	bnez	a0,9d003e74 <_do_print_cdfFnopsuxX+0x64>
9d003ea0:	26500001 	addiu	s0,s2,1
9d003ea4:	8fa400a0 	lw	a0,160(sp)
9d003ea8:	94820010 	lhu	v0,16(a0)
9d003eac:	30420040 	andi	v0,v0,0x40
9d003eb0:	14400194 	bnez	v0,9d004504 <_do_print_cdfFnopsuxX+0x6f4>
9d003eb4:	2402ffff 	li	v0,-1
9d003eb8:	8fa20068 	lw	v0,104(sp)
9d003ebc:	8fbf009c 	lw	ra,156(sp)
9d003ec0:	8fbe0098 	lw	s8,152(sp)
9d003ec4:	8fb70094 	lw	s7,148(sp)
9d003ec8:	8fb60090 	lw	s6,144(sp)
9d003ecc:	8fb5008c 	lw	s5,140(sp)
9d003ed0:	8fb40088 	lw	s4,136(sp)
9d003ed4:	8fb30084 	lw	s3,132(sp)
9d003ed8:	8fb20080 	lw	s2,128(sp)
9d003edc:	8fb1007c 	lw	s1,124(sp)
9d003ee0:	8fb00078 	lw	s0,120(sp)
9d003ee4:	03e00008 	jr	ra
9d003ee8:	27bd00a0 	addiu	sp,sp,160
9d003eec:	10440174 	beq	v0,a0,9d0044c0 <_do_print_cdfFnopsuxX+0x6b0>
9d003ef0:	0000b821 	move	s7,zero
9d003ef4:	2403002d 	li	v1,45
9d003ef8:	2404002b 	li	a0,43
9d003efc:	24050020 	li	a1,32
9d003f00:	24060023 	li	a2,35
9d003f04:	1043000e 	beq	v0,v1,9d003f40 <_do_print_cdfFnopsuxX+0x130>
9d003f08:	24070030 	li	a3,48
9d003f0c:	50440010 	beql	v0,a0,9d003f50 <_do_print_cdfFnopsuxX+0x140>
9d003f10:	36f70002 	ori	s7,s7,0x2
9d003f14:	50450011 	beql	v0,a1,9d003f5c <_do_print_cdfFnopsuxX+0x14c>
9d003f18:	36f70001 	ori	s7,s7,0x1
9d003f1c:	50460012 	beql	v0,a2,9d003f68 <_do_print_cdfFnopsuxX+0x158>
9d003f20:	36f70800 	ori	s7,s7,0x800
9d003f24:	54470013 	bnel	v0,a3,9d003f74 <_do_print_cdfFnopsuxX+0x164>
9d003f28:	2403002a 	li	v1,42
9d003f2c:	36f70004 	ori	s7,s7,0x4
9d003f30:	26100001 	addiu	s0,s0,1
9d003f34:	82020000 	lb	v0,0(s0)
9d003f38:	1443fff4 	bne	v0,v1,9d003f0c <_do_print_cdfFnopsuxX+0xfc>
9d003f3c:	00000000 	nop
9d003f40:	36f70008 	ori	s7,s7,0x8
9d003f44:	26100001 	addiu	s0,s0,1
9d003f48:	0b400fce 	j	9d003f38 <_do_print_cdfFnopsuxX+0x128>
9d003f4c:	82020000 	lb	v0,0(s0)
9d003f50:	26100001 	addiu	s0,s0,1
9d003f54:	0b400fce 	j	9d003f38 <_do_print_cdfFnopsuxX+0x128>
9d003f58:	82020000 	lb	v0,0(s0)
9d003f5c:	26100001 	addiu	s0,s0,1
9d003f60:	0b400fce 	j	9d003f38 <_do_print_cdfFnopsuxX+0x128>
9d003f64:	82020000 	lb	v0,0(s0)
9d003f68:	26100001 	addiu	s0,s0,1
9d003f6c:	0b400fce 	j	9d003f38 <_do_print_cdfFnopsuxX+0x128>
9d003f70:	82020000 	lb	v0,0(s0)
9d003f74:	10430128 	beq	v0,v1,9d004418 <_do_print_cdfFnopsuxX+0x608>
9d003f78:	02002021 	move	a0,s0
9d003f7c:	2443ffd0 	addiu	v1,v0,-48
9d003f80:	2c63000a 	sltiu	v1,v1,10
9d003f84:	1060000b 	beqz	v1,9d003fb4 <_do_print_cdfFnopsuxX+0x1a4>
9d003f88:	0000b021 	move	s6,zero
9d003f8c:	00161840 	sll	v1,s6,0x1
9d003f90:	001650c0 	sll	t2,s6,0x3
9d003f94:	006a5021 	addu	t2,v1,t2
9d003f98:	26100001 	addiu	s0,s0,1
9d003f9c:	01425021 	addu	t2,t2,v0
9d003fa0:	82020000 	lb	v0,0(s0)
9d003fa4:	2443ffd0 	addiu	v1,v0,-48
9d003fa8:	2c63000a 	sltiu	v1,v1,10
9d003fac:	1460fff7 	bnez	v1,9d003f8c <_do_print_cdfFnopsuxX+0x17c>
9d003fb0:	2556ffd0 	addiu	s6,t2,-48
9d003fb4:	2403002e 	li	v1,46
9d003fb8:	104300f0 	beq	v0,v1,9d00437c <_do_print_cdfFnopsuxX+0x56c>
9d003fbc:	241effff 	li	s8,-1
9d003fc0:	24030068 	li	v1,104
9d003fc4:	50430103 	beql	v0,v1,9d0043d4 <_do_print_cdfFnopsuxX+0x5c4>
9d003fc8:	82030001 	lb	v1,1(s0)
9d003fcc:	2403006c 	li	v1,108
9d003fd0:	1043011b 	beq	v0,v1,9d004440 <_do_print_cdfFnopsuxX+0x630>
9d003fd4:	24030071 	li	v1,113
9d003fd8:	10430145 	beq	v0,v1,9d0044f0 <_do_print_cdfFnopsuxX+0x6e0>
9d003fdc:	2403004c 	li	v1,76
9d003fe0:	504301d4 	beql	v0,v1,9d004734 <_do_print_cdfFnopsuxX+0x924>
9d003fe4:	82020001 	lb	v0,1(s0)
9d003fe8:	32e40002 	andi	a0,s7,0x2
9d003fec:	32e3fffe 	andi	v1,s7,0xfffe
9d003ff0:	0064b80b 	movn	s7,v1,a0
9d003ff4:	2442ffbc 	addiu	v0,v0,-68
9d003ff8:	32e50008 	andi	a1,s7,0x8
9d003ffc:	32e4fffb 	andi	a0,s7,0xfffb
9d004000:	2c430035 	sltiu	v1,v0,53
9d004004:	26120001 	addiu	s2,s0,1
9d004008:	10600101 	beqz	v1,9d004410 <_do_print_cdfFnopsuxX+0x600>
9d00400c:	0085b80b 	movn	s7,a0,a1
9d004010:	00021080 	sll	v0,v0,0x2
9d004014:	3c049d00 	lui	a0,0x9d00
9d004018:	2484402c 	addiu	a0,a0,16428
9d00401c:	00821021 	addu	v0,a0,v0
9d004020:	8c420000 	lw	v0,0(v0)
9d004024:	00400008 	jr	v0
9d004028:	00000000 	nop
9d00402c:	9d004294 	0x9d004294
9d004030:	9d004410 	0x9d004410
9d004034:	9d004410 	0x9d004410
9d004038:	9d004410 	0x9d004410
9d00403c:	9d004410 	0x9d004410
9d004040:	9d004410 	0x9d004410
9d004044:	9d004410 	0x9d004410
9d004048:	9d004410 	0x9d004410
9d00404c:	9d004410 	0x9d004410
9d004050:	9d004410 	0x9d004410
9d004054:	9d004410 	0x9d004410
9d004058:	9d004674 	0x9d004674
9d00405c:	9d004304 	0x9d004304
9d004060:	9d004410 	0x9d004410
9d004064:	9d004410 	0x9d004410
9d004068:	9d004410 	0x9d004410
9d00406c:	9d004410 	0x9d004410
9d004070:	9d0042f4 	0x9d0042f4
9d004074:	9d004410 	0x9d004410
9d004078:	9d004410 	0x9d004410
9d00407c:	9d004100 	0x9d004100
9d004080:	9d004410 	0x9d004410
9d004084:	9d004410 	0x9d004410
9d004088:	9d004410 	0x9d004410
9d00408c:	9d004410 	0x9d004410
9d004090:	9d004410 	0x9d004410
9d004094:	9d004410 	0x9d004410
9d004098:	9d004410 	0x9d004410
9d00409c:	9d004410 	0x9d004410
9d0040a0:	9d004410 	0x9d004410
9d0040a4:	9d004410 	0x9d004410
9d0040a8:	9d004640 	0x9d004640
9d0040ac:	9d004298 	0x9d004298
9d0040b0:	9d004410 	0x9d004410
9d0040b4:	9d004608 	0x9d004608
9d0040b8:	9d004410 	0x9d004410
9d0040bc:	9d004410 	0x9d004410
9d0040c0:	9d004298 	0x9d004298
9d0040c4:	9d004410 	0x9d004410
9d0040c8:	9d004410 	0x9d004410
9d0040cc:	9d004410 	0x9d004410
9d0040d0:	9d004410 	0x9d004410
9d0040d4:	9d0045c0 	0x9d0045c0
9d0040d8:	9d0045b8 	0x9d0045b8
9d0040dc:	9d004308 	0x9d004308
9d0040e0:	9d004410 	0x9d004410
9d0040e4:	9d004410 	0x9d004410
9d0040e8:	9d004680 	0x9d004680
9d0040ec:	9d004410 	0x9d004410
9d0040f0:	9d0042f8 	0x9d0042f8
9d0040f4:	9d004410 	0x9d004410
9d0040f8:	9d004410 	0x9d004410
9d0040fc:	9d004104 	0x9d004104
9d004100:	36f70020 	ori	s7,s7,0x20
9d004104:	24100010 	li	s0,16
9d004108:	2402ffff 	li	v0,-1
9d00410c:	13c20068 	beq	s8,v0,9d0042b0 <_do_print_cdfFnopsuxX+0x4a0>
9d004110:	00002821 	move	a1,zero
9d004114:	32f7fffb 	andi	s7,s7,0xfffb
9d004118:	27c5ffff 	addiu	a1,s8,-1
9d00411c:	32e200c0 	andi	v0,s7,0xc0
9d004120:	10400067 	beqz	v0,9d0042c0 <_do_print_cdfFnopsuxX+0x4b0>
9d004124:	afa2006c 	sw	v0,108(sp)
9d004128:	7c171620 	seh	v0,s7
9d00412c:	04400193 	bltz	v0,9d00477c <_do_print_cdfFnopsuxX+0x96c>
9d004130:	32e20010 	andi	v0,s7,0x10
9d004134:	104000ff 	beqz	v0,9d004534 <_do_print_cdfFnopsuxX+0x724>
9d004138:	32e20041 	andi	v0,s7,0x41
9d00413c:	8fa400a8 	lw	a0,168(sp)
9d004140:	8c950000 	lw	s5,0(a0)
9d004144:	24840004 	addiu	a0,a0,4
9d004148:	afa400a8 	sw	a0,168(sp)
9d00414c:	0015a7c3 	sra	s4,s5,0x1f
9d004150:	02801021 	move	v0,s4
9d004154:	0440010c 	bltz	v0,9d004588 <_do_print_cdfFnopsuxX+0x778>
9d004158:	02a01821 	move	v1,s5
9d00415c:	afa00074 	sw	zero,116(sp)
9d004160:	128000be 	beqz	s4,9d00445c <_do_print_cdfFnopsuxX+0x64c>
9d004164:	02b41025 	or	v0,s5,s4
9d004168:	104001a7 	beqz	v0,9d004808 <_do_print_cdfFnopsuxX+0x9f8>
9d00416c:	27a20057 	addiu	v0,sp,87
9d004170:	afa20070 	sw	v0,112(sp)
9d004174:	32e30020 	andi	v1,s7,0x20
9d004178:	24040037 	li	a0,55
9d00417c:	00108fc3 	sra	s1,s0,0x1f
9d004180:	00409821 	move	s3,v0
9d004184:	24020057 	li	v0,87
9d004188:	0043200a 	movz	a0,v0,v1
9d00418c:	afa40064 	sw	a0,100(sp)
9d004190:	02a02021 	move	a0,s5
9d004194:	02802821 	move	a1,s4
9d004198:	02003021 	move	a2,s0
9d00419c:	0f401ad1 	jal	9d006b44 <__umoddi3>
9d0041a0:	02203821 	move	a3,s1
9d0041a4:	2843000a 	slti	v1,v0,10
9d0041a8:	24460030 	addiu	a2,v0,48
9d0041ac:	8fa40064 	lw	a0,100(sp)
9d0041b0:	00441021 	addu	v0,v0,a0
9d0041b4:	0043300a 	movz	a2,v0,v1
9d0041b8:	2673ffff 	addiu	s3,s3,-1
9d0041bc:	02a02021 	move	a0,s5
9d0041c0:	02802821 	move	a1,s4
9d0041c4:	a2660001 	sb	a2,1(s3)
9d0041c8:	02003021 	move	a2,s0
9d0041cc:	0f401bea 	jal	9d006fa8 <__udivdi3>
9d0041d0:	02203821 	move	a3,s1
9d0041d4:	00622025 	or	a0,v1,v0
9d0041d8:	0040a821 	move	s5,v0
9d0041dc:	0060a021 	move	s4,v1
9d0041e0:	1480ffeb 	bnez	a0,9d004190 <_do_print_cdfFnopsuxX+0x380>
9d0041e4:	27deffff 	addiu	s8,s8,-1
9d0041e8:	27c5ffff 	addiu	a1,s8,-1
9d0041ec:	04a0000a 	bltz	a1,9d004218 <_do_print_cdfFnopsuxX+0x408>
9d0041f0:	02601021 	move	v0,s3
9d0041f4:	2664ffff 	addiu	a0,s3,-1
9d0041f8:	00852023 	subu	a0,a0,a1
9d0041fc:	24030030 	li	v1,48
9d004200:	a0430000 	sb	v1,0(v0)
9d004204:	2442ffff 	addiu	v0,v0,-1
9d004208:	5444fffe 	bnel	v0,a0,9d004204 <_do_print_cdfFnopsuxX+0x3f4>
9d00420c:	a0430000 	sb	v1,0(v0)
9d004210:	00052827 	nor	a1,zero,a1
9d004214:	02659821 	addu	s3,s3,a1
9d004218:	32e20004 	andi	v0,s7,0x4
9d00421c:	1440003d 	bnez	v0,9d004314 <_do_print_cdfFnopsuxX+0x504>
9d004220:	32e40800 	andi	a0,s7,0x800
9d004224:	3084ffff 	andi	a0,a0,0xffff
9d004228:	50800007 	beqzl	a0,9d004248 <_do_print_cdfFnopsuxX+0x438>
9d00422c:	8fa3006c 	lw	v1,108(sp)
9d004230:	24020008 	li	v0,8
9d004234:	12020141 	beq	s0,v0,9d00473c <_do_print_cdfFnopsuxX+0x92c>
9d004238:	24020010 	li	v0,16
9d00423c:	1202016a 	beq	s0,v0,9d0047e8 <_do_print_cdfFnopsuxX+0x9d8>
9d004240:	32e40020 	andi	a0,s7,0x20
9d004244:	8fa3006c 	lw	v1,108(sp)
9d004248:	10600007 	beqz	v1,9d004268 <_do_print_cdfFnopsuxX+0x458>
9d00424c:	8fa40074 	lw	a0,116(sp)
9d004250:	148000a3 	bnez	a0,9d0044e0 <_do_print_cdfFnopsuxX+0x6d0>
9d004254:	32e20002 	andi	v0,s7,0x2
9d004258:	10400003 	beqz	v0,9d004268 <_do_print_cdfFnopsuxX+0x458>
9d00425c:	2402002b 	li	v0,43
9d004260:	a2620000 	sb	v0,0(s3)
9d004264:	2673ffff 	addiu	s3,s3,-1
9d004268:	26650001 	addiu	a1,s3,1
9d00426c:	afb70010 	sw	s7,16(sp)
9d004270:	8fa400a0 	lw	a0,160(sp)
9d004274:	8fa20060 	lw	v0,96(sp)
9d004278:	00453023 	subu	a2,v0,a1
9d00427c:	0f4027fc 	jal	9d009ff0 <.LFE6>
9d004280:	02c03821 	move	a3,s6
9d004284:	8fa30068 	lw	v1,104(sp)
9d004288:	00621821 	addu	v1,v1,v0
9d00428c:	0b400f9a 	j	9d003e68 <_do_print_cdfFnopsuxX+0x58>
9d004290:	afa30068 	sw	v1,104(sp)
9d004294:	36f70010 	ori	s7,s7,0x10
9d004298:	32e8f7ff 	andi	t0,s7,0xf7ff
9d00429c:	351700c0 	ori	s7,t0,0xc0
9d0042a0:	2402ffff 	li	v0,-1
9d0042a4:	17c2ff9b 	bne	s8,v0,9d004114 <_do_print_cdfFnopsuxX+0x304>
9d0042a8:	2410000a 	li	s0,10
9d0042ac:	00002821 	move	a1,zero
9d0042b0:	241e0001 	li	s8,1
9d0042b4:	32e200c0 	andi	v0,s7,0xc0
9d0042b8:	1440ff9b 	bnez	v0,9d004128 <_do_print_cdfFnopsuxX+0x318>
9d0042bc:	afa2006c 	sw	v0,108(sp)
9d0042c0:	7c171620 	seh	v0,s7
9d0042c4:	04400124 	bltz	v0,9d004758 <_do_print_cdfFnopsuxX+0x948>
9d0042c8:	8fa400a8 	lw	a0,168(sp)
9d0042cc:	32e20010 	andi	v0,s7,0x10
9d0042d0:	504000a4 	beqzl	v0,9d004564 <_do_print_cdfFnopsuxX+0x754>
9d0042d4:	32e20041 	andi	v0,s7,0x41
9d0042d8:	8fa400a8 	lw	a0,168(sp)
9d0042dc:	8c950000 	lw	s5,0(a0)
9d0042e0:	0000a021 	move	s4,zero
9d0042e4:	24840004 	addiu	a0,a0,4
9d0042e8:	afa400a8 	sw	a0,168(sp)
9d0042ec:	0b401058 	j	9d004160 <_do_print_cdfFnopsuxX+0x350>
9d0042f0:	afa00074 	sw	zero,116(sp)
9d0042f4:	36f70010 	ori	s7,s7,0x10
9d0042f8:	32f7f7ff 	andi	s7,s7,0xf7ff
9d0042fc:	0b401042 	j	9d004108 <_do_print_cdfFnopsuxX+0x2f8>
9d004300:	2410000a 	li	s0,10
9d004304:	36f70020 	ori	s7,s7,0x20
9d004308:	36f70810 	ori	s7,s7,0x810
9d00430c:	0b401042 	j	9d004108 <_do_print_cdfFnopsuxX+0x2f8>
9d004310:	24100010 	li	s0,16
9d004314:	8fa20070 	lw	v0,112(sp)
9d004318:	02621823 	subu	v1,s3,v0
9d00431c:	3084ffff 	andi	a0,a0,0xffff
9d004320:	10800006 	beqz	a0,9d00433c <_do_print_cdfFnopsuxX+0x52c>
9d004324:	02c31821 	addu	v1,s6,v1
9d004328:	24020008 	li	v0,8
9d00432c:	1202013e 	beq	s0,v0,9d004828 <_do_print_cdfFnopsuxX+0xa18>
9d004330:	2462fffe 	addiu	v0,v1,-2
9d004334:	3a050010 	xori	a1,s0,0x10
9d004338:	0045180a 	movz	v1,v0,a1
9d00433c:	8fa2006c 	lw	v0,108(sp)
9d004340:	10400004 	beqz	v0,9d004354 <_do_print_cdfFnopsuxX+0x544>
9d004344:	8fa20074 	lw	v0,116(sp)
9d004348:	10400097 	beqz	v0,9d0045a8 <_do_print_cdfFnopsuxX+0x798>
9d00434c:	32e20003 	andi	v0,s7,0x3
9d004350:	2463ffff 	addiu	v1,v1,-1
9d004354:	1860ffb4 	blez	v1,9d004228 <_do_print_cdfFnopsuxX+0x418>
9d004358:	02601021 	move	v0,s3
9d00435c:	02634823 	subu	t1,s3,v1
9d004360:	24030030 	li	v1,48
9d004364:	a0430000 	sb	v1,0(v0)
9d004368:	2442ffff 	addiu	v0,v0,-1
9d00436c:	5522fffe 	bnel	t1,v0,9d004368 <_do_print_cdfFnopsuxX+0x558>
9d004370:	a0430000 	sb	v1,0(v0)
9d004374:	0b40108a 	j	9d004228 <_do_print_cdfFnopsuxX+0x418>
9d004378:	01209821 	move	s3,t1
9d00437c:	82020001 	lb	v0,1(s0)
9d004380:	2403002a 	li	v1,42
9d004384:	1043010e 	beq	v0,v1,9d0047c0 <_do_print_cdfFnopsuxX+0x9b0>
9d004388:	2443ffd0 	addiu	v1,v0,-48
9d00438c:	2c63000a 	sltiu	v1,v1,10
9d004390:	26100001 	addiu	s0,s0,1
9d004394:	1060ff0a 	beqz	v1,9d003fc0 <_do_print_cdfFnopsuxX+0x1b0>
9d004398:	0000f021 	move	s8,zero
9d00439c:	001e1840 	sll	v1,s8,0x1
9d0043a0:	001e58c0 	sll	t3,s8,0x3
9d0043a4:	006b5821 	addu	t3,v1,t3
9d0043a8:	26100001 	addiu	s0,s0,1
9d0043ac:	01625821 	addu	t3,t3,v0
9d0043b0:	82020000 	lb	v0,0(s0)
9d0043b4:	2443ffd0 	addiu	v1,v0,-48
9d0043b8:	2c63000a 	sltiu	v1,v1,10
9d0043bc:	1460fff7 	bnez	v1,9d00439c <_do_print_cdfFnopsuxX+0x58c>
9d0043c0:	257effd0 	addiu	s8,t3,-48
9d0043c4:	24030068 	li	v1,104
9d0043c8:	1443ff01 	bne	v0,v1,9d003fd0 <_do_print_cdfFnopsuxX+0x1c0>
9d0043cc:	2403006c 	li	v1,108
9d0043d0:	82030001 	lb	v1,1(s0)
9d0043d4:	506200f6 	beql	v1,v0,9d0047b0 <_do_print_cdfFnopsuxX+0x9a0>
9d0043d8:	82020002 	lb	v0,2(s0)
9d0043dc:	36f70040 	ori	s7,s7,0x40
9d0043e0:	00601021 	move	v0,v1
9d0043e4:	26100001 	addiu	s0,s0,1
9d0043e8:	32e40002 	andi	a0,s7,0x2
9d0043ec:	32e3fffe 	andi	v1,s7,0xfffe
9d0043f0:	0064b80b 	movn	s7,v1,a0
9d0043f4:	2442ffbc 	addiu	v0,v0,-68
9d0043f8:	32e50008 	andi	a1,s7,0x8
9d0043fc:	32e4fffb 	andi	a0,s7,0xfffb
9d004400:	2c430035 	sltiu	v1,v0,53
9d004404:	26120001 	addiu	s2,s0,1
9d004408:	1460ff01 	bnez	v1,9d004010 <_do_print_cdfFnopsuxX+0x200>
9d00440c:	0085b80b 	movn	s7,a0,a1
9d004410:	0b4010a1 	j	9d004284 <_do_print_cdfFnopsuxX+0x474>
9d004414:	00001021 	move	v0,zero
9d004418:	8fa200a8 	lw	v0,168(sp)
9d00441c:	8c560000 	lw	s6,0(v0)
9d004420:	24550004 	addiu	s5,v0,4
9d004424:	26100001 	addiu	s0,s0,1
9d004428:	06c10003 	bgez	s6,9d004438 <_do_print_cdfFnopsuxX+0x628>
9d00442c:	80820001 	lb	v0,1(a0)
9d004430:	36f70008 	ori	s7,s7,0x8
9d004434:	0016b023 	negu	s6,s6
9d004438:	0b400fed 	j	9d003fb4 <_do_print_cdfFnopsuxX+0x1a4>
9d00443c:	afb500a8 	sw	s5,168(sp)
9d004440:	82030001 	lb	v1,1(s0)
9d004444:	506200f4 	beql	v1,v0,9d004818 <_do_print_cdfFnopsuxX+0xa08>
9d004448:	82020002 	lb	v0,2(s0)
9d00444c:	36f70010 	ori	s7,s7,0x10
9d004450:	00601021 	move	v0,v1
9d004454:	0b4010fa 	j	9d0043e8 <_do_print_cdfFnopsuxX+0x5d8>
9d004458:	26100001 	addiu	s0,s0,1
9d00445c:	12a000ea 	beqz	s5,9d004808 <_do_print_cdfFnopsuxX+0x9f8>
9d004460:	02a06821 	move	t5,s5
9d004464:	27a30057 	addiu	v1,sp,87
9d004468:	afa30070 	sw	v1,112(sp)
9d00446c:	32e30020 	andi	v1,s7,0x20
9d004470:	24050037 	li	a1,55
9d004474:	8fb30070 	lw	s3,112(sp)
9d004478:	24020057 	li	v0,87
9d00447c:	0043280a 	movz	a1,v0,v1
9d004480:	01b0001b 	divu	zero,t5,s0
9d004484:	020001f4 	teq	s0,zero,0x7
9d004488:	00001810 	mfhi	v1
9d00448c:	2673ffff 	addiu	s3,s3,-1
9d004490:	27deffff 	addiu	s8,s8,-1
9d004494:	01b0001b 	divu	zero,t5,s0
9d004498:	020001f4 	teq	s0,zero,0x7
9d00449c:	00006812 	mflo	t5
9d0044a0:	2864000a 	slti	a0,v1,10
9d0044a4:	24620030 	addiu	v0,v1,48
9d0044a8:	00651821 	addu	v1,v1,a1
9d0044ac:	0064100a 	movz	v0,v1,a0
9d0044b0:	15a0fff3 	bnez	t5,9d004480 <_do_print_cdfFnopsuxX+0x670>
9d0044b4:	a2620001 	sb	v0,1(s3)
9d0044b8:	0b40107b 	j	9d0041ec <_do_print_cdfFnopsuxX+0x3dc>
9d0044bc:	27c5ffff 	addiu	a1,s8,-1
9d0044c0:	24040025 	li	a0,37
9d0044c4:	0f402bd1 	jal	9d00af44 <.LFE2>
9d0044c8:	8fa500a0 	lw	a1,160(sp)
9d0044cc:	26520002 	addiu	s2,s2,2
9d0044d0:	8fa40068 	lw	a0,104(sp)
9d0044d4:	24840001 	addiu	a0,a0,1
9d0044d8:	0b400f9a 	j	9d003e68 <_do_print_cdfFnopsuxX+0x58>
9d0044dc:	afa40068 	sw	a0,104(sp)
9d0044e0:	2402002d 	li	v0,45
9d0044e4:	a2620000 	sb	v0,0(s3)
9d0044e8:	0b40109a 	j	9d004268 <_do_print_cdfFnopsuxX+0x458>
9d0044ec:	2673ffff 	addiu	s3,s3,-1
9d0044f0:	82020001 	lb	v0,1(s0)
9d0044f4:	36f78000 	ori	s7,s7,0x8000
9d0044f8:	0b400ffa 	j	9d003fe8 <_do_print_cdfFnopsuxX+0x1d8>
9d0044fc:	26100001 	addiu	s0,s0,1
9d004500:	2402ffff 	li	v0,-1
9d004504:	8fbf009c 	lw	ra,156(sp)
9d004508:	8fbe0098 	lw	s8,152(sp)
9d00450c:	8fb70094 	lw	s7,148(sp)
9d004510:	8fb60090 	lw	s6,144(sp)
9d004514:	8fb5008c 	lw	s5,140(sp)
9d004518:	8fb40088 	lw	s4,136(sp)
9d00451c:	8fb30084 	lw	s3,132(sp)
9d004520:	8fb20080 	lw	s2,128(sp)
9d004524:	8fb1007c 	lw	s1,124(sp)
9d004528:	8fb00078 	lw	s0,120(sp)
9d00452c:	03e00008 	jr	ra
9d004530:	27bd00a0 	addiu	sp,sp,160
9d004534:	50400076 	beqzl	v0,9d004710 <_do_print_cdfFnopsuxX+0x900>
9d004538:	8fa300a8 	lw	v1,168(sp)
9d00453c:	8fa200a8 	lw	v0,168(sp)
9d004540:	8c550000 	lw	s5,0(v0)
9d004544:	24420004 	addiu	v0,v0,4
9d004548:	afa200a8 	sw	v0,168(sp)
9d00454c:	0015a7c3 	sra	s4,s5,0x1f
9d004550:	02801021 	move	v0,s4
9d004554:	0441ff01 	bgez	v0,9d00415c <_do_print_cdfFnopsuxX+0x34c>
9d004558:	02a01821 	move	v1,s5
9d00455c:	0b401163 	j	9d00458c <_do_print_cdfFnopsuxX+0x77c>
9d004560:	00036823 	negu	t5,v1
9d004564:	50400064 	beqzl	v0,9d0046f8 <_do_print_cdfFnopsuxX+0x8e8>
9d004568:	8fa300a8 	lw	v1,168(sp)
9d00456c:	8fa200a8 	lw	v0,168(sp)
9d004570:	8c550000 	lw	s5,0(v0)
9d004574:	0000a021 	move	s4,zero
9d004578:	24420004 	addiu	v0,v0,4
9d00457c:	afa200a8 	sw	v0,168(sp)
9d004580:	0b401058 	j	9d004160 <_do_print_cdfFnopsuxX+0x350>
9d004584:	afa00074 	sw	zero,116(sp)
9d004588:	00036823 	negu	t5,v1
9d00458c:	000d182b 	sltu	v1,zero,t5
9d004590:	00021023 	negu	v0,v0
9d004594:	01a0a821 	move	s5,t5
9d004598:	0043a023 	subu	s4,v0,v1
9d00459c:	24040001 	li	a0,1
9d0045a0:	0b401058 	j	9d004160 <_do_print_cdfFnopsuxX+0x350>
9d0045a4:	afa40074 	sw	a0,116(sp)
9d0045a8:	5440ff6a 	bnezl	v0,9d004354 <_do_print_cdfFnopsuxX+0x544>
9d0045ac:	2463ffff 	addiu	v1,v1,-1
9d0045b0:	0b4010d5 	j	9d004354 <_do_print_cdfFnopsuxX+0x544>
9d0045b4:	00000000 	nop
9d0045b8:	0b401042 	j	9d004108 <_do_print_cdfFnopsuxX+0x2f8>
9d0045bc:	24100008 	li	s0,8
9d0045c0:	7c171620 	seh	v0,s7
9d0045c4:	044000a9 	bltz	v0,9d00486c <_do_print_cdfFnopsuxX+0xa5c>
9d0045c8:	8fa300a8 	lw	v1,168(sp)
9d0045cc:	32e20010 	andi	v0,s7,0x10
9d0045d0:	1440009a 	bnez	v0,9d00483c <_do_print_cdfFnopsuxX+0xa2c>
9d0045d4:	8fa200a8 	lw	v0,168(sp)
9d0045d8:	32e20040 	andi	v0,s7,0x40
9d0045dc:	104000ae 	beqz	v0,9d004898 <_do_print_cdfFnopsuxX+0xa88>
9d0045e0:	32e80001 	andi	t0,s7,0x1
9d0045e4:	8fa200a8 	lw	v0,168(sp)
9d0045e8:	8c430000 	lw	v1,0(v0)
9d0045ec:	00001021 	move	v0,zero
9d0045f0:	8fa400a8 	lw	a0,168(sp)
9d0045f4:	24840004 	addiu	a0,a0,4
9d0045f8:	afa400a8 	sw	a0,168(sp)
9d0045fc:	8fa40068 	lw	a0,104(sp)
9d004600:	0b4010a1 	j	9d004284 <_do_print_cdfFnopsuxX+0x474>
9d004604:	a4640000 	sh	a0,0(v1)
9d004608:	8fa300a8 	lw	v1,168(sp)
9d00460c:	8c620000 	lw	v0,0(v1)
9d004610:	36e80400 	ori	t0,s7,0x400
9d004614:	24750004 	addiu	s5,v1,4
9d004618:	afa20058 	sw	v0,88(sp)
9d00461c:	8fa50058 	lw	a1,88(sp)
9d004620:	afbe0010 	sw	s8,16(sp)
9d004624:	afa80014 	sw	t0,20(sp)
9d004628:	8fa400a0 	lw	a0,160(sp)
9d00462c:	24060066 	li	a2,102
9d004630:	0f401722 	jal	9d005c88 <_fconvert>
9d004634:	02c03821 	move	a3,s6
9d004638:	0b4010a1 	j	9d004284 <_do_print_cdfFnopsuxX+0x474>
9d00463c:	afb500a8 	sw	s5,168(sp)
9d004640:	8fa400a8 	lw	a0,168(sp)
9d004644:	8c820000 	lw	v0,0(a0)
9d004648:	24950004 	addiu	s5,a0,4
9d00464c:	afb70010 	sw	s7,16(sp)
9d004650:	8fa400a0 	lw	a0,160(sp)
9d004654:	27a50018 	addiu	a1,sp,24
9d004658:	24060001 	li	a2,1
9d00465c:	02c03821 	move	a3,s6
9d004660:	a3a20018 	sb	v0,24(sp)
9d004664:	0f4027fc 	jal	9d009ff0 <.LFE6>
9d004668:	afb500a8 	sw	s5,168(sp)
9d00466c:	0b4010a2 	j	9d004288 <_do_print_cdfFnopsuxX+0x478>
9d004670:	8fa30068 	lw	v1,104(sp)
9d004674:	36f70010 	ori	s7,s7,0x10
9d004678:	0b401042 	j	9d004108 <_do_print_cdfFnopsuxX+0x2f8>
9d00467c:	24100008 	li	s0,8
9d004680:	8fa200a8 	lw	v0,168(sp)
9d004684:	8c500000 	lw	s0,0(v0)
9d004688:	3c039d01 	lui	v1,0x9d01
9d00468c:	2462bc00 	addiu	v0,v1,-17408
9d004690:	8fa400a8 	lw	a0,168(sp)
9d004694:	0050800a 	movz	s0,v0,s0
9d004698:	2402ffff 	li	v0,-1
9d00469c:	13c2006f 	beq	s8,v0,9d00485c <_do_print_cdfFnopsuxX+0xa4c>
9d0046a0:	24950004 	addiu	s5,a0,4
9d0046a4:	1bc00086 	blez	s8,9d0048c0 <_do_print_cdfFnopsuxX+0xab0>
9d0046a8:	021e5821 	addu	t3,s0,s8
9d0046ac:	82030000 	lb	v1,0(s0)
9d0046b0:	14600005 	bnez	v1,9d0046c8 <_do_print_cdfFnopsuxX+0x8b8>
9d0046b4:	02001021 	move	v0,s0
9d0046b8:	0b4011b6 	j	9d0046d8 <_do_print_cdfFnopsuxX+0x8c8>
9d0046bc:	00001021 	move	v0,zero
9d0046c0:	50600005 	beqzl	v1,9d0046d8 <_do_print_cdfFnopsuxX+0x8c8>
9d0046c4:	00501023 	subu	v0,v0,s0
9d0046c8:	24420001 	addiu	v0,v0,1
9d0046cc:	544bfffc 	bnel	v0,t3,9d0046c0 <_do_print_cdfFnopsuxX+0x8b0>
9d0046d0:	80430000 	lb	v1,0(v0)
9d0046d4:	00501023 	subu	v0,v0,s0
9d0046d8:	afb70010 	sw	s7,16(sp)
9d0046dc:	8fa400a0 	lw	a0,160(sp)
9d0046e0:	02002821 	move	a1,s0
9d0046e4:	00403021 	move	a2,v0
9d0046e8:	0f4027fc 	jal	9d009ff0 <.LFE6>
9d0046ec:	02c03821 	move	a3,s6
9d0046f0:	0b4010a1 	j	9d004284 <_do_print_cdfFnopsuxX+0x474>
9d0046f4:	afb500a8 	sw	s5,168(sp)
9d0046f8:	8c750000 	lw	s5,0(v1)
9d0046fc:	0000a021 	move	s4,zero
9d004700:	24630004 	addiu	v1,v1,4
9d004704:	afa300a8 	sw	v1,168(sp)
9d004708:	0b401058 	j	9d004160 <_do_print_cdfFnopsuxX+0x350>
9d00470c:	afa00074 	sw	zero,116(sp)
9d004710:	8c750000 	lw	s5,0(v1)
9d004714:	24630004 	addiu	v1,v1,4
9d004718:	afa300a8 	sw	v1,168(sp)
9d00471c:	0015a7c3 	sra	s4,s5,0x1f
9d004720:	02801021 	move	v0,s4
9d004724:	0441fe8d 	bgez	v0,9d00415c <_do_print_cdfFnopsuxX+0x34c>
9d004728:	02a01821 	move	v1,s5
9d00472c:	0b401163 	j	9d00458c <_do_print_cdfFnopsuxX+0x77c>
9d004730:	00036823 	negu	t5,v1
9d004734:	0b4010fa 	j	9d0043e8 <_do_print_cdfFnopsuxX+0x5d8>
9d004738:	26100001 	addiu	s0,s0,1
9d00473c:	82630001 	lb	v1,1(s3)
9d004740:	24020030 	li	v0,48
9d004744:	1062fec0 	beq	v1,v0,9d004248 <_do_print_cdfFnopsuxX+0x438>
9d004748:	8fa3006c 	lw	v1,108(sp)
9d00474c:	a2620000 	sb	v0,0(s3)
9d004750:	0b401091 	j	9d004244 <_do_print_cdfFnopsuxX+0x434>
9d004754:	2673ffff 	addiu	s3,s3,-1
9d004758:	24950007 	addiu	s5,a0,7
9d00475c:	2402fff8 	li	v0,-8
9d004760:	02a21024 	and	v0,s5,v0
9d004764:	24430008 	addiu	v1,v0,8
9d004768:	afa300a8 	sw	v1,168(sp)
9d00476c:	8c550000 	lw	s5,0(v0)
9d004770:	8c540004 	lw	s4,4(v0)
9d004774:	0b401058 	j	9d004160 <_do_print_cdfFnopsuxX+0x350>
9d004778:	afa00074 	sw	zero,116(sp)
9d00477c:	8fa300a8 	lw	v1,168(sp)
9d004780:	24750007 	addiu	s5,v1,7
9d004784:	2402fff8 	li	v0,-8
9d004788:	02a2a824 	and	s5,s5,v0
9d00478c:	8ea30000 	lw	v1,0(s5)
9d004790:	8ea20004 	lw	v0,4(s5)
9d004794:	26b50008 	addiu	s5,s5,8
9d004798:	afb500a8 	sw	s5,168(sp)
9d00479c:	0060a821 	move	s5,v1
9d0047a0:	0441fe6e 	bgez	v0,9d00415c <_do_print_cdfFnopsuxX+0x34c>
9d0047a4:	0040a021 	move	s4,v0
9d0047a8:	0b401163 	j	9d00458c <_do_print_cdfFnopsuxX+0x77c>
9d0047ac:	00036823 	negu	t5,v1
9d0047b0:	36f70001 	ori	s7,s7,0x1
9d0047b4:	26100001 	addiu	s0,s0,1
9d0047b8:	0b4010fa 	j	9d0043e8 <_do_print_cdfFnopsuxX+0x5d8>
9d0047bc:	26100001 	addiu	s0,s0,1
9d0047c0:	8fa300a8 	lw	v1,168(sp)
9d0047c4:	8c7e0000 	lw	s8,0(v1)
9d0047c8:	24750004 	addiu	s5,v1,4
9d0047cc:	26030002 	addiu	v1,s0,2
9d0047d0:	82020002 	lb	v0,2(s0)
9d0047d4:	afb500a8 	sw	s5,168(sp)
9d0047d8:	07c1fdf9 	bgez	s8,9d003fc0 <_do_print_cdfFnopsuxX+0x1b0>
9d0047dc:	00608021 	move	s0,v1
9d0047e0:	0b400ff0 	j	9d003fc0 <_do_print_cdfFnopsuxX+0x1b0>
9d0047e4:	241effff 	li	s8,-1
9d0047e8:	24020058 	li	v0,88
9d0047ec:	24030078 	li	v1,120
9d0047f0:	0064100a 	movz	v0,v1,a0
9d0047f4:	a2620000 	sb	v0,0(s3)
9d0047f8:	24020030 	li	v0,48
9d0047fc:	a262ffff 	sb	v0,-1(s3)
9d004800:	0b401091 	j	9d004244 <_do_print_cdfFnopsuxX+0x434>
9d004804:	2673fffe 	addiu	s3,s3,-2
9d004808:	27a20057 	addiu	v0,sp,87
9d00480c:	afa20070 	sw	v0,112(sp)
9d004810:	0b40107b 	j	9d0041ec <_do_print_cdfFnopsuxX+0x3dc>
9d004814:	00409821 	move	s3,v0
9d004818:	36f78000 	ori	s7,s7,0x8000
9d00481c:	26100001 	addiu	s0,s0,1
9d004820:	0b4010fa 	j	9d0043e8 <_do_print_cdfFnopsuxX+0x5d8>
9d004824:	26100001 	addiu	s0,s0,1
9d004828:	82620001 	lb	v0,1(s3)
9d00482c:	38420030 	xori	v0,v0,0x30
9d004830:	0002102b 	sltu	v0,zero,v0
9d004834:	0b4010cf 	j	9d00433c <_do_print_cdfFnopsuxX+0x52c>
9d004838:	00621823 	subu	v1,v1,v0
9d00483c:	8c430000 	lw	v1,0(v0)
9d004840:	00001021 	move	v0,zero
9d004844:	8fa400a8 	lw	a0,168(sp)
9d004848:	24840004 	addiu	a0,a0,4
9d00484c:	afa400a8 	sw	a0,168(sp)
9d004850:	8fa40068 	lw	a0,104(sp)
9d004854:	0b4010a1 	j	9d004284 <_do_print_cdfFnopsuxX+0x474>
9d004858:	ac640000 	sw	a0,0(v1)
9d00485c:	0f402d3b 	jal	9d00b4ec <strlen>
9d004860:	02002021 	move	a0,s0
9d004864:	0b4011b7 	j	9d0046dc <_do_print_cdfFnopsuxX+0x8cc>
9d004868:	afb70010 	sw	s7,16(sp)
9d00486c:	8c620000 	lw	v0,0(v1)
9d004870:	8fa40068 	lw	a0,104(sp)
9d004874:	00041fc3 	sra	v1,a0,0x1f
9d004878:	8fa400a8 	lw	a0,168(sp)
9d00487c:	24840004 	addiu	a0,a0,4
9d004880:	afa400a8 	sw	a0,168(sp)
9d004884:	8fa40068 	lw	a0,104(sp)
9d004888:	ac440000 	sw	a0,0(v0)
9d00488c:	ac430004 	sw	v1,4(v0)
9d004890:	0b4010a1 	j	9d004284 <_do_print_cdfFnopsuxX+0x474>
9d004894:	00001021 	move	v0,zero
9d004898:	8fa200a8 	lw	v0,168(sp)
9d00489c:	8c430000 	lw	v1,0(v0)
9d0048a0:	00001021 	move	v0,zero
9d0048a4:	8fa400a8 	lw	a0,168(sp)
9d0048a8:	24840004 	addiu	a0,a0,4
9d0048ac:	afa400a8 	sw	a0,168(sp)
9d0048b0:	11000005 	beqz	t0,9d0048c8 <_do_print_cdfFnopsuxX+0xab8>
9d0048b4:	8fa40068 	lw	a0,104(sp)
9d0048b8:	0b4010a1 	j	9d004284 <_do_print_cdfFnopsuxX+0x474>
9d0048bc:	a0640000 	sb	a0,0(v1)
9d0048c0:	0b4011b6 	j	9d0046d8 <_do_print_cdfFnopsuxX+0x8c8>
9d0048c4:	00001021 	move	v0,zero
9d0048c8:	0b4010a1 	j	9d004284 <_do_print_cdfFnopsuxX+0x474>
9d0048cc:	ac640000 	sw	a0,0(v1)

Disassembly of section .text.malloc:

9d0048d0 <malloc>:
9d0048d0:	27bdffc0 	addiu	sp,sp,-64
9d0048d4:	afbf003c 	sw	ra,60(sp)
9d0048d8:	afbe0038 	sw	s8,56(sp)
9d0048dc:	afb70034 	sw	s7,52(sp)
9d0048e0:	afb60030 	sw	s6,48(sp)
9d0048e4:	afb5002c 	sw	s5,44(sp)
9d0048e8:	afb40028 	sw	s4,40(sp)
9d0048ec:	afb30024 	sw	s3,36(sp)
9d0048f0:	afb20020 	sw	s2,32(sp)
9d0048f4:	afb1001c 	sw	s1,28(sp)
9d0048f8:	2482000b 	addiu	v0,a0,11
9d0048fc:	2c430017 	sltiu	v1,v0,23
9d004900:	10600022 	beqz	v1,9d00498c <malloc+0xbc>
9d004904:	afb00018 	sw	s0,24(sp)
9d004908:	2c840011 	sltiu	a0,a0,17
9d00490c:	10800090 	beqz	a0,9d004b50 <malloc+0x280>
9d004910:	24100010 	li	s0,16
9d004914:	3c11a000 	lui	s1,0xa000
9d004918:	263141fc 	addiu	s1,s1,16892
9d00491c:	02301821 	addu	v1,s1,s0
9d004920:	8c62000c 	lw	v0,12(v1)
9d004924:	104300c5 	beq	v0,v1,9d004c3c <malloc+0x36c>
9d004928:	001040c2 	srl	t0,s0,0x3
9d00492c:	8c450004 	lw	a1,4(v0)
9d004930:	8c44000c 	lw	a0,12(v0)
9d004934:	2403fffc 	li	v1,-4
9d004938:	00a31824 	and	v1,a1,v1
9d00493c:	00431821 	addu	v1,v0,v1
9d004940:	8c660004 	lw	a2,4(v1)
9d004944:	8c450008 	lw	a1,8(v0)
9d004948:	24420008 	addiu	v0,v0,8
9d00494c:	34c60001 	ori	a2,a2,0x1
9d004950:	aca4000c 	sw	a0,12(a1)
9d004954:	ac850008 	sw	a1,8(a0)
9d004958:	ac660004 	sw	a2,4(v1)
9d00495c:	8fbf003c 	lw	ra,60(sp)
9d004960:	8fbe0038 	lw	s8,56(sp)
9d004964:	8fb70034 	lw	s7,52(sp)
9d004968:	8fb60030 	lw	s6,48(sp)
9d00496c:	8fb5002c 	lw	s5,44(sp)
9d004970:	8fb40028 	lw	s4,40(sp)
9d004974:	8fb30024 	lw	s3,36(sp)
9d004978:	8fb20020 	lw	s2,32(sp)
9d00497c:	8fb1001c 	lw	s1,28(sp)
9d004980:	8fb00018 	lw	s0,24(sp)
9d004984:	03e00008 	jr	ra
9d004988:	27bd0040 	addiu	sp,sp,64
9d00498c:	2410fff8 	li	s0,-8
9d004990:	00508024 	and	s0,v0,s0
9d004994:	0600006e 	bltz	s0,9d004b50 <malloc+0x280>
9d004998:	0204202b 	sltu	a0,s0,a0
9d00499c:	1480006c 	bnez	a0,9d004b50 <malloc+0x280>
9d0049a0:	2e0201f8 	sltiu	v0,s0,504
9d0049a4:	1440ffdc 	bnez	v0,9d004918 <malloc+0x48>
9d0049a8:	3c11a000 	lui	s1,0xa000
9d0049ac:	00101242 	srl	v0,s0,0x9
9d0049b0:	1040000a 	beqz	v0,9d0049dc <malloc+0x10c>
9d0049b4:	2406007e 	li	a2,126
9d0049b8:	2c430005 	sltiu	v1,v0,5
9d0049bc:	14600043 	bnez	v1,9d004acc <malloc+0x1fc>
9d0049c0:	00104182 	srl	t0,s0,0x6
9d0049c4:	2c430015 	sltiu	v1,v0,21
9d0049c8:	10600107 	beqz	v1,9d004de8 <malloc+0x518>
9d0049cc:	2c430055 	sltiu	v1,v0,85
9d0049d0:	2448005b 	addiu	t0,v0,91
9d0049d4:	0b401279 	j	9d0049e4 <malloc+0x114>
9d0049d8:	00083040 	sll	a2,t0,0x1
9d0049dc:	2408003f 	li	t0,63
9d0049e0:	3c11a000 	lui	s1,0xa000
9d0049e4:	00063080 	sll	a2,a2,0x2
9d0049e8:	263141fc 	addiu	s1,s1,16892
9d0049ec:	02263021 	addu	a2,s1,a2
9d0049f0:	8cc2000c 	lw	v0,12(a2)
9d0049f4:	10c20015 	beq	a2,v0,9d004a4c <malloc+0x17c>
9d0049f8:	2403fffc 	li	v1,-4
9d0049fc:	8c440004 	lw	a0,4(v0)
9d004a00:	00832024 	and	a0,a0,v1
9d004a04:	00901823 	subu	v1,a0,s0
9d004a08:	28650010 	slti	a1,v1,16
9d004a0c:	50a0000f 	beqzl	a1,9d004a4c <malloc+0x17c>
9d004a10:	2508ffff 	addiu	t0,t0,-1
9d004a14:	0460000a 	bltz	v1,9d004a40 <malloc+0x170>
9d004a18:	2407fffc 	li	a3,-4
9d004a1c:	0b4012e4 	j	9d004b90 <malloc+0x2c0>
9d004a20:	00442021 	addu	a0,v0,a0
9d004a24:	00872024 	and	a0,a0,a3
9d004a28:	00901823 	subu	v1,a0,s0
9d004a2c:	28650010 	slti	a1,v1,16
9d004a30:	50a00006 	beqzl	a1,9d004a4c <malloc+0x17c>
9d004a34:	2508ffff 	addiu	t0,t0,-1
9d004a38:	04630055 	bgezl	v1,9d004b90 <malloc+0x2c0>
9d004a3c:	00442021 	addu	a0,v0,a0
9d004a40:	8c42000c 	lw	v0,12(v0)
9d004a44:	54c2fff7 	bnel	a2,v0,9d004a24 <malloc+0x154>
9d004a48:	8c440004 	lw	a0,4(v0)
9d004a4c:	25080001 	addiu	t0,t0,1
9d004a50:	8e220010 	lw	v0,16(s1)
9d004a54:	3c06a000 	lui	a2,0xa000
9d004a58:	24c64204 	addiu	a2,a2,16900
9d004a5c:	1046007d 	beq	v0,a2,9d004c54 <malloc+0x384>
9d004a60:	2403fffc 	li	v1,-4
9d004a64:	8c440004 	lw	a0,4(v0)
9d004a68:	00832024 	and	a0,a0,v1
9d004a6c:	00901823 	subu	v1,a0,s0
9d004a70:	28650010 	slti	a1,v1,16
9d004a74:	50a0005a 	beqzl	a1,9d004be0 <malloc+0x310>
9d004a78:	00502021 	addu	a0,v0,s0
9d004a7c:	ae260014 	sw	a2,20(s1)
9d004a80:	04600015 	bltz	v1,9d004ad8 <malloc+0x208>
9d004a84:	ae260010 	sw	a2,16(s1)
9d004a88:	00442021 	addu	a0,v0,a0
9d004a8c:	8c830004 	lw	v1,4(a0)
9d004a90:	24420008 	addiu	v0,v0,8
9d004a94:	34630001 	ori	v1,v1,0x1
9d004a98:	ac830004 	sw	v1,4(a0)
9d004a9c:	8fbf003c 	lw	ra,60(sp)
9d004aa0:	8fbe0038 	lw	s8,56(sp)
9d004aa4:	8fb70034 	lw	s7,52(sp)
9d004aa8:	8fb60030 	lw	s6,48(sp)
9d004aac:	8fb5002c 	lw	s5,44(sp)
9d004ab0:	8fb40028 	lw	s4,40(sp)
9d004ab4:	8fb30024 	lw	s3,36(sp)
9d004ab8:	8fb20020 	lw	s2,32(sp)
9d004abc:	8fb1001c 	lw	s1,28(sp)
9d004ac0:	8fb00018 	lw	s0,24(sp)
9d004ac4:	03e00008 	jr	ra
9d004ac8:	27bd0040 	addiu	sp,sp,64
9d004acc:	25080038 	addiu	t0,t0,56
9d004ad0:	0b401278 	j	9d0049e0 <malloc+0x110>
9d004ad4:	00083040 	sll	a2,t0,0x1
9d004ad8:	2c830200 	sltiu	v1,a0,512
9d004adc:	546000cb 	bnezl	v1,9d004e0c <malloc+0x53c>
9d004ae0:	000420c2 	srl	a0,a0,0x3
9d004ae4:	00041a42 	srl	v1,a0,0x9
9d004ae8:	2c650005 	sltiu	a1,v1,5
9d004aec:	10a00153 	beqz	a1,9d00503c <malloc+0x76c>
9d004af0:	2c650015 	sltiu	a1,v1,21
9d004af4:	00042982 	srl	a1,a0,0x6
9d004af8:	24a50038 	addiu	a1,a1,56
9d004afc:	000538c0 	sll	a3,a1,0x3
9d004b00:	02273821 	addu	a3,s1,a3
9d004b04:	8ce30008 	lw	v1,8(a3)
9d004b08:	50670159 	beql	v1,a3,9d005070 <malloc+0x7a0>
9d004b0c:	8e240004 	lw	a0,4(s1)
9d004b10:	2409fffc 	li	t1,-4
9d004b14:	8c650004 	lw	a1,4(v1)
9d004b18:	00a92824 	and	a1,a1,t1
9d004b1c:	0085282b 	sltu	a1,a0,a1
9d004b20:	50a00005 	beqzl	a1,9d004b38 <malloc+0x268>
9d004b24:	8c65000c 	lw	a1,12(v1)
9d004b28:	8c630008 	lw	v1,8(v1)
9d004b2c:	54e3fffa 	bnel	a3,v1,9d004b18 <malloc+0x248>
9d004b30:	8c650004 	lw	a1,4(v1)
9d004b34:	8c65000c 	lw	a1,12(v1)
9d004b38:	8e240004 	lw	a0,4(s1)
9d004b3c:	ac45000c 	sw	a1,12(v0)
9d004b40:	ac430008 	sw	v1,8(v0)
9d004b44:	aca20008 	sw	v0,8(a1)
9d004b48:	0b401316 	j	9d004c58 <malloc+0x388>
9d004b4c:	ac62000c 	sw	v0,12(v1)
9d004b50:	2403000c 	li	v1,12
9d004b54:	3c02a000 	lui	v0,0xa000
9d004b58:	ac430050 	sw	v1,80(v0)
9d004b5c:	00001021 	move	v0,zero
9d004b60:	8fbf003c 	lw	ra,60(sp)
9d004b64:	8fbe0038 	lw	s8,56(sp)
9d004b68:	8fb70034 	lw	s7,52(sp)
9d004b6c:	8fb60030 	lw	s6,48(sp)
9d004b70:	8fb5002c 	lw	s5,44(sp)
9d004b74:	8fb40028 	lw	s4,40(sp)
9d004b78:	8fb30024 	lw	s3,36(sp)
9d004b7c:	8fb20020 	lw	s2,32(sp)
9d004b80:	8fb1001c 	lw	s1,28(sp)
9d004b84:	8fb00018 	lw	s0,24(sp)
9d004b88:	03e00008 	jr	ra
9d004b8c:	27bd0040 	addiu	sp,sp,64
9d004b90:	8c860004 	lw	a2,4(a0)
9d004b94:	8c43000c 	lw	v1,12(v0)
9d004b98:	8c450008 	lw	a1,8(v0)
9d004b9c:	34c60001 	ori	a2,a2,0x1
9d004ba0:	24420008 	addiu	v0,v0,8
9d004ba4:	aca3000c 	sw	v1,12(a1)
9d004ba8:	ac650008 	sw	a1,8(v1)
9d004bac:	ac860004 	sw	a2,4(a0)
9d004bb0:	8fbf003c 	lw	ra,60(sp)
9d004bb4:	8fbe0038 	lw	s8,56(sp)
9d004bb8:	8fb70034 	lw	s7,52(sp)
9d004bbc:	8fb60030 	lw	s6,48(sp)
9d004bc0:	8fb5002c 	lw	s5,44(sp)
9d004bc4:	8fb40028 	lw	s4,40(sp)
9d004bc8:	8fb30024 	lw	s3,36(sp)
9d004bcc:	8fb20020 	lw	s2,32(sp)
9d004bd0:	8fb1001c 	lw	s1,28(sp)
9d004bd4:	8fb00018 	lw	s0,24(sp)
9d004bd8:	03e00008 	jr	ra
9d004bdc:	27bd0040 	addiu	sp,sp,64
9d004be0:	36100001 	ori	s0,s0,0x1
9d004be4:	34670001 	ori	a3,v1,0x1
9d004be8:	00832821 	addu	a1,a0,v1
9d004bec:	ac500004 	sw	s0,4(v0)
9d004bf0:	24420008 	addiu	v0,v0,8
9d004bf4:	ae240014 	sw	a0,20(s1)
9d004bf8:	ae240010 	sw	a0,16(s1)
9d004bfc:	ac86000c 	sw	a2,12(a0)
9d004c00:	ac860008 	sw	a2,8(a0)
9d004c04:	ac870004 	sw	a3,4(a0)
9d004c08:	aca30000 	sw	v1,0(a1)
9d004c0c:	8fbf003c 	lw	ra,60(sp)
9d004c10:	8fbe0038 	lw	s8,56(sp)
9d004c14:	8fb70034 	lw	s7,52(sp)
9d004c18:	8fb60030 	lw	s6,48(sp)
9d004c1c:	8fb5002c 	lw	s5,44(sp)
9d004c20:	8fb40028 	lw	s4,40(sp)
9d004c24:	8fb30024 	lw	s3,36(sp)
9d004c28:	8fb20020 	lw	s2,32(sp)
9d004c2c:	8fb1001c 	lw	s1,28(sp)
9d004c30:	8fb00018 	lw	s0,24(sp)
9d004c34:	03e00008 	jr	ra
9d004c38:	27bd0040 	addiu	sp,sp,64
9d004c3c:	24430008 	addiu	v1,v0,8
9d004c40:	8c420014 	lw	v0,20(v0)
9d004c44:	1062ff82 	beq	v1,v0,9d004a50 <malloc+0x180>
9d004c48:	25080002 	addiu	t0,t0,2
9d004c4c:	0b40124c 	j	9d004930 <malloc+0x60>
9d004c50:	8c450004 	lw	a1,4(v0)
9d004c54:	8e240004 	lw	a0,4(s1)
9d004c58:	00081083 	sra	v0,t0,0x2
9d004c5c:	24070001 	li	a3,1
9d004c60:	00473804 	sllv	a3,a3,v0
9d004c64:	0087102b 	sltu	v0,a0,a3
9d004c68:	5440002b 	bnezl	v0,9d004d18 <malloc+0x448>
9d004c6c:	8e320008 	lw	s2,8(s1)
9d004c70:	00871024 	and	v0,a0,a3
9d004c74:	50400073 	beqzl	v0,9d004e44 <malloc+0x574>
9d004c78:	00073840 	sll	a3,a3,0x1
9d004c7c:	240afffc 	li	t2,-4
9d004c80:	000858c0 	sll	t3,t0,0x3
9d004c84:	022b5821 	addu	t3,s1,t3
9d004c88:	01604821 	move	t1,t3
9d004c8c:	01006021 	move	t4,t0
9d004c90:	8d22000c 	lw	v0,12(t1)
9d004c94:	55220009 	bnel	t1,v0,9d004cbc <malloc+0x3ec>
9d004c98:	8c440004 	lw	a0,4(v0)
9d004c9c:	0b40139f 	j	9d004e7c <malloc+0x5ac>
9d004ca0:	258c0001 	addiu	t4,t4,1
9d004ca4:	04630093 	bgezl	v1,9d004ef4 <malloc+0x624>
9d004ca8:	00442021 	addu	a0,v0,a0
9d004cac:	8c42000c 	lw	v0,12(v0)
9d004cb0:	51220072 	beql	t1,v0,9d004e7c <malloc+0x5ac>
9d004cb4:	258c0001 	addiu	t4,t4,1
9d004cb8:	8c440004 	lw	a0,4(v0)
9d004cbc:	008a2024 	and	a0,a0,t2
9d004cc0:	00901823 	subu	v1,a0,s0
9d004cc4:	28650010 	slti	a1,v1,16
9d004cc8:	14a0fff6 	bnez	a1,9d004ca4 <malloc+0x3d4>
9d004ccc:	00000000 	nop
9d004cd0:	8c45000c 	lw	a1,12(v0)
9d004cd4:	8c470008 	lw	a3,8(v0)
9d004cd8:	00502021 	addu	a0,v0,s0
9d004cdc:	36100001 	ori	s0,s0,0x1
9d004ce0:	34690001 	ori	t1,v1,0x1
9d004ce4:	00834021 	addu	t0,a0,v1
9d004ce8:	ac500004 	sw	s0,4(v0)
9d004cec:	24420008 	addiu	v0,v0,8
9d004cf0:	ace5000c 	sw	a1,12(a3)
9d004cf4:	aca70008 	sw	a3,8(a1)
9d004cf8:	ae240014 	sw	a0,20(s1)
9d004cfc:	ae240010 	sw	a0,16(s1)
9d004d00:	ac86000c 	sw	a2,12(a0)
9d004d04:	ac860008 	sw	a2,8(a0)
9d004d08:	ac890004 	sw	t1,4(a0)
9d004d0c:	0b401257 	j	9d00495c <malloc+0x8c>
9d004d10:	ad030000 	sw	v1,0(t0)
9d004d14:	8e320008 	lw	s2,8(s1)
9d004d18:	8e540004 	lw	s4,4(s2)
9d004d1c:	2402fffc 	li	v0,-4
9d004d20:	0282a024 	and	s4,s4,v0
9d004d24:	0290102b 	sltu	v0,s4,s0
9d004d28:	14400004 	bnez	v0,9d004d3c <malloc+0x46c>
9d004d2c:	02901023 	subu	v0,s4,s0
9d004d30:	28430010 	slti	v1,v0,16
9d004d34:	10600025 	beqz	v1,9d004dcc <malloc+0x4fc>
9d004d38:	02501821 	addu	v1,s2,s0
9d004d3c:	3c02a000 	lui	v0,0xa000
9d004d40:	8c554790 	lw	s5,18320(v0)
9d004d44:	3c1ea000 	lui	s8,0xa000
9d004d48:	0254b821 	addu	s7,s2,s4
9d004d4c:	26b50010 	addiu	s5,s5,16
9d004d50:	0f4030f9 	jal	9d00c3e4 <getpagesize>
9d004d54:	02b0a821 	addu	s5,s5,s0
9d004d58:	0040b021 	move	s6,v0
9d004d5c:	8fc341f4 	lw	v1,16884(s8)
9d004d60:	2402ffff 	li	v0,-1
9d004d64:	10620004 	beq	v1,v0,9d004d78 <malloc+0x4a8>
9d004d68:	26a2ffff 	addiu	v0,s5,-1
9d004d6c:	00561021 	addu	v0,v0,s6
9d004d70:	0016a823 	negu	s5,s6
9d004d74:	02a2a824 	and	s5,s5,v0
9d004d78:	0f402f29 	jal	9d00bca4 <sbrk>
9d004d7c:	02a02021 	move	a0,s5
9d004d80:	00409821 	move	s3,v0
9d004d84:	2402ffff 	li	v0,-1
9d004d88:	52620007 	beql	s3,v0,9d004da8 <malloc+0x4d8>
9d004d8c:	8e320008 	lw	s2,8(s1)
9d004d90:	0277102b 	sltu	v0,s3,s7
9d004d94:	10400060 	beqz	v0,9d004f18 <malloc+0x648>
9d004d98:	3c03a000 	lui	v1,0xa000
9d004d9c:	5251005f 	beql	s2,s1,9d004f1c <malloc+0x64c>
9d004da0:	8c624760 	lw	v0,18272(v1)
9d004da4:	8e320008 	lw	s2,8(s1)
9d004da8:	8e430004 	lw	v1,4(s2)
9d004dac:	2402fffc 	li	v0,-4
9d004db0:	00621024 	and	v0,v1,v0
9d004db4:	0050182b 	sltu	v1,v0,s0
9d004db8:	146000a4 	bnez	v1,9d00504c <malloc+0x77c>
9d004dbc:	00501023 	subu	v0,v0,s0
9d004dc0:	28430010 	slti	v1,v0,16
9d004dc4:	146000a1 	bnez	v1,9d00504c <malloc+0x77c>
9d004dc8:	02501821 	addu	v1,s2,s0
9d004dcc:	36100001 	ori	s0,s0,0x1
9d004dd0:	34440001 	ori	a0,v0,0x1
9d004dd4:	ae500004 	sw	s0,4(s2)
9d004dd8:	26420008 	addiu	v0,s2,8
9d004ddc:	ae230008 	sw	v1,8(s1)
9d004de0:	0b401257 	j	9d00495c <malloc+0x8c>
9d004de4:	ac640004 	sw	a0,4(v1)
9d004de8:	14600021 	bnez	v1,9d004e70 <malloc+0x5a0>
9d004dec:	00104302 	srl	t0,s0,0xc
9d004df0:	2c430155 	sltiu	v1,v0,341
9d004df4:	1060008b 	beqz	v1,9d005024 <malloc+0x754>
9d004df8:	2c420555 	sltiu	v0,v0,1365
9d004dfc:	001043c2 	srl	t0,s0,0xf
9d004e00:	25080077 	addiu	t0,t0,119
9d004e04:	0b401278 	j	9d0049e0 <malloc+0x110>
9d004e08:	00083040 	sll	a2,t0,0x1
9d004e0c:	000418c0 	sll	v1,a0,0x3
9d004e10:	02231821 	addu	v1,s1,v1
9d004e14:	8e270004 	lw	a3,4(s1)
9d004e18:	8c650008 	lw	a1,8(v1)
9d004e1c:	00042083 	sra	a0,a0,0x2
9d004e20:	24090001 	li	t1,1
9d004e24:	00892004 	sllv	a0,t1,a0
9d004e28:	00872025 	or	a0,a0,a3
9d004e2c:	ac43000c 	sw	v1,12(v0)
9d004e30:	ac450008 	sw	a1,8(v0)
9d004e34:	ae240004 	sw	a0,4(s1)
9d004e38:	ac620008 	sw	v0,8(v1)
9d004e3c:	0b401316 	j	9d004c58 <malloc+0x388>
9d004e40:	aca2000c 	sw	v0,12(a1)
9d004e44:	2402fffc 	li	v0,-4
9d004e48:	01024024 	and	t0,t0,v0
9d004e4c:	00871024 	and	v0,a0,a3
9d004e50:	1440ff8a 	bnez	v0,9d004c7c <malloc+0x3ac>
9d004e54:	25080004 	addiu	t0,t0,4
9d004e58:	00073840 	sll	a3,a3,0x1
9d004e5c:	00871024 	and	v0,a0,a3
9d004e60:	1040fffd 	beqz	v0,9d004e58 <malloc+0x588>
9d004e64:	25080004 	addiu	t0,t0,4
9d004e68:	0b401320 	j	9d004c80 <malloc+0x3b0>
9d004e6c:	240afffc 	li	t2,-4
9d004e70:	2508006e 	addiu	t0,t0,110
9d004e74:	0b401278 	j	9d0049e0 <malloc+0x110>
9d004e78:	00083040 	sll	a2,t0,0x1
9d004e7c:	31820003 	andi	v0,t4,0x3
9d004e80:	1440ff83 	bnez	v0,9d004c90 <malloc+0x3c0>
9d004e84:	25290008 	addiu	t1,t1,8
9d004e88:	0b4013a7 	j	9d004e9c <malloc+0x5cc>
9d004e8c:	2562fff8 	addiu	v0,t3,-8
9d004e90:	15620009 	bne	t3,v0,9d004eb8 <malloc+0x5e8>
9d004e94:	2508ffff 	addiu	t0,t0,-1
9d004e98:	2562fff8 	addiu	v0,t3,-8
9d004e9c:	31030003 	andi	v1,t0,0x3
9d004ea0:	5460fffb 	bnezl	v1,9d004e90 <malloc+0x5c0>
9d004ea4:	8d6b0000 	lw	t3,0(t3)
9d004ea8:	8e220004 	lw	v0,4(s1)
9d004eac:	00071827 	nor	v1,zero,a3
9d004eb0:	00621024 	and	v0,v1,v0
9d004eb4:	ae220004 	sw	v0,4(s1)
9d004eb8:	8e220004 	lw	v0,4(s1)
9d004ebc:	00073840 	sll	a3,a3,0x1
9d004ec0:	0047182b 	sltu	v1,v0,a3
9d004ec4:	5460ff94 	bnezl	v1,9d004d18 <malloc+0x448>
9d004ec8:	8e320008 	lw	s2,8(s1)
9d004ecc:	10e0ff91 	beqz	a3,9d004d14 <malloc+0x444>
9d004ed0:	00e21824 	and	v1,a3,v0
9d004ed4:	1460ff6a 	bnez	v1,9d004c80 <malloc+0x3b0>
9d004ed8:	01804021 	move	t0,t4
9d004edc:	00073840 	sll	a3,a3,0x1
9d004ee0:	00e21824 	and	v1,a3,v0
9d004ee4:	1060fffd 	beqz	v1,9d004edc <malloc+0x60c>
9d004ee8:	25080004 	addiu	t0,t0,4
9d004eec:	0b401321 	j	9d004c84 <malloc+0x3b4>
9d004ef0:	000858c0 	sll	t3,t0,0x3
9d004ef4:	8c860004 	lw	a2,4(a0)
9d004ef8:	8c43000c 	lw	v1,12(v0)
9d004efc:	8c450008 	lw	a1,8(v0)
9d004f00:	34c60001 	ori	a2,a2,0x1
9d004f04:	ac860004 	sw	a2,4(a0)
9d004f08:	24420008 	addiu	v0,v0,8
9d004f0c:	aca3000c 	sw	v1,12(a1)
9d004f10:	0b401257 	j	9d00495c <malloc+0x8c>
9d004f14:	ac650008 	sw	a1,8(v1)
9d004f18:	8c624760 	lw	v0,18272(v1)
9d004f1c:	26c5ffff 	addiu	a1,s6,-1
9d004f20:	02a21021 	addu	v0,s5,v0
9d004f24:	12f3005e 	beq	s7,s3,9d0050a0 <malloc+0x7d0>
9d004f28:	ac624760 	sw	v0,18272(v1)
9d004f2c:	8fc641f4 	lw	a2,16884(s8)
9d004f30:	2404ffff 	li	a0,-1
9d004f34:	50c4006a 	beql	a2,a0,9d0050e0 <malloc+0x810>
9d004f38:	3c02a000 	lui	v0,0xa000
9d004f3c:	0277b823 	subu	s7,s3,s7
9d004f40:	00571021 	addu	v0,v0,s7
9d004f44:	ac624760 	sw	v0,18272(v1)
9d004f48:	32640007 	andi	a0,s3,0x7
9d004f4c:	10800004 	beqz	a0,9d004f60 <malloc+0x690>
9d004f50:	00001021 	move	v0,zero
9d004f54:	24020008 	li	v0,8
9d004f58:	00441023 	subu	v0,v0,a0
9d004f5c:	02629821 	addu	s3,s3,v0
9d004f60:	0275a821 	addu	s5,s3,s5
9d004f64:	00561021 	addu	v0,v0,s6
9d004f68:	02a52824 	and	a1,s5,a1
9d004f6c:	0045a823 	subu	s5,v0,a1
9d004f70:	02a02021 	move	a0,s5
9d004f74:	0f402f29 	jal	9d00bca4 <sbrk>
9d004f78:	afa30010 	sw	v1,16(sp)
9d004f7c:	2404ffff 	li	a0,-1
9d004f80:	10440054 	beq	v0,a0,9d0050d4 <malloc+0x804>
9d004f84:	8fa30010 	lw	v1,16(sp)
9d004f88:	00531023 	subu	v0,v0,s3
9d004f8c:	02a22021 	addu	a0,s5,v0
9d004f90:	34840001 	ori	a0,a0,0x1
9d004f94:	8c624760 	lw	v0,18272(v1)
9d004f98:	ae330008 	sw	s3,8(s1)
9d004f9c:	02a21021 	addu	v0,s5,v0
9d004fa0:	ac624760 	sw	v0,18272(v1)
9d004fa4:	12510010 	beq	s2,s1,9d004fe8 <malloc+0x718>
9d004fa8:	ae640004 	sw	a0,4(s3)
9d004fac:	2e830010 	sltiu	v1,s4,16
9d004fb0:	1460002a 	bnez	v1,9d00505c <malloc+0x78c>
9d004fb4:	2403fff8 	li	v1,-8
9d004fb8:	2694fff4 	addiu	s4,s4,-12
9d004fbc:	02831824 	and	v1,s4,v1
9d004fc0:	02432021 	addu	a0,s2,v1
9d004fc4:	24050005 	li	a1,5
9d004fc8:	ac850004 	sw	a1,4(a0)
9d004fcc:	ac850008 	sw	a1,8(a0)
9d004fd0:	8e450004 	lw	a1,4(s2)
9d004fd4:	2c640010 	sltiu	a0,v1,16
9d004fd8:	30a50001 	andi	a1,a1,0x1
9d004fdc:	00651825 	or	v1,v1,a1
9d004fe0:	10800037 	beqz	a0,9d0050c0 <malloc+0x7f0>
9d004fe4:	ae430004 	sw	v1,4(s2)
9d004fe8:	3c03a000 	lui	v1,0xa000
9d004fec:	8c64478c 	lw	a0,18316(v1)
9d004ff0:	0082202b 	sltu	a0,a0,v0
9d004ff4:	54800001 	bnezl	a0,9d004ffc <malloc+0x72c>
9d004ff8:	ac62478c 	sw	v0,18316(v1)
9d004ffc:	3c03a000 	lui	v1,0xa000
9d005000:	8c644788 	lw	a0,18312(v1)
9d005004:	0082202b 	sltu	a0,a0,v0
9d005008:	10800002 	beqz	a0,9d005014 <malloc+0x744>
9d00500c:	8e320008 	lw	s2,8(s1)
9d005010:	ac624788 	sw	v0,18312(v1)
9d005014:	8e430004 	lw	v1,4(s2)
9d005018:	2402fffc 	li	v0,-4
9d00501c:	0b40136d 	j	9d004db4 <malloc+0x4e4>
9d005020:	00621024 	and	v0,v1,v0
9d005024:	5040000b 	beqzl	v0,9d005054 <malloc+0x784>
9d005028:	240600fc 	li	a2,252
9d00502c:	00104482 	srl	t0,s0,0x12
9d005030:	2508007c 	addiu	t0,t0,124
9d005034:	0b401278 	j	9d0049e0 <malloc+0x110>
9d005038:	00083040 	sll	a2,t0,0x1
9d00503c:	50a00013 	beqzl	a1,9d00508c <malloc+0x7bc>
9d005040:	2c650055 	sltiu	a1,v1,85
9d005044:	0b4012bf 	j	9d004afc <malloc+0x22c>
9d005048:	2465005b 	addiu	a1,v1,91
9d00504c:	0b401257 	j	9d00495c <malloc+0x8c>
9d005050:	00001021 	move	v0,zero
9d005054:	0b401278 	j	9d0049e0 <malloc+0x110>
9d005058:	2408007e 	li	t0,126
9d00505c:	24020001 	li	v0,1
9d005060:	ae620004 	sw	v0,4(s3)
9d005064:	02609021 	move	s2,s3
9d005068:	0b40136d 	j	9d004db4 <malloc+0x4e4>
9d00506c:	00001021 	move	v0,zero
9d005070:	00052883 	sra	a1,a1,0x2
9d005074:	24070001 	li	a3,1
9d005078:	00a72804 	sllv	a1,a3,a1
9d00507c:	00a42025 	or	a0,a1,a0
9d005080:	ae240004 	sw	a0,4(s1)
9d005084:	0b4012cf 	j	9d004b3c <malloc+0x26c>
9d005088:	00602821 	move	a1,v1
9d00508c:	50a00016 	beqzl	a1,9d0050e8 <malloc+0x818>
9d005090:	2c650155 	sltiu	a1,v1,341
9d005094:	00042b02 	srl	a1,a0,0xc
9d005098:	0b4012bf 	j	9d004afc <malloc+0x22c>
9d00509c:	24a5006e 	addiu	a1,a1,110
9d0050a0:	02e52024 	and	a0,s7,a1
9d0050a4:	5480ffa2 	bnezl	a0,9d004f30 <malloc+0x660>
9d0050a8:	8fc641f4 	lw	a2,16884(s8)
9d0050ac:	8e230008 	lw	v1,8(s1)
9d0050b0:	02b42021 	addu	a0,s5,s4
9d0050b4:	34840001 	ori	a0,a0,0x1
9d0050b8:	0b4013fa 	j	9d004fe8 <malloc+0x718>
9d0050bc:	ac640004 	sw	a0,4(v1)
9d0050c0:	0f4022e7 	jal	9d008b9c <free>
9d0050c4:	26440008 	addiu	a0,s2,8
9d0050c8:	3c02a000 	lui	v0,0xa000
9d0050cc:	0b4013fa 	j	9d004fe8 <malloc+0x718>
9d0050d0:	8c424760 	lw	v0,18272(v0)
9d0050d4:	24040001 	li	a0,1
9d0050d8:	0b4013e5 	j	9d004f94 <malloc+0x6c4>
9d0050dc:	0000a821 	move	s5,zero
9d0050e0:	0b4013d2 	j	9d004f48 <malloc+0x678>
9d0050e4:	ac5341f4 	sw	s3,16884(v0)
9d0050e8:	10a00004 	beqz	a1,9d0050fc <malloc+0x82c>
9d0050ec:	2c630555 	sltiu	v1,v1,1365
9d0050f0:	00042bc2 	srl	a1,a0,0xf
9d0050f4:	0b4012bf 	j	9d004afc <malloc+0x22c>
9d0050f8:	24a50077 	addiu	a1,a1,119
9d0050fc:	1060fe7f 	beqz	v1,9d004afc <malloc+0x22c>
9d005100:	2405007e 	li	a1,126
9d005104:	00042c82 	srl	a1,a0,0x12
9d005108:	0b4012bf 	j	9d004afc <malloc+0x22c>
9d00510c:	24a5007c 	addiu	a1,a1,124

Disassembly of section .dinit:

9d005110 <.dinit>:
9d005110:	a0000054 	sb	zero,84(zero)
9d005114:	000041a0 	0x41a0
9d005118:	00000000 	nop
9d00511c:	a0000000 	sb	zero,0(zero)
9d005120:	00000014 	0x14
9d005124:	00000001 	movf	zero,zero,$fcc0
9d005128:	43480000 	c0	0x1480000
9d00512c:	459c4000 	0x459c4000
9d005130:	43160000 	c0	0x1160000
9d005134:	3f800000 	0x3f800000
9d005138:	41a00000 	0x41a00000
9d00513c:	a000001c 	sb	zero,28(zero)
9d005140:	00000030 	tge	zero,zero
9d005144:	00000000 	nop
9d005148:	a000004c 	sb	zero,76(zero)
9d00514c:	00000004 	sllv	zero,zero,zero
9d005150:	00000000 	nop
9d005154:	a0004604 	sb	zero,17924(zero)
9d005158:	000000d4 	0xd4
9d00515c:	00000001 	movf	zero,zero,$fcc0
9d005160:	a0004668 	sb	zero,18024(zero)
9d005164:	a0004684 	sb	zero,18052(zero)
9d005168:	a00046a0 	sb	zero,18080(zero)
9d00516c:	a0004664 	sb	zero,18020(zero)
9d005170:	a00046d8 	sb	zero,18136(zero)
9d005174:	00000001 	movf	zero,zero,$fcc0
	...
9d0051c4:	ffffffff 	sdc3	$31,-1(ra)
9d0051c8:	ffffffff 	sdc3	$31,-1(ra)
9d0051cc:	00000000 	nop
9d0051d0:	00000040 	ssnop
9d0051d4:	00001009 	jalr	v0,zero
9d0051d8:	00000000 	nop
9d0051dc:	9d00c2a0 	0x9d00c2a0
9d0051e0:	ffffffff 	sdc3	$31,-1(ra)
	...
9d0051f0:	00011002 	srl	v0,at,0x0
9d0051f4:	00000000 	nop
9d0051f8:	9d00c2a0 	0x9d00c2a0
9d0051fc:	ffffffff 	sdc3	$31,-1(ra)
	...
9d00520c:	00020002 	srl	zero,v0,0x0
9d005210:	00000000 	nop
9d005214:	9d00c2a0 	0x9d00c2a0
9d005218:	fffffffd 	sdc3	$31,-3(ra)
	...
9d005234:	a00046d8 	sb	zero,18136(zero)
9d005238:	00000088 	0x88
9d00523c:	00000000 	nop
9d005240:	a0000014 	sb	zero,20(zero)
9d005244:	00000004 	sllv	zero,zero,zero
9d005248:	00000001 	movf	zero,zero,$fcc0
9d00524c:	a0004604 	sb	zero,17924(zero)
9d005250:	a00047d8 	sb	zero,18392(zero)
9d005254:	00000004 	sllv	zero,zero,zero
9d005258:	00000000 	nop
9d00525c:	a00041f4 	sb	zero,16884(zero)
9d005260:	00000410 	0x410
9d005264:	00000001 	movf	zero,zero,$fcc0
9d005268:	ffffffff 	sdc3	$31,-1(ra)
9d00526c:	00002000 	sll	a0,zero,0x0
	...
9d005278:	a00041fc 	sb	zero,16892(zero)
9d00527c:	a00041fc 	sb	zero,16892(zero)
9d005280:	a0004204 	sb	zero,16900(zero)
9d005284:	a0004204 	sb	zero,16900(zero)
9d005288:	a000420c 	sb	zero,16908(zero)
9d00528c:	a000420c 	sb	zero,16908(zero)
9d005290:	a0004214 	sb	zero,16916(zero)
9d005294:	a0004214 	sb	zero,16916(zero)
9d005298:	a000421c 	sb	zero,16924(zero)
9d00529c:	a000421c 	sb	zero,16924(zero)
9d0052a0:	a0004224 	sb	zero,16932(zero)
9d0052a4:	a0004224 	sb	zero,16932(zero)
9d0052a8:	a000422c 	sb	zero,16940(zero)
9d0052ac:	a000422c 	sb	zero,16940(zero)
9d0052b0:	a0004234 	sb	zero,16948(zero)
9d0052b4:	a0004234 	sb	zero,16948(zero)
9d0052b8:	a000423c 	sb	zero,16956(zero)
9d0052bc:	a000423c 	sb	zero,16956(zero)
9d0052c0:	a0004244 	sb	zero,16964(zero)
9d0052c4:	a0004244 	sb	zero,16964(zero)
9d0052c8:	a000424c 	sb	zero,16972(zero)
9d0052cc:	a000424c 	sb	zero,16972(zero)
9d0052d0:	a0004254 	sb	zero,16980(zero)
9d0052d4:	a0004254 	sb	zero,16980(zero)
9d0052d8:	a000425c 	sb	zero,16988(zero)
9d0052dc:	a000425c 	sb	zero,16988(zero)
9d0052e0:	a0004264 	sb	zero,16996(zero)
9d0052e4:	a0004264 	sb	zero,16996(zero)
9d0052e8:	a000426c 	sb	zero,17004(zero)
9d0052ec:	a000426c 	sb	zero,17004(zero)
9d0052f0:	a0004274 	sb	zero,17012(zero)
9d0052f4:	a0004274 	sb	zero,17012(zero)
9d0052f8:	a000427c 	sb	zero,17020(zero)
9d0052fc:	a000427c 	sb	zero,17020(zero)
9d005300:	a0004284 	sb	zero,17028(zero)
9d005304:	a0004284 	sb	zero,17028(zero)
9d005308:	a000428c 	sb	zero,17036(zero)
9d00530c:	a000428c 	sb	zero,17036(zero)
9d005310:	a0004294 	sb	zero,17044(zero)
9d005314:	a0004294 	sb	zero,17044(zero)
9d005318:	a000429c 	sb	zero,17052(zero)
9d00531c:	a000429c 	sb	zero,17052(zero)
9d005320:	a00042a4 	sb	zero,17060(zero)
9d005324:	a00042a4 	sb	zero,17060(zero)
9d005328:	a00042ac 	sb	zero,17068(zero)
9d00532c:	a00042ac 	sb	zero,17068(zero)
9d005330:	a00042b4 	sb	zero,17076(zero)
9d005334:	a00042b4 	sb	zero,17076(zero)
9d005338:	a00042bc 	sb	zero,17084(zero)
9d00533c:	a00042bc 	sb	zero,17084(zero)
9d005340:	a00042c4 	sb	zero,17092(zero)
9d005344:	a00042c4 	sb	zero,17092(zero)
9d005348:	a00042cc 	sb	zero,17100(zero)
9d00534c:	a00042cc 	sb	zero,17100(zero)
9d005350:	a00042d4 	sb	zero,17108(zero)
9d005354:	a00042d4 	sb	zero,17108(zero)
9d005358:	a00042dc 	sb	zero,17116(zero)
9d00535c:	a00042dc 	sb	zero,17116(zero)
9d005360:	a00042e4 	sb	zero,17124(zero)
9d005364:	a00042e4 	sb	zero,17124(zero)
9d005368:	a00042ec 	sb	zero,17132(zero)
9d00536c:	a00042ec 	sb	zero,17132(zero)
9d005370:	a00042f4 	sb	zero,17140(zero)
9d005374:	a00042f4 	sb	zero,17140(zero)
9d005378:	a00042fc 	sb	zero,17148(zero)
9d00537c:	a00042fc 	sb	zero,17148(zero)
9d005380:	a0004304 	sb	zero,17156(zero)
9d005384:	a0004304 	sb	zero,17156(zero)
9d005388:	a000430c 	sb	zero,17164(zero)
9d00538c:	a000430c 	sb	zero,17164(zero)
9d005390:	a0004314 	sb	zero,17172(zero)
9d005394:	a0004314 	sb	zero,17172(zero)
9d005398:	a000431c 	sb	zero,17180(zero)
9d00539c:	a000431c 	sb	zero,17180(zero)
9d0053a0:	a0004324 	sb	zero,17188(zero)
9d0053a4:	a0004324 	sb	zero,17188(zero)
9d0053a8:	a000432c 	sb	zero,17196(zero)
9d0053ac:	a000432c 	sb	zero,17196(zero)
9d0053b0:	a0004334 	sb	zero,17204(zero)
9d0053b4:	a0004334 	sb	zero,17204(zero)
9d0053b8:	a000433c 	sb	zero,17212(zero)
9d0053bc:	a000433c 	sb	zero,17212(zero)
9d0053c0:	a0004344 	sb	zero,17220(zero)
9d0053c4:	a0004344 	sb	zero,17220(zero)
9d0053c8:	a000434c 	sb	zero,17228(zero)
9d0053cc:	a000434c 	sb	zero,17228(zero)
9d0053d0:	a0004354 	sb	zero,17236(zero)
9d0053d4:	a0004354 	sb	zero,17236(zero)
9d0053d8:	a000435c 	sb	zero,17244(zero)
9d0053dc:	a000435c 	sb	zero,17244(zero)
9d0053e0:	a0004364 	sb	zero,17252(zero)
9d0053e4:	a0004364 	sb	zero,17252(zero)
9d0053e8:	a000436c 	sb	zero,17260(zero)
9d0053ec:	a000436c 	sb	zero,17260(zero)
9d0053f0:	a0004374 	sb	zero,17268(zero)
9d0053f4:	a0004374 	sb	zero,17268(zero)
9d0053f8:	a000437c 	sb	zero,17276(zero)
9d0053fc:	a000437c 	sb	zero,17276(zero)
9d005400:	a0004384 	sb	zero,17284(zero)
9d005404:	a0004384 	sb	zero,17284(zero)
9d005408:	a000438c 	sb	zero,17292(zero)
9d00540c:	a000438c 	sb	zero,17292(zero)
9d005410:	a0004394 	sb	zero,17300(zero)
9d005414:	a0004394 	sb	zero,17300(zero)
9d005418:	a000439c 	sb	zero,17308(zero)
9d00541c:	a000439c 	sb	zero,17308(zero)
9d005420:	a00043a4 	sb	zero,17316(zero)
9d005424:	a00043a4 	sb	zero,17316(zero)
9d005428:	a00043ac 	sb	zero,17324(zero)
9d00542c:	a00043ac 	sb	zero,17324(zero)
9d005430:	a00043b4 	sb	zero,17332(zero)
9d005434:	a00043b4 	sb	zero,17332(zero)
9d005438:	a00043bc 	sb	zero,17340(zero)
9d00543c:	a00043bc 	sb	zero,17340(zero)
9d005440:	a00043c4 	sb	zero,17348(zero)
9d005444:	a00043c4 	sb	zero,17348(zero)
9d005448:	a00043cc 	sb	zero,17356(zero)
9d00544c:	a00043cc 	sb	zero,17356(zero)
9d005450:	a00043d4 	sb	zero,17364(zero)
9d005454:	a00043d4 	sb	zero,17364(zero)
9d005458:	a00043dc 	sb	zero,17372(zero)
9d00545c:	a00043dc 	sb	zero,17372(zero)
9d005460:	a00043e4 	sb	zero,17380(zero)
9d005464:	a00043e4 	sb	zero,17380(zero)
9d005468:	a00043ec 	sb	zero,17388(zero)
9d00546c:	a00043ec 	sb	zero,17388(zero)
9d005470:	a00043f4 	sb	zero,17396(zero)
9d005474:	a00043f4 	sb	zero,17396(zero)
9d005478:	a00043fc 	sb	zero,17404(zero)
9d00547c:	a00043fc 	sb	zero,17404(zero)
9d005480:	a0004404 	sb	zero,17412(zero)
9d005484:	a0004404 	sb	zero,17412(zero)
9d005488:	a000440c 	sb	zero,17420(zero)
9d00548c:	a000440c 	sb	zero,17420(zero)
9d005490:	a0004414 	sb	zero,17428(zero)
9d005494:	a0004414 	sb	zero,17428(zero)
9d005498:	a000441c 	sb	zero,17436(zero)
9d00549c:	a000441c 	sb	zero,17436(zero)
9d0054a0:	a0004424 	sb	zero,17444(zero)
9d0054a4:	a0004424 	sb	zero,17444(zero)
9d0054a8:	a000442c 	sb	zero,17452(zero)
9d0054ac:	a000442c 	sb	zero,17452(zero)
9d0054b0:	a0004434 	sb	zero,17460(zero)
9d0054b4:	a0004434 	sb	zero,17460(zero)
9d0054b8:	a000443c 	sb	zero,17468(zero)
9d0054bc:	a000443c 	sb	zero,17468(zero)
9d0054c0:	a0004444 	sb	zero,17476(zero)
9d0054c4:	a0004444 	sb	zero,17476(zero)
9d0054c8:	a000444c 	sb	zero,17484(zero)
9d0054cc:	a000444c 	sb	zero,17484(zero)
9d0054d0:	a0004454 	sb	zero,17492(zero)
9d0054d4:	a0004454 	sb	zero,17492(zero)
9d0054d8:	a000445c 	sb	zero,17500(zero)
9d0054dc:	a000445c 	sb	zero,17500(zero)
9d0054e0:	a0004464 	sb	zero,17508(zero)
9d0054e4:	a0004464 	sb	zero,17508(zero)
9d0054e8:	a000446c 	sb	zero,17516(zero)
9d0054ec:	a000446c 	sb	zero,17516(zero)
9d0054f0:	a0004474 	sb	zero,17524(zero)
9d0054f4:	a0004474 	sb	zero,17524(zero)
9d0054f8:	a000447c 	sb	zero,17532(zero)
9d0054fc:	a000447c 	sb	zero,17532(zero)
9d005500:	a0004484 	sb	zero,17540(zero)
9d005504:	a0004484 	sb	zero,17540(zero)
9d005508:	a000448c 	sb	zero,17548(zero)
9d00550c:	a000448c 	sb	zero,17548(zero)
9d005510:	a0004494 	sb	zero,17556(zero)
9d005514:	a0004494 	sb	zero,17556(zero)
9d005518:	a000449c 	sb	zero,17564(zero)
9d00551c:	a000449c 	sb	zero,17564(zero)
9d005520:	a00044a4 	sb	zero,17572(zero)
9d005524:	a00044a4 	sb	zero,17572(zero)
9d005528:	a00044ac 	sb	zero,17580(zero)
9d00552c:	a00044ac 	sb	zero,17580(zero)
9d005530:	a00044b4 	sb	zero,17588(zero)
9d005534:	a00044b4 	sb	zero,17588(zero)
9d005538:	a00044bc 	sb	zero,17596(zero)
9d00553c:	a00044bc 	sb	zero,17596(zero)
9d005540:	a00044c4 	sb	zero,17604(zero)
9d005544:	a00044c4 	sb	zero,17604(zero)
9d005548:	a00044cc 	sb	zero,17612(zero)
9d00554c:	a00044cc 	sb	zero,17612(zero)
9d005550:	a00044d4 	sb	zero,17620(zero)
9d005554:	a00044d4 	sb	zero,17620(zero)
9d005558:	a00044dc 	sb	zero,17628(zero)
9d00555c:	a00044dc 	sb	zero,17628(zero)
9d005560:	a00044e4 	sb	zero,17636(zero)
9d005564:	a00044e4 	sb	zero,17636(zero)
9d005568:	a00044ec 	sb	zero,17644(zero)
9d00556c:	a00044ec 	sb	zero,17644(zero)
9d005570:	a00044f4 	sb	zero,17652(zero)
9d005574:	a00044f4 	sb	zero,17652(zero)
9d005578:	a00044fc 	sb	zero,17660(zero)
9d00557c:	a00044fc 	sb	zero,17660(zero)
9d005580:	a0004504 	sb	zero,17668(zero)
9d005584:	a0004504 	sb	zero,17668(zero)
9d005588:	a000450c 	sb	zero,17676(zero)
9d00558c:	a000450c 	sb	zero,17676(zero)
9d005590:	a0004514 	sb	zero,17684(zero)
9d005594:	a0004514 	sb	zero,17684(zero)
9d005598:	a000451c 	sb	zero,17692(zero)
9d00559c:	a000451c 	sb	zero,17692(zero)
9d0055a0:	a0004524 	sb	zero,17700(zero)
9d0055a4:	a0004524 	sb	zero,17700(zero)
9d0055a8:	a000452c 	sb	zero,17708(zero)
9d0055ac:	a000452c 	sb	zero,17708(zero)
9d0055b0:	a0004534 	sb	zero,17716(zero)
9d0055b4:	a0004534 	sb	zero,17716(zero)
9d0055b8:	a000453c 	sb	zero,17724(zero)
9d0055bc:	a000453c 	sb	zero,17724(zero)
9d0055c0:	a0004544 	sb	zero,17732(zero)
9d0055c4:	a0004544 	sb	zero,17732(zero)
9d0055c8:	a000454c 	sb	zero,17740(zero)
9d0055cc:	a000454c 	sb	zero,17740(zero)
9d0055d0:	a0004554 	sb	zero,17748(zero)
9d0055d4:	a0004554 	sb	zero,17748(zero)
9d0055d8:	a000455c 	sb	zero,17756(zero)
9d0055dc:	a000455c 	sb	zero,17756(zero)
9d0055e0:	a0004564 	sb	zero,17764(zero)
9d0055e4:	a0004564 	sb	zero,17764(zero)
9d0055e8:	a000456c 	sb	zero,17772(zero)
9d0055ec:	a000456c 	sb	zero,17772(zero)
9d0055f0:	a0004574 	sb	zero,17780(zero)
9d0055f4:	a0004574 	sb	zero,17780(zero)
9d0055f8:	a000457c 	sb	zero,17788(zero)
9d0055fc:	a000457c 	sb	zero,17788(zero)
9d005600:	a0004584 	sb	zero,17796(zero)
9d005604:	a0004584 	sb	zero,17796(zero)
9d005608:	a000458c 	sb	zero,17804(zero)
9d00560c:	a000458c 	sb	zero,17804(zero)
9d005610:	a0004594 	sb	zero,17812(zero)
9d005614:	a0004594 	sb	zero,17812(zero)
9d005618:	a000459c 	sb	zero,17820(zero)
9d00561c:	a000459c 	sb	zero,17820(zero)
9d005620:	a00045a4 	sb	zero,17828(zero)
9d005624:	a00045a4 	sb	zero,17828(zero)
9d005628:	a00045ac 	sb	zero,17836(zero)
9d00562c:	a00045ac 	sb	zero,17836(zero)
9d005630:	a00045b4 	sb	zero,17844(zero)
9d005634:	a00045b4 	sb	zero,17844(zero)
9d005638:	a00045bc 	sb	zero,17852(zero)
9d00563c:	a00045bc 	sb	zero,17852(zero)
9d005640:	a00045c4 	sb	zero,17860(zero)
9d005644:	a00045c4 	sb	zero,17860(zero)
9d005648:	a00045cc 	sb	zero,17868(zero)
9d00564c:	a00045cc 	sb	zero,17868(zero)
9d005650:	a00045d4 	sb	zero,17876(zero)
9d005654:	a00045d4 	sb	zero,17876(zero)
9d005658:	a00045dc 	sb	zero,17884(zero)
9d00565c:	a00045dc 	sb	zero,17884(zero)
9d005660:	a00045e4 	sb	zero,17892(zero)
9d005664:	a00045e4 	sb	zero,17892(zero)
9d005668:	a00045ec 	sb	zero,17900(zero)
9d00566c:	a00045ec 	sb	zero,17900(zero)
9d005670:	a00045f4 	sb	zero,17908(zero)
9d005674:	a00045f4 	sb	zero,17908(zero)
9d005678:	a0004760 	sb	zero,18272(zero)
9d00567c:	00000034 	teq	zero,zero
9d005680:	00000000 	nop
9d005684:	a0000050 	sb	zero,80(zero)
9d005688:	00000004 	sllv	zero,zero,zero
9d00568c:	00000000 	nop
9d005690:	a00047b8 	sb	zero,18360(zero)
9d005694:	00000020 	add	zero,zero,zero
9d005698:	00000001 	movf	zero,zero,$fcc0
9d00569c:	00000000 	nop
9d0056a0:	ffffffff 	sdc3	$31,-1(ra)
	...
9d0056bc:	a00047dc 	sb	zero,18396(zero)
9d0056c0:	00000004 	sllv	zero,zero,zero
9d0056c4:	00000000 	nop
9d0056c8:	a0004794 	sb	zero,18324(zero)
9d0056cc:	00000024 	and	zero,zero,zero
9d0056d0:	00000000 	nop
9d0056d4:	a0000018 	sb	zero,24(zero)
9d0056d8:	00000004 	sllv	zero,zero,zero
9d0056dc:	00000001 	movf	zero,zero,$fcc0
9d0056e0:	00000002 	srl	zero,zero,0x0
9d0056e4:	00000000 	nop
9d0056e8:	22222222 	addi	v0,s1,8738
9d0056ec:	22222222 	addi	v0,s1,8738

Disassembly of section .text.realloc:

9d0056f0 <realloc>:
9d0056f0:	27bdffc8 	addiu	sp,sp,-56
9d0056f4:	afbf0034 	sw	ra,52(sp)
9d0056f8:	afbe0030 	sw	s8,48(sp)
9d0056fc:	afb7002c 	sw	s7,44(sp)
9d005700:	afb60028 	sw	s6,40(sp)
9d005704:	afb50024 	sw	s5,36(sp)
9d005708:	afb40020 	sw	s4,32(sp)
9d00570c:	afb3001c 	sw	s3,28(sp)
9d005710:	afb20018 	sw	s2,24(sp)
9d005714:	afb10014 	sw	s1,20(sp)
9d005718:	afb00010 	sw	s0,16(sp)
9d00571c:	108000e9 	beqz	a0,9d005ac4 <realloc+0x3d4>
9d005720:	00808021 	move	s0,a0
9d005724:	8c94fffc 	lw	s4,-4(a0)
9d005728:	24a2000b 	addiu	v0,a1,11
9d00572c:	2c430017 	sltiu	v1,v0,23
9d005730:	2493fff8 	addiu	s3,a0,-8
9d005734:	2411fffc 	li	s1,-4
9d005738:	10600047 	beqz	v1,9d005858 <realloc+0x168>
9d00573c:	02918824 	and	s1,s4,s1
9d005740:	24030010 	li	v1,16
9d005744:	24120010 	li	s2,16
9d005748:	0245102b 	sltu	v0,s2,a1
9d00574c:	14400046 	bnez	v0,9d005868 <realloc+0x178>
9d005750:	0223102a 	slt	v0,s1,v1
9d005754:	10400054 	beqz	v0,9d0058a8 <realloc+0x1b8>
9d005758:	32950001 	andi	s5,s4,0x1
9d00575c:	3c17a000 	lui	s7,0xa000
9d005760:	26f741fc 	addiu	s7,s7,16892
9d005764:	8ee40008 	lw	a0,8(s7)
9d005768:	02711021 	addu	v0,s3,s1
9d00576c:	108200b9 	beq	a0,v0,9d005a54 <realloc+0x364>
9d005770:	2407fffe 	li	a3,-2
9d005774:	8c460004 	lw	a2,4(v0)
9d005778:	00c73824 	and	a3,a2,a3
9d00577c:	00473821 	addu	a3,v0,a3
9d005780:	8ce70004 	lw	a3,4(a3)
9d005784:	30e70001 	andi	a3,a3,0x1
9d005788:	10e0005f 	beqz	a3,9d005908 <realloc+0x218>
9d00578c:	2407fffc 	li	a3,-4
9d005790:	00003021 	move	a2,zero
9d005794:	00001021 	move	v0,zero
9d005798:	32950001 	andi	s5,s4,0x1
9d00579c:	16a00075 	bnez	s5,9d005974 <realloc+0x284>
9d0057a0:	2407fffc 	li	a3,-4
9d0057a4:	8e16fff8 	lw	s6,-8(s0)
9d0057a8:	0276b023 	subu	s6,s3,s6
9d0057ac:	8ec80004 	lw	t0,4(s6)
9d0057b0:	104000cd 	beqz	v0,9d005ae8 <realloc+0x3f8>
9d0057b4:	01073824 	and	a3,t0,a3
9d0057b8:	104400cd 	beq	v0,a0,9d005af0 <realloc+0x400>
9d0057bc:	00f13821 	addu	a3,a3,s1
9d0057c0:	00c7b821 	addu	s7,a2,a3
9d0057c4:	02e3202a 	slt	a0,s7,v1
9d0057c8:	54800090 	bnezl	a0,9d005a0c <realloc+0x31c>
9d0057cc:	00e0b821 	move	s7,a3
9d0057d0:	8c43000c 	lw	v1,12(v0)
9d0057d4:	8c420008 	lw	v0,8(v0)
9d0057d8:	2626fffc 	addiu	a2,s1,-4
9d0057dc:	2cc40025 	sltiu	a0,a2,37
9d0057e0:	ac43000c 	sw	v1,12(v0)
9d0057e4:	ac620008 	sw	v0,8(v1)
9d0057e8:	8ec2000c 	lw	v0,12(s6)
9d0057ec:	8ec30008 	lw	v1,8(s6)
9d0057f0:	26d40008 	addiu	s4,s6,8
9d0057f4:	ac62000c 	sw	v0,12(v1)
9d0057f8:	1080008e 	beqz	a0,9d005a34 <realloc+0x344>
9d0057fc:	ac430008 	sw	v1,8(v0)
9d005800:	2cc20014 	sltiu	v0,a2,20
9d005804:	14400009 	bnez	v0,9d00582c <realloc+0x13c>
9d005808:	02801821 	move	v1,s4
9d00580c:	8e030000 	lw	v1,0(s0)
9d005810:	2cc2001c 	sltiu	v0,a2,28
9d005814:	aec30008 	sw	v1,8(s6)
9d005818:	8e030004 	lw	v1,4(s0)
9d00581c:	104000ed 	beqz	v0,9d005bd4 <realloc+0x4e4>
9d005820:	aec3000c 	sw	v1,12(s6)
9d005824:	26c30010 	addiu	v1,s6,16
9d005828:	26100008 	addiu	s0,s0,8
9d00582c:	8e020000 	lw	v0,0(s0)
9d005830:	02e08821 	move	s1,s7
9d005834:	ac620000 	sw	v0,0(v1)
9d005838:	8e020004 	lw	v0,4(s0)
9d00583c:	02c09821 	move	s3,s6
9d005840:	ac620004 	sw	v0,4(v1)
9d005844:	8e020008 	lw	v0,8(s0)
9d005848:	ac620008 	sw	v0,8(v1)
9d00584c:	8ed50004 	lw	s5,4(s6)
9d005850:	0b40162b 	j	9d0058ac <realloc+0x1bc>
9d005854:	32b50001 	andi	s5,s5,0x1
9d005858:	2412fff8 	li	s2,-8
9d00585c:	00529024 	and	s2,v0,s2
9d005860:	0641ffb9 	bgez	s2,9d005748 <realloc+0x58>
9d005864:	02401821 	move	v1,s2
9d005868:	2403000c 	li	v1,12
9d00586c:	3c02a000 	lui	v0,0xa000
9d005870:	ac430050 	sw	v1,80(v0)
9d005874:	00001021 	move	v0,zero
9d005878:	8fbf0034 	lw	ra,52(sp)
9d00587c:	8fbe0030 	lw	s8,48(sp)
9d005880:	8fb7002c 	lw	s7,44(sp)
9d005884:	8fb60028 	lw	s6,40(sp)
9d005888:	8fb50024 	lw	s5,36(sp)
9d00588c:	8fb40020 	lw	s4,32(sp)
9d005890:	8fb3001c 	lw	s3,28(sp)
9d005894:	8fb20018 	lw	s2,24(sp)
9d005898:	8fb10014 	lw	s1,20(sp)
9d00589c:	8fb00010 	lw	s0,16(sp)
9d0058a0:	03e00008 	jr	ra
9d0058a4:	27bd0038 	addiu	sp,sp,56
9d0058a8:	0200a021 	move	s4,s0
9d0058ac:	02321823 	subu	v1,s1,s2
9d0058b0:	2c650010 	sltiu	a1,v1,16
9d0058b4:	10a00023 	beqz	a1,9d005944 <realloc+0x254>
9d0058b8:	02722021 	addu	a0,s3,s2
9d0058bc:	02b1a825 	or	s5,s5,s1
9d0058c0:	ae750004 	sw	s5,4(s3)
9d0058c4:	02718821 	addu	s1,s3,s1
9d0058c8:	8e220004 	lw	v0,4(s1)
9d0058cc:	34420001 	ori	v0,v0,0x1
9d0058d0:	ae220004 	sw	v0,4(s1)
9d0058d4:	02801021 	move	v0,s4
9d0058d8:	8fbf0034 	lw	ra,52(sp)
9d0058dc:	8fbe0030 	lw	s8,48(sp)
9d0058e0:	8fb7002c 	lw	s7,44(sp)
9d0058e4:	8fb60028 	lw	s6,40(sp)
9d0058e8:	8fb50024 	lw	s5,36(sp)
9d0058ec:	8fb40020 	lw	s4,32(sp)
9d0058f0:	8fb3001c 	lw	s3,28(sp)
9d0058f4:	8fb20018 	lw	s2,24(sp)
9d0058f8:	8fb10014 	lw	s1,20(sp)
9d0058fc:	8fb00010 	lw	s0,16(sp)
9d005900:	03e00008 	jr	ra
9d005904:	27bd0038 	addiu	sp,sp,56
9d005908:	00c73024 	and	a2,a2,a3
9d00590c:	00d13821 	addu	a3,a2,s1
9d005910:	00e3402a 	slt	t0,a3,v1
9d005914:	1500ffa1 	bnez	t0,9d00579c <realloc+0xac>
9d005918:	32950001 	andi	s5,s4,0x1
9d00591c:	8c43000c 	lw	v1,12(v0)
9d005920:	8c420008 	lw	v0,8(v0)
9d005924:	ac43000c 	sw	v1,12(v0)
9d005928:	00e08821 	move	s1,a3
9d00592c:	ac620008 	sw	v0,8(v1)
9d005930:	02321823 	subu	v1,s1,s2
9d005934:	2c650010 	sltiu	a1,v1,16
9d005938:	14a0ffe0 	bnez	a1,9d0058bc <realloc+0x1cc>
9d00593c:	0200a021 	move	s4,s0
9d005940:	02722021 	addu	a0,s3,s2
9d005944:	02b29025 	or	s2,s5,s2
9d005948:	34620001 	ori	v0,v1,0x1
9d00594c:	ae720004 	sw	s2,4(s3)
9d005950:	00831821 	addu	v1,a0,v1
9d005954:	ac820004 	sw	v0,4(a0)
9d005958:	8c620004 	lw	v0,4(v1)
9d00595c:	24840008 	addiu	a0,a0,8
9d005960:	34420001 	ori	v0,v0,0x1
9d005964:	0f4022e7 	jal	9d008b9c <free>
9d005968:	ac620004 	sw	v0,4(v1)
9d00596c:	0b401636 	j	9d0058d8 <realloc+0x1e8>
9d005970:	02801021 	move	v0,s4
9d005974:	0f401234 	jal	9d0048d0 <malloc>
9d005978:	00a02021 	move	a0,a1
9d00597c:	104000b0 	beqz	v0,9d005c40 <realloc+0x550>
9d005980:	0040b021 	move	s6,v0
9d005984:	2402fffe 	li	v0,-2
9d005988:	0282a024 	and	s4,s4,v0
9d00598c:	26c2fff8 	addiu	v0,s6,-8
9d005990:	0274a021 	addu	s4,s3,s4
9d005994:	10540089 	beq	v0,s4,9d005bbc <realloc+0x4cc>
9d005998:	2626fffc 	addiu	a2,s1,-4
9d00599c:	2cc20025 	sltiu	v0,a2,37
9d0059a0:	1040004c 	beqz	v0,9d005ad4 <realloc+0x3e4>
9d0059a4:	2cc20014 	sltiu	v0,a2,20
9d0059a8:	50400034 	beqzl	v0,9d005a7c <realloc+0x38c>
9d0059ac:	8e040000 	lw	a0,0(s0)
9d0059b0:	02c01021 	move	v0,s6
9d0059b4:	02001821 	move	v1,s0
9d0059b8:	8c650000 	lw	a1,0(v1)
9d0059bc:	8c640004 	lw	a0,4(v1)
9d0059c0:	8c630008 	lw	v1,8(v1)
9d0059c4:	ac450000 	sw	a1,0(v0)
9d0059c8:	ac440004 	sw	a0,4(v0)
9d0059cc:	ac430008 	sw	v1,8(v0)
9d0059d0:	0f4022e7 	jal	9d008b9c <free>
9d0059d4:	02002021 	move	a0,s0
9d0059d8:	02c01021 	move	v0,s6
9d0059dc:	8fbf0034 	lw	ra,52(sp)
9d0059e0:	8fbe0030 	lw	s8,48(sp)
9d0059e4:	8fb7002c 	lw	s7,44(sp)
9d0059e8:	8fb60028 	lw	s6,40(sp)
9d0059ec:	8fb50024 	lw	s5,36(sp)
9d0059f0:	8fb40020 	lw	s4,32(sp)
9d0059f4:	8fb3001c 	lw	s3,28(sp)
9d0059f8:	8fb20018 	lw	s2,24(sp)
9d0059fc:	8fb10014 	lw	s1,20(sp)
9d005a00:	8fb00010 	lw	s0,16(sp)
9d005a04:	03e00008 	jr	ra
9d005a08:	27bd0038 	addiu	sp,sp,56
9d005a0c:	02e3182a 	slt	v1,s7,v1
9d005a10:	1460ffd8 	bnez	v1,9d005974 <realloc+0x284>
9d005a14:	2626fffc 	addiu	a2,s1,-4
9d005a18:	8ec2000c 	lw	v0,12(s6)
9d005a1c:	8ec30008 	lw	v1,8(s6)
9d005a20:	2cc40025 	sltiu	a0,a2,37
9d005a24:	ac62000c 	sw	v0,12(v1)
9d005a28:	26d40008 	addiu	s4,s6,8
9d005a2c:	1480ff74 	bnez	a0,9d005800 <realloc+0x110>
9d005a30:	ac430008 	sw	v1,8(v0)
9d005a34:	02802021 	move	a0,s4
9d005a38:	0f402e6d 	jal	9d00b9b4 <memmove>
9d005a3c:	02002821 	move	a1,s0
9d005a40:	8ed50004 	lw	s5,4(s6)
9d005a44:	02e08821 	move	s1,s7
9d005a48:	32b50001 	andi	s5,s5,0x1
9d005a4c:	0b40162b 	j	9d0058ac <realloc+0x1bc>
9d005a50:	02c09821 	move	s3,s6
9d005a54:	8c860004 	lw	a2,4(a0)
9d005a58:	26470010 	addiu	a3,s2,16
9d005a5c:	2402fffc 	li	v0,-4
9d005a60:	00c23024 	and	a2,a2,v0
9d005a64:	00d11021 	addu	v0,a2,s1
9d005a68:	0047382a 	slt	a3,v0,a3
9d005a6c:	50e0000b 	beqzl	a3,9d005a9c <realloc+0x3ac>
9d005a70:	00521023 	subu	v0,v0,s2
9d005a74:	0b4015e6 	j	9d005798 <realloc+0xa8>
9d005a78:	00801021 	move	v0,a0
9d005a7c:	8e030004 	lw	v1,4(s0)
9d005a80:	2cc2001c 	sltiu	v0,a2,28
9d005a84:	aec40000 	sw	a0,0(s6)
9d005a88:	10400042 	beqz	v0,9d005b94 <realloc+0x4a4>
9d005a8c:	aec30004 	sw	v1,4(s6)
9d005a90:	26c20008 	addiu	v0,s6,8
9d005a94:	0b40166e 	j	9d0059b8 <realloc+0x2c8>
9d005a98:	26030008 	addiu	v1,s0,8
9d005a9c:	02729821 	addu	s3,s3,s2
9d005aa0:	34420001 	ori	v0,v0,0x1
9d005aa4:	aef30008 	sw	s3,8(s7)
9d005aa8:	ae620004 	sw	v0,4(s3)
9d005aac:	8e03fffc 	lw	v1,-4(s0)
9d005ab0:	02001021 	move	v0,s0
9d005ab4:	30630001 	andi	v1,v1,0x1
9d005ab8:	02439025 	or	s2,s2,v1
9d005abc:	0b401636 	j	9d0058d8 <realloc+0x1e8>
9d005ac0:	ae12fffc 	sw	s2,-4(s0)
9d005ac4:	0f401234 	jal	9d0048d0 <malloc>
9d005ac8:	00a02021 	move	a0,a1
9d005acc:	0b401637 	j	9d0058dc <realloc+0x1ec>
9d005ad0:	8fbf0034 	lw	ra,52(sp)
9d005ad4:	02c02021 	move	a0,s6
9d005ad8:	0f402e6d 	jal	9d00b9b4 <memmove>
9d005adc:	02002821 	move	a1,s0
9d005ae0:	0b401674 	j	9d0059d0 <realloc+0x2e0>
9d005ae4:	00000000 	nop
9d005ae8:	0b401683 	j	9d005a0c <realloc+0x31c>
9d005aec:	00f1b821 	addu	s7,a3,s1
9d005af0:	00c7f021 	addu	s8,a2,a3
9d005af4:	26420010 	addiu	v0,s2,16
9d005af8:	03c2102a 	slt	v0,s8,v0
9d005afc:	5440ffc3 	bnezl	v0,9d005a0c <realloc+0x31c>
9d005b00:	00e0b821 	move	s7,a3
9d005b04:	8ec3000c 	lw	v1,12(s6)
9d005b08:	8ec50008 	lw	a1,8(s6)
9d005b0c:	2626fffc 	addiu	a2,s1,-4
9d005b10:	2cc20025 	sltiu	v0,a2,37
9d005b14:	aca3000c 	sw	v1,12(a1)
9d005b18:	26c70008 	addiu	a3,s6,8
9d005b1c:	10400043 	beqz	v0,9d005c2c <realloc+0x53c>
9d005b20:	ac650008 	sw	a1,8(v1)
9d005b24:	2cc20014 	sltiu	v0,a2,20
9d005b28:	14400009 	bnez	v0,9d005b50 <realloc+0x460>
9d005b2c:	00e01821 	move	v1,a3
9d005b30:	8e030000 	lw	v1,0(s0)
9d005b34:	2cc2001c 	sltiu	v0,a2,28
9d005b38:	aec30008 	sw	v1,8(s6)
9d005b3c:	8e030004 	lw	v1,4(s0)
9d005b40:	10400041 	beqz	v0,9d005c48 <realloc+0x558>
9d005b44:	aec3000c 	sw	v1,12(s6)
9d005b48:	26c30010 	addiu	v1,s6,16
9d005b4c:	26100008 	addiu	s0,s0,8
9d005b50:	8e020000 	lw	v0,0(s0)
9d005b54:	ac620000 	sw	v0,0(v1)
9d005b58:	8e020004 	lw	v0,4(s0)
9d005b5c:	ac620004 	sw	v0,4(v1)
9d005b60:	8e020008 	lw	v0,8(s0)
9d005b64:	ac620008 	sw	v0,8(v1)
9d005b68:	03d21023 	subu	v0,s8,s2
9d005b6c:	02d21821 	addu	v1,s6,s2
9d005b70:	34420001 	ori	v0,v0,0x1
9d005b74:	aee30008 	sw	v1,8(s7)
9d005b78:	ac620004 	sw	v0,4(v1)
9d005b7c:	8ec30004 	lw	v1,4(s6)
9d005b80:	00e01021 	move	v0,a3
9d005b84:	30630001 	andi	v1,v1,0x1
9d005b88:	02439025 	or	s2,s2,v1
9d005b8c:	0b401636 	j	9d0058d8 <realloc+0x1e8>
9d005b90:	aed20004 	sw	s2,4(s6)
9d005b94:	8e030008 	lw	v1,8(s0)
9d005b98:	8e02000c 	lw	v0,12(s0)
9d005b9c:	aec30008 	sw	v1,8(s6)
9d005ba0:	aec2000c 	sw	v0,12(s6)
9d005ba4:	24020024 	li	v0,36
9d005ba8:	50c20014 	beql	a2,v0,9d005bfc <realloc+0x50c>
9d005bac:	8e030010 	lw	v1,16(s0)
9d005bb0:	26c20010 	addiu	v0,s6,16
9d005bb4:	0b40166e 	j	9d0059b8 <realloc+0x2c8>
9d005bb8:	26030010 	addiu	v1,s0,16
9d005bbc:	8ec3fffc 	lw	v1,-4(s6)
9d005bc0:	0200a021 	move	s4,s0
9d005bc4:	2402fffc 	li	v0,-4
9d005bc8:	00621024 	and	v0,v1,v0
9d005bcc:	0b40162b 	j	9d0058ac <realloc+0x1bc>
9d005bd0:	02228821 	addu	s1,s1,v0
9d005bd4:	8e020008 	lw	v0,8(s0)
9d005bd8:	aec20010 	sw	v0,16(s6)
9d005bdc:	8e02000c 	lw	v0,12(s0)
9d005be0:	aec20014 	sw	v0,20(s6)
9d005be4:	24020024 	li	v0,36
9d005be8:	50c2000a 	beql	a2,v0,9d005c14 <realloc+0x524>
9d005bec:	8e020010 	lw	v0,16(s0)
9d005bf0:	26c30018 	addiu	v1,s6,24
9d005bf4:	0b40160b 	j	9d00582c <realloc+0x13c>
9d005bf8:	26100010 	addiu	s0,s0,16
9d005bfc:	8e040014 	lw	a0,20(s0)
9d005c00:	26c20018 	addiu	v0,s6,24
9d005c04:	aec30010 	sw	v1,16(s6)
9d005c08:	26030018 	addiu	v1,s0,24
9d005c0c:	0b40166e 	j	9d0059b8 <realloc+0x2c8>
9d005c10:	aec40014 	sw	a0,20(s6)
9d005c14:	26c30020 	addiu	v1,s6,32
9d005c18:	aec20018 	sw	v0,24(s6)
9d005c1c:	8e020014 	lw	v0,20(s0)
9d005c20:	26100018 	addiu	s0,s0,24
9d005c24:	0b40160b 	j	9d00582c <realloc+0x13c>
9d005c28:	aec2001c 	sw	v0,28(s6)
9d005c2c:	00e02021 	move	a0,a3
9d005c30:	0f402e6d 	jal	9d00b9b4 <memmove>
9d005c34:	02002821 	move	a1,s0
9d005c38:	0b4016da 	j	9d005b68 <realloc+0x478>
9d005c3c:	00403821 	move	a3,v0
9d005c40:	0b401636 	j	9d0058d8 <realloc+0x1e8>
9d005c44:	00001021 	move	v0,zero
9d005c48:	8e020008 	lw	v0,8(s0)
9d005c4c:	aec20010 	sw	v0,16(s6)
9d005c50:	8e02000c 	lw	v0,12(s0)
9d005c54:	aec20014 	sw	v0,20(s6)
9d005c58:	24020024 	li	v0,36
9d005c5c:	50c20004 	beql	a2,v0,9d005c70 <realloc+0x580>
9d005c60:	8e020010 	lw	v0,16(s0)
9d005c64:	26c30018 	addiu	v1,s6,24
9d005c68:	0b4016d4 	j	9d005b50 <realloc+0x460>
9d005c6c:	26100010 	addiu	s0,s0,16
9d005c70:	26c30020 	addiu	v1,s6,32
9d005c74:	aec20018 	sw	v0,24(s6)
9d005c78:	8e020014 	lw	v0,20(s0)
9d005c7c:	26100018 	addiu	s0,s0,24
9d005c80:	0b4016d4 	j	9d005b50 <realloc+0x460>
9d005c84:	aec2001c 	sw	v0,28(s6)

Disassembly of section .text._fconvert:

9d005c88 <_fconvert>:
9d005c88:	27bdfda8 	addiu	sp,sp,-600
9d005c8c:	afbf0254 	sw	ra,596(sp)
9d005c90:	afbe0250 	sw	s8,592(sp)
9d005c94:	afb7024c 	sw	s7,588(sp)
9d005c98:	afb60248 	sw	s6,584(sp)
9d005c9c:	afb50244 	sw	s5,580(sp)
9d005ca0:	afb40240 	sw	s4,576(sp)
9d005ca4:	afb3023c 	sw	s3,572(sp)
9d005ca8:	afb20238 	sw	s2,568(sp)
9d005cac:	afb10234 	sw	s1,564(sp)
9d005cb0:	afb00230 	sw	s0,560(sp)
9d005cb4:	8fb50268 	lw	s5,616(sp)
9d005cb8:	afa40258 	sw	a0,600(sp)
9d005cbc:	00a02021 	move	a0,a1
9d005cc0:	afa60260 	sw	a2,608(sp)
9d005cc4:	00e0b821 	move	s7,a3
9d005cc8:	97a3026c 	lhu	v1,620(sp)
9d005ccc:	2402ffff 	li	v0,-1
9d005cd0:	12a2010c 	beq	s5,v0,9d006104 <_fconvert+0x47c>
9d005cd4:	afa30220 	sw	v1,544(sp)
9d005cd8:	2aa20028 	slti	v0,s5,40
9d005cdc:	104000a3 	beqz	v0,9d005f6c <_fconvert+0x2e4>
9d005ce0:	afa00224 	sw	zero,548(sp)
9d005ce4:	a3a00011 	sb	zero,17(sp)
9d005ce8:	04810005 	bgez	a0,9d005d00 <_fconvert+0x78>
9d005cec:	afa00228 	sw	zero,552(sp)
9d005cf0:	3c028000 	lui	v0,0x8000
9d005cf4:	00442026 	xor	a0,v0,a0
9d005cf8:	2403002d 	li	v1,45
9d005cfc:	afa30228 	sw	v1,552(sp)
9d005d00:	0f402b3e 	jal	9d00acf8 <.LFE0>
9d005d04:	27a5021c 	addiu	a1,sp,540
9d005d08:	0040b021 	move	s6,v0
9d005d0c:	8fbe021c 	lw	s8,540(sp)
9d005d10:	00002821 	move	a1,zero
9d005d14:	0f402ca0 	jal	9d00b280 <.LFE2>
9d005d18:	03c02021 	move	a0,s8
9d005d1c:	10400119 	beqz	v0,9d006184 <_fconvert+0x4fc>
9d005d20:	3c029d01 	lui	v0,0x9d01
9d005d24:	3c109d01 	lui	s0,0x9d01
9d005d28:	8e12bc48 	lw	s2,-17336(s0)
9d005d2c:	8c54bc4c 	lw	s4,-17332(v0)
9d005d30:	00008821 	move	s1,zero
9d005d34:	27b00210 	addiu	s0,sp,528
9d005d38:	02409821 	move	s3,s2
9d005d3c:	03c02021 	move	a0,s8
9d005d40:	0f402565 	jal	9d009594 <__divsf3>
9d005d44:	02402821 	move	a1,s2
9d005d48:	00402021 	move	a0,v0
9d005d4c:	0f402b3e 	jal	9d00acf8 <.LFE0>
9d005d50:	27a5021c 	addiu	a1,sp,540
9d005d54:	00402021 	move	a0,v0
9d005d58:	02802821 	move	a1,s4
9d005d5c:	0f4024c9 	jal	9d009324 <__addsf3>
9d005d60:	afa20218 	sw	v0,536(sp)
9d005d64:	00402021 	move	a0,v0
9d005d68:	0f402662 	jal	9d009988 <.LFE4>
9d005d6c:	02602821 	move	a1,s3
9d005d70:	0f402d60 	jal	9d00b580 <__fixsfsi>
9d005d74:	00402021 	move	a0,v0
9d005d78:	8fbe021c 	lw	s8,540(sp)
9d005d7c:	2610ffff 	addiu	s0,s0,-1
9d005d80:	24420030 	addiu	v0,v0,48
9d005d84:	03c02021 	move	a0,s8
9d005d88:	00002821 	move	a1,zero
9d005d8c:	a2020001 	sb	v0,1(s0)
9d005d90:	0f402ca0 	jal	9d00b280 <.LFE2>
9d005d94:	26310001 	addiu	s1,s1,1
9d005d98:	1440ffe9 	bnez	v0,9d005d40 <_fconvert+0xb8>
9d005d9c:	03c02021 	move	a0,s8
9d005da0:	24020066 	li	v0,102
9d005da4:	8fa30260 	lw	v1,608(sp)
9d005da8:	14620038 	bne	v1,v0,9d005e8c <_fconvert+0x204>
9d005dac:	00009821 	move	s3,zero
9d005db0:	12200077 	beqz	s1,9d005f90 <_fconvert+0x308>
9d005db4:	24020030 	li	v0,48
9d005db8:	26020001 	addiu	v0,s0,1
9d005dbc:	27a50211 	addiu	a1,sp,529
9d005dc0:	0045182b 	sltu	v1,v0,a1
9d005dc4:	106000fd 	beqz	v1,9d0061bc <_fconvert+0x534>
9d005dc8:	27b20012 	addiu	s2,sp,18
9d005dcc:	02401821 	move	v1,s2
9d005dd0:	80440000 	lb	a0,0(v0)
9d005dd4:	24630001 	addiu	v1,v1,1
9d005dd8:	24420001 	addiu	v0,v0,1
9d005ddc:	1445fffc 	bne	v0,a1,9d005dd0 <_fconvert+0x148>
9d005de0:	a064ffff 	sb	a0,-1(v1)
9d005de4:	03b08023 	subu	s0,sp,s0
9d005de8:	26100210 	addiu	s0,s0,528
9d005dec:	02508021 	addu	s0,s2,s0
9d005df0:	12a0006c 	beqz	s5,9d005fa4 <_fconvert+0x31c>
9d005df4:	8fa30220 	lw	v1,544(sp)
9d005df8:	02c02021 	move	a0,s6
9d005dfc:	00002821 	move	a1,zero
9d005e00:	26130001 	addiu	s3,s0,1
9d005e04:	2402002e 	li	v0,46
9d005e08:	0f402ca0 	jal	9d00b280 <.LFE2>
9d005e0c:	a2020000 	sb	v0,0(s0)
9d005e10:	104000b4 	beqz	v0,9d0060e4 <_fconvert+0x45c>
9d005e14:	26a3ffff 	addiu	v1,s5,-1
9d005e18:	3c109d01 	lui	s0,0x9d01
9d005e1c:	0b40178d 	j	9d005e34 <_fconvert+0x1ac>
9d005e20:	8e11bc48 	lw	s1,-17336(s0)
9d005e24:	0f402ca0 	jal	9d00b280 <.LFE2>
9d005e28:	00000000 	nop
9d005e2c:	104000ad 	beqz	v0,9d0060e4 <_fconvert+0x45c>
9d005e30:	26a3ffff 	addiu	v1,s5,-1
9d005e34:	02c02021 	move	a0,s6
9d005e38:	0f402662 	jal	9d009988 <.LFE4>
9d005e3c:	02202821 	move	a1,s1
9d005e40:	00402021 	move	a0,v0
9d005e44:	0f402b3e 	jal	9d00acf8 <.LFE0>
9d005e48:	27a50218 	addiu	a1,sp,536
9d005e4c:	0040b021 	move	s6,v0
9d005e50:	8fa40218 	lw	a0,536(sp)
9d005e54:	26730001 	addiu	s3,s3,1
9d005e58:	0f402d60 	jal	9d00b580 <__fixsfsi>
9d005e5c:	26b5ffff 	addiu	s5,s5,-1
9d005e60:	02c02021 	move	a0,s6
9d005e64:	00002821 	move	a1,zero
9d005e68:	24420030 	addiu	v0,v0,48
9d005e6c:	16a0ffed 	bnez	s5,9d005e24 <_fconvert+0x19c>
9d005e70:	a262ffff 	sb	v0,-1(s3)
9d005e74:	02c02021 	move	a0,s6
9d005e78:	0f402ca0 	jal	9d00b280 <.LFE2>
9d005e7c:	00002821 	move	a1,zero
9d005e80:	54400051 	bnezl	v0,9d005fc8 <_fconvert+0x340>
9d005e84:	8e05bc48 	lw	a1,-17336(s0)
9d005e88:	02729823 	subu	s3,s3,s2
9d005e8c:	83a40011 	lb	a0,17(sp)
9d005e90:	27a20011 	addiu	v0,sp,17
9d005e94:	27a30012 	addiu	v1,sp,18
9d005e98:	0064100a 	movz	v0,v1,a0
9d005e9c:	8fa30228 	lw	v1,552(sp)
9d005ea0:	1060002a 	beqz	v1,9d005f4c <_fconvert+0x2c4>
9d005ea4:	8fa40220 	lw	a0,544(sp)
9d005ea8:	2452ffff 	addiu	s2,v0,-1
9d005eac:	a043ffff 	sb	v1,-1(v0)
9d005eb0:	26730001 	addiu	s3,s3,1
9d005eb4:	8fa30220 	lw	v1,544(sp)
9d005eb8:	30710008 	andi	s1,v1,0x8
9d005ebc:	3231ffff 	andi	s1,s1,0xffff
9d005ec0:	8fa30224 	lw	v1,548(sp)
9d005ec4:	16200004 	bnez	s1,9d005ed8 <_fconvert+0x250>
9d005ec8:	02638021 	addu	s0,s3,v1
9d005ecc:	0217102a 	slt	v0,s0,s7
9d005ed0:	1440005a 	bnez	v0,9d00603c <_fconvert+0x3b4>
9d005ed4:	8fa30220 	lw	v1,544(sp)
9d005ed8:	02402021 	move	a0,s2
9d005edc:	02602821 	move	a1,s3
9d005ee0:	0f402e53 	jal	9d00b94c <__sputn>
9d005ee4:	8fa60258 	lw	a2,600(sp)
9d005ee8:	2412ffff 	li	s2,-1
9d005eec:	10520008 	beq	v0,s2,9d005f10 <_fconvert+0x288>
9d005ef0:	8fa30224 	lw	v1,548(sp)
9d005ef4:	14600071 	bnez	v1,9d0060bc <_fconvert+0x434>
9d005ef8:	8fa40258 	lw	a0,600(sp)
9d005efc:	12200005 	beqz	s1,9d005f14 <_fconvert+0x28c>
9d005f00:	0217102a 	slt	v0,s0,s7
9d005f04:	0217102a 	slt	v0,s0,s7
9d005f08:	14400081 	bnez	v0,9d006110 <_fconvert+0x488>
9d005f0c:	8fa40258 	lw	a0,600(sp)
9d005f10:	0217102a 	slt	v0,s0,s7
9d005f14:	0202b80a 	movz	s7,s0,v0
9d005f18:	02e01021 	move	v0,s7
9d005f1c:	8fbf0254 	lw	ra,596(sp)
9d005f20:	8fbe0250 	lw	s8,592(sp)
9d005f24:	8fb7024c 	lw	s7,588(sp)
9d005f28:	8fb60248 	lw	s6,584(sp)
9d005f2c:	8fb50244 	lw	s5,580(sp)
9d005f30:	8fb40240 	lw	s4,576(sp)
9d005f34:	8fb3023c 	lw	s3,572(sp)
9d005f38:	8fb20238 	lw	s2,568(sp)
9d005f3c:	8fb10234 	lw	s1,564(sp)
9d005f40:	8fb00230 	lw	s0,560(sp)
9d005f44:	03e00008 	jr	ra
9d005f48:	27bd0258 	addiu	sp,sp,600
9d005f4c:	30830002 	andi	v1,a0,0x2
9d005f50:	10600052 	beqz	v1,9d00609c <_fconvert+0x414>
9d005f54:	8fa40220 	lw	a0,544(sp)
9d005f58:	2452ffff 	addiu	s2,v0,-1
9d005f5c:	2403002b 	li	v1,43
9d005f60:	a043ffff 	sb	v1,-1(v0)
9d005f64:	0b4017ad 	j	9d005eb4 <_fconvert+0x22c>
9d005f68:	26730001 	addiu	s3,s3,1
9d005f6c:	2403ffdf 	li	v1,-33
9d005f70:	00c31824 	and	v1,a2,v1
9d005f74:	24020047 	li	v0,71
9d005f78:	1062007d 	beq	v1,v0,9d006170 <_fconvert+0x4e8>
9d005f7c:	8fa30220 	lw	v1,544(sp)
9d005f80:	26b5ffd9 	addiu	s5,s5,-39
9d005f84:	afb50224 	sw	s5,548(sp)
9d005f88:	0b401739 	j	9d005ce4 <_fconvert+0x5c>
9d005f8c:	24150027 	li	s5,39
9d005f90:	a3a20012 	sb	v0,18(sp)
9d005f94:	27b00013 	addiu	s0,sp,19
9d005f98:	16a0ff97 	bnez	s5,9d005df8 <_fconvert+0x170>
9d005f9c:	27b20012 	addiu	s2,sp,18
9d005fa0:	8fa30220 	lw	v1,544(sp)
9d005fa4:	30620800 	andi	v0,v1,0x800
9d005fa8:	14400079 	bnez	v0,9d006190 <_fconvert+0x508>
9d005fac:	02c02021 	move	a0,s6
9d005fb0:	0f402ca0 	jal	9d00b280 <.LFE2>
9d005fb4:	00002821 	move	a1,zero
9d005fb8:	1040ffb3 	beqz	v0,9d005e88 <_fconvert+0x200>
9d005fbc:	02009821 	move	s3,s0
9d005fc0:	3c109d01 	lui	s0,0x9d01
9d005fc4:	8e05bc48 	lw	a1,-17336(s0)
9d005fc8:	02c02021 	move	a0,s6
9d005fcc:	0f402662 	jal	9d009988 <.LFE4>
9d005fd0:	2670ffff 	addiu	s0,s3,-1
9d005fd4:	00402021 	move	a0,v0
9d005fd8:	0f402b3e 	jal	9d00acf8 <.LFE0>
9d005fdc:	27a50214 	addiu	a1,sp,532
9d005fe0:	3c029d01 	lui	v0,0x9d01
9d005fe4:	8c44bc50 	lw	a0,-17328(v0)
9d005fe8:	0f402ca0 	jal	9d00b280 <.LFE2>
9d005fec:	8fa50214 	lw	a1,532(sp)
9d005ff0:	2404002e 	li	a0,46
9d005ff4:	0440000b 	bltz	v0,9d006024 <_fconvert+0x39c>
9d005ff8:	24050030 	li	a1,48
9d005ffc:	0b4017a3 	j	9d005e8c <_fconvert+0x204>
9d006000:	02729823 	subu	s3,s3,s2
9d006004:	24420001 	addiu	v0,v0,1
9d006008:	7c021420 	seb	v0,v0
9d00600c:	2843003a 	slti	v1,v0,58
9d006010:	54600068 	bnezl	v1,9d0061b4 <_fconvert+0x52c>
9d006014:	a2020000 	sb	v0,0(s0)
9d006018:	1212006a 	beq	s0,s2,9d0061c4 <_fconvert+0x53c>
9d00601c:	a2050000 	sb	a1,0(s0)
9d006020:	2610ffff 	addiu	s0,s0,-1
9d006024:	82020000 	lb	v0,0(s0)
9d006028:	5444fff7 	bnel	v0,a0,9d006008 <_fconvert+0x380>
9d00602c:	24420001 	addiu	v0,v0,1
9d006030:	8202ffff 	lb	v0,-1(s0)
9d006034:	0b401801 	j	9d006004 <_fconvert+0x37c>
9d006038:	2610ffff 	addiu	s0,s0,-1
9d00603c:	30620004 	andi	v0,v1,0x4
9d006040:	8fa40258 	lw	a0,600(sp)
9d006044:	14400045 	bnez	v0,9d00615c <_fconvert+0x4d4>
9d006048:	02f02823 	subu	a1,s7,s0
9d00604c:	3c069d01 	lui	a2,0x9d01
9d006050:	0f402cc7 	jal	9d00b31c <repl>
9d006054:	24c6bc28 	addiu	a2,a2,-17368
9d006058:	2403ffff 	li	v1,-1
9d00605c:	1443ff9e 	bne	v0,v1,9d005ed8 <_fconvert+0x250>
9d006060:	0217102a 	slt	v0,s0,s7
9d006064:	0202b80a 	movz	s7,s0,v0
9d006068:	02e01021 	move	v0,s7
9d00606c:	8fbf0254 	lw	ra,596(sp)
9d006070:	8fbe0250 	lw	s8,592(sp)
9d006074:	8fb7024c 	lw	s7,588(sp)
9d006078:	8fb60248 	lw	s6,584(sp)
9d00607c:	8fb50244 	lw	s5,580(sp)
9d006080:	8fb40240 	lw	s4,576(sp)
9d006084:	8fb3023c 	lw	s3,572(sp)
9d006088:	8fb20238 	lw	s2,568(sp)
9d00608c:	8fb10234 	lw	s1,564(sp)
9d006090:	8fb00230 	lw	s0,560(sp)
9d006094:	03e00008 	jr	ra
9d006098:	27bd0258 	addiu	sp,sp,600
9d00609c:	30830001 	andi	v1,a0,0x1
9d0060a0:	1060ff84 	beqz	v1,9d005eb4 <_fconvert+0x22c>
9d0060a4:	00409021 	move	s2,v0
9d0060a8:	2452ffff 	addiu	s2,v0,-1
9d0060ac:	24030020 	li	v1,32
9d0060b0:	a043ffff 	sb	v1,-1(v0)
9d0060b4:	0b4017ad 	j	9d005eb4 <_fconvert+0x22c>
9d0060b8:	26730001 	addiu	s3,s3,1
9d0060bc:	8fa50224 	lw	a1,548(sp)
9d0060c0:	3c069d01 	lui	a2,0x9d01
9d0060c4:	0f402cc7 	jal	9d00b31c <repl>
9d0060c8:	24c6bc08 	addiu	a2,a2,-17400
9d0060cc:	1052ff91 	beq	v0,s2,9d005f14 <_fconvert+0x28c>
9d0060d0:	0217102a 	slt	v0,s0,s7
9d0060d4:	5620ff8c 	bnezl	s1,9d005f08 <_fconvert+0x280>
9d0060d8:	0217102a 	slt	v0,s0,s7
9d0060dc:	0b4017c6 	j	9d005f18 <_fconvert+0x290>
9d0060e0:	0202b80a 	movz	s7,s0,v0
9d0060e4:	24630001 	addiu	v1,v1,1
9d0060e8:	02631821 	addu	v1,s3,v1
9d0060ec:	24020030 	li	v0,48
9d0060f0:	26730001 	addiu	s3,s3,1
9d0060f4:	1663fffe 	bne	s3,v1,9d0060f0 <_fconvert+0x468>
9d0060f8:	a262ffff 	sb	v0,-1(s3)
9d0060fc:	0b4017a3 	j	9d005e8c <_fconvert+0x204>
9d006100:	02729823 	subu	s3,s3,s2
9d006104:	afa00224 	sw	zero,548(sp)
9d006108:	0b401739 	j	9d005ce4 <_fconvert+0x5c>
9d00610c:	24150006 	li	s5,6
9d006110:	02f02823 	subu	a1,s7,s0
9d006114:	3c069d01 	lui	a2,0x9d01
9d006118:	0f402cc7 	jal	9d00b31c <repl>
9d00611c:	24c6bc28 	addiu	a2,a2,-17368
9d006120:	0217102a 	slt	v0,s0,s7
9d006124:	0202b80a 	movz	s7,s0,v0
9d006128:	02e01021 	move	v0,s7
9d00612c:	8fbf0254 	lw	ra,596(sp)
9d006130:	8fbe0250 	lw	s8,592(sp)
9d006134:	8fb7024c 	lw	s7,588(sp)
9d006138:	8fb60248 	lw	s6,584(sp)
9d00613c:	8fb50244 	lw	s5,580(sp)
9d006140:	8fb40240 	lw	s4,576(sp)
9d006144:	8fb3023c 	lw	s3,572(sp)
9d006148:	8fb20238 	lw	s2,568(sp)
9d00614c:	8fb10234 	lw	s1,564(sp)
9d006150:	8fb00230 	lw	s0,560(sp)
9d006154:	03e00008 	jr	ra
9d006158:	27bd0258 	addiu	sp,sp,600
9d00615c:	3c069d01 	lui	a2,0x9d01
9d006160:	0f402cc7 	jal	9d00b31c <repl>
9d006164:	24c6bc08 	addiu	a2,a2,-17400
9d006168:	0b401817 	j	9d00605c <_fconvert+0x3d4>
9d00616c:	2403ffff 	li	v1,-1
9d006170:	30620800 	andi	v0,v1,0x800
9d006174:	5440ff83 	bnezl	v0,9d005f84 <_fconvert+0x2fc>
9d006178:	26b5ffd9 	addiu	s5,s5,-39
9d00617c:	0b401739 	j	9d005ce4 <_fconvert+0x5c>
9d006180:	24150027 	li	s5,39
9d006184:	00008821 	move	s1,zero
9d006188:	0b401768 	j	9d005da0 <_fconvert+0x118>
9d00618c:	27b00210 	addiu	s0,sp,528
9d006190:	00002821 	move	a1,zero
9d006194:	26130001 	addiu	s3,s0,1
9d006198:	2402002e 	li	v0,46
9d00619c:	0f402ca0 	jal	9d00b280 <.LFE2>
9d0061a0:	a2020000 	sb	v0,0(s0)
9d0061a4:	5440ff87 	bnezl	v0,9d005fc4 <_fconvert+0x33c>
9d0061a8:	3c109d01 	lui	s0,0x9d01
9d0061ac:	0b4017a3 	j	9d005e8c <_fconvert+0x204>
9d0061b0:	02729823 	subu	s3,s3,s2
9d0061b4:	0b4017a3 	j	9d005e8c <_fconvert+0x204>
9d0061b8:	02729823 	subu	s3,s3,s2
9d0061bc:	0b40177c 	j	9d005df0 <_fconvert+0x168>
9d0061c0:	02408021 	move	s0,s2
9d0061c4:	24020031 	li	v0,49
9d0061c8:	a3a20011 	sb	v0,17(sp)
9d0061cc:	27b20011 	addiu	s2,sp,17
9d0061d0:	0b4017a3 	j	9d005e8c <_fconvert+0x204>
9d0061d4:	02729823 	subu	s3,s3,s2

Disassembly of section .text.dp32mul:

9d0061d8 <__divdf3>:
9d0061d8:	00055040 000a5542 00054ac0 00047d42     @P..BU...J..B}..
9d0061e8:	012f4825 000442c0 3c0e8000 012e4825     %H/..B.....<%H..
9d0061f8:	00076840 000d6d42 000762c0 00067d42     @h..Bm...b..B}..
9d006208:	018f6025 00065ac0 018e6025 00a72826     %`...Z..%`..&(..
9d006218:	00ae2824 254fffff 2de107fe 102000cb     $(....O%...-.. .
9d006228:	00000000                                ....

9d00622c <Dlab1>:
9d00622c:	25afffff 	addiu	t7,t5,-1
9d006230:	2de107fe 	sltiu	at,t7,2046
9d006234:	102000f4 	beqz	at,9d006608 <DspecB>
9d006238:	00000000 	nop

9d00623c <Dlab2>:
9d00623c:	014d5023 	subu	t2,t2,t5
9d006240:	254a03ff 	addiu	t2,t2,1023
9d006244:	00084042 	srl	t0,t0,0x1
9d006248:	00097fc0 	sll	t7,t1,0x1f
9d00624c:	010f4025 	or	t0,t0,t7
9d006250:	00094842 	srl	t1,t1,0x1
9d006254:	000c3c02 	srl	a3,t4,0x10
9d006258:	00e001f4 	teq	a3,zero,0x7
9d00625c:	0127001b 	divu	zero,t1,a3
9d006260:	00007012 	mflo	t6
9d006264:	00004810 	mfhi	t1
9d006268:	3186ffff 	andi	a2,t4,0xffff
9d00626c:	00ce0019 	multu	a2,t6
9d006270:	00002012 	mflo	a0
9d006274:	00094c00 	sll	t1,t1,0x10
9d006278:	00087c02 	srl	t7,t0,0x10
9d00627c:	012f4825 	or	t1,t1,t7
9d006280:	0124782b 	sltu	t7,t1,a0
9d006284:	11e00006 	beqz	t7,9d0062a0 <i20>
9d006288:	01244823 	subu	t1,t1,a0

9d00628c <b21>:
9d00628c:	25ceffff 	addiu	t6,t6,-1
9d006290:	012c4821 	addu	t1,t1,t4
9d006294:	012c082b 	sltu	at,t1,t4
9d006298:	1020fffc 	beqz	at,9d00628c <b21>
9d00629c:	00000000 	nop

9d0062a0 <i20>:
9d0062a0:	00e001f4 	teq	a3,zero,0x7
9d0062a4:	0127001b 	divu	zero,t1,a3
9d0062a8:	00003812 	mflo	a3
9d0062ac:	00004810 	mfhi	t1
9d0062b0:	00c70019 	multu	a2,a3
9d0062b4:	00002012 	mflo	a0
9d0062b8:	00094c00 	sll	t1,t1,0x10
9d0062bc:	310fffff 	andi	t7,t0,0xffff
9d0062c0:	012f4825 	or	t1,t1,t7
9d0062c4:	0124782b 	sltu	t7,t1,a0
9d0062c8:	11e00006 	beqz	t7,9d0062e4 <i22>
9d0062cc:	01244823 	subu	t1,t1,a0

9d0062d0 <b23>:
9d0062d0:	24e7ffff 	addiu	a3,a3,-1
9d0062d4:	012c4821 	addu	t1,t1,t4
9d0062d8:	012c082b 	sltu	at,t1,t4
9d0062dc:	1020fffc 	beqz	at,9d0062d0 <b23>
9d0062e0:	00000000 	nop

9d0062e4 <i22>:
9d0062e4:	000e7400 	sll	t6,t6,0x10
9d0062e8:	01c77021 	addu	t6,t6,a3
9d0062ec:	01cb0019 	multu	t6,t3
9d0062f0:	00003812 	mflo	a3
9d0062f4:	00002010 	mfhi	a0
9d0062f8:	24080000 	li	t0,0
9d0062fc:	0107782b 	sltu	t7,t0,a3
9d006300:	01074023 	subu	t0,t0,a3
9d006304:	012f102b 	sltu	v0,t1,t7
9d006308:	012f4823 	subu	t1,t1,t7
9d00630c:	0124782b 	sltu	t7,t1,a0
9d006310:	01e27825 	or	t7,t7,v0
9d006314:	11e0000b 	beqz	t7,9d006344 <i24>
9d006318:	01244823 	subu	t1,t1,a0

9d00631c <Dlab3>:
9d00631c:	25ceffff 	addiu	t6,t6,-1
9d006320:	010b4021 	addu	t0,t0,t3
9d006324:	010b782b 	sltu	t7,t0,t3
9d006328:	012c4821 	addu	t1,t1,t4
9d00632c:	012f4821 	addu	t1,t1,t7
9d006330:	112c0002 	beq	t1,t4,9d00633c <L31>
9d006334:	00000000 	nop
9d006338:	012c782b 	sltu	t7,t1,t4

9d00633c <L31>:
9d00633c:	11e0fff7 	beqz	t7,9d00631c <Dlab3>
9d006340:	00000000 	nop

9d006344 <i24>:
9d006344:	152c0006 	bne	t1,t4,9d006360 <i25>
9d006348:	00000000 	nop
9d00634c:	000b2025 	or	a0,zero,t3
9d006350:	00084825 	or	t1,zero,t0
9d006354:	240d0000 	li	t5,0
9d006358:	1000002a 	b	9d006404 <e25>
9d00635c:	000d3825 	or	a3,zero,t5

9d006360 <i25>:
9d006360:	000c3c02 	srl	a3,t4,0x10
9d006364:	00e001f4 	teq	a3,zero,0x7
9d006368:	0127001b 	divu	zero,t1,a3
9d00636c:	00006812 	mflo	t5
9d006370:	00004810 	mfhi	t1
9d006374:	3186ffff 	andi	a2,t4,0xffff
9d006378:	00cd0019 	multu	a2,t5
9d00637c:	00002012 	mflo	a0
9d006380:	00094c00 	sll	t1,t1,0x10
9d006384:	00087c02 	srl	t7,t0,0x10
9d006388:	012f4825 	or	t1,t1,t7
9d00638c:	0124782b 	sltu	t7,t1,a0
9d006390:	11e00006 	beqz	t7,9d0063ac <i26>
9d006394:	01244823 	subu	t1,t1,a0

9d006398 <b27>:
9d006398:	25adffff 	addiu	t5,t5,-1
9d00639c:	012c4821 	addu	t1,t1,t4
9d0063a0:	012c082b 	sltu	at,t1,t4
9d0063a4:	1020fffc 	beqz	at,9d006398 <b27>
9d0063a8:	00000000 	nop

9d0063ac <i26>:
9d0063ac:	00e001f4 	teq	a3,zero,0x7
9d0063b0:	0127001b 	divu	zero,t1,a3
9d0063b4:	00003812 	mflo	a3
9d0063b8:	00004810 	mfhi	t1
9d0063bc:	00c70019 	multu	a2,a3
9d0063c0:	00002012 	mflo	a0
9d0063c4:	00094c00 	sll	t1,t1,0x10
9d0063c8:	310fffff 	andi	t7,t0,0xffff
9d0063cc:	012f4825 	or	t1,t1,t7
9d0063d0:	0124782b 	sltu	t7,t1,a0
9d0063d4:	11e00006 	beqz	t7,9d0063f0 <i28>
9d0063d8:	01244823 	subu	t1,t1,a0

9d0063dc <b29>:
9d0063dc:	24e7ffff 	addiu	a3,a3,-1
9d0063e0:	012c4821 	addu	t1,t1,t4
9d0063e4:	012c082b 	sltu	at,t1,t4
9d0063e8:	1020fffc 	beqz	at,9d0063dc <b29>
9d0063ec:	00000000 	nop

9d0063f0 <i28>:
9d0063f0:	000d6c00 	sll	t5,t5,0x10
9d0063f4:	01a76821 	addu	t5,t5,a3
9d0063f8:	01ab0019 	multu	t5,t3
9d0063fc:	00003812 	mflo	a3
9d006400:	00002010 	mfhi	a0

9d006404 <e25>:
9d006404:	24080000 	li	t0,0
9d006408:	0107782b 	sltu	t7,t0,a3
9d00640c:	01074023 	subu	t0,t0,a3
9d006410:	012f102b 	sltu	v0,t1,t7
9d006414:	012f4823 	subu	t1,t1,t7
9d006418:	0124782b 	sltu	t7,t1,a0
9d00641c:	01e27825 	or	t7,t7,v0
9d006420:	11e0000b 	beqz	t7,9d006450 <i30>
9d006424:	01244823 	subu	t1,t1,a0

9d006428 <Dlab4>:
9d006428:	25adffff 	addiu	t5,t5,-1
9d00642c:	010b4021 	addu	t0,t0,t3
9d006430:	010b782b 	sltu	t7,t0,t3
9d006434:	012c4821 	addu	t1,t1,t4
9d006438:	012f4821 	addu	t1,t1,t7
9d00643c:	112c0002 	beq	t1,t4,9d006448 <L32>
9d006440:	00000000 	nop
9d006444:	012c782b 	sltu	t7,t1,t4

9d006448 <L32>:
9d006448:	11e0fff7 	beqz	t7,9d006428 <Dlab4>
9d00644c:	00000000 	nop

9d006450 <i30>:
9d006450:	05c00006 	bltz	t6,9d00646c <i31>
9d006454:	00000000 	nop
9d006458:	01a0782a 	slt	t7,t5,zero
9d00645c:	01ad6821 	addu	t5,t5,t5
9d006460:	01ce7021 	addu	t6,t6,t6
9d006464:	01cf7021 	addu	t6,t6,t7
9d006468:	254affff 	addiu	t2,t2,-1

9d00646c <i31>:
9d00646c:	01287825 	or	t7,t1,t0
9d006470:	11e00002 	beqz	t7,9d00647c <i32>
9d006474:	00000000 	nop
9d006478:	35ad0001 	ori	t5,t5,0x1

9d00647c <i32>:
9d00647c:	000e4825 	or	t1,zero,t6
9d006480:	000d4025 	or	t0,zero,t5
9d006484:	254fffff 	addiu	t7,t2,-1
9d006488:	2de107fe 	sltiu	at,t7,2046
9d00648c:	10200015 	beqz	at,9d0064e4 <Doveund>
9d006490:	00000000 	nop
9d006494:	25080400 	addiu	t0,t0,1024
9d006498:	2d0f0400 	sltiu	t7,t0,1024
9d00649c:	012f4821 	addu	t1,t1,t7
9d0064a0:	012f782b 	sltu	t7,t1,t7
9d0064a4:	014f5021 	addu	t2,t2,t7

9d0064a8 <Dlab8>:
9d0064a8:	00087ac2 	srl	t7,t0,0xb
9d0064ac:	31ef0001 	andi	t7,t7,0x1
9d0064b0:	010f4023 	subu	t0,t0,t7
9d0064b4:	000822c2 	srl	a0,t0,0xb
9d0064b8:	00097d40 	sll	t7,t1,0x15
9d0064bc:	008f2025 	or	a0,a0,t7
9d0064c0:	00097840 	sll	t7,t1,0x1
9d0064c4:	000f7b02 	srl	t7,t7,0xc
9d0064c8:	00af2825 	or	a1,a1,t7
9d0064cc:	000a7d00 	sll	t7,t2,0x14
9d0064d0:	00af2825 	or	a1,a1,t7

9d0064d4 <Dret>:
9d0064d4:	00041025 	or	v0,zero,a0
9d0064d8:	00051825 	or	v1,zero,a1

9d0064dc <D999>:
9d0064dc:	03e00008 	jr	ra
9d0064e0:	00000000 	nop

9d0064e4 <Doveund>:
9d0064e4:	1d400044 	bgtz	t2,9d0065f8 <Dinf>
9d0064e8:	00000000 	nop
9d0064ec:	240e0001 	li	t6,1
9d0064f0:	01ca7023 	subu	t6,t6,t2

9d0064f4 <L33>:
9d0064f4:	2dc10020 	sltiu	at,t6,32
9d0064f8:	14200007 	bnez	at,9d006518 <L34>
9d0064fc:	00000000 	nop
9d006500:	21ceffe0 	addi	t6,t6,-32
9d006504:	0008202b 	sltu	a0,zero,t0
9d006508:	1009000d 	beq	zero,t1,9d006540 <L35>
9d00650c:	01244025 	or	t0,t1,a0
9d006510:	1000fff8 	b	9d0064f4 <L33>
9d006514:	34090000 	li	t1,0x0

9d006518 <L34>:
9d006518:	11c00009 	beqz	t6,9d006540 <L35>
9d00651c:	00000000 	nop
9d006520:	000e3022 	neg	a2,t6
9d006524:	00c82004 	sllv	a0,t0,a2
9d006528:	00c93004 	sllv	a2,t1,a2
9d00652c:	01c84006 	srlv	t0,t0,t6
9d006530:	01c94806 	srlv	t1,t1,t6
9d006534:	10800002 	beqz	a0,9d006540 <L35>
9d006538:	00c84025 	or	t0,a2,t0
9d00653c:	35080002 	ori	t0,t0,0x2

9d006540 <L35>:
9d006540:	25080400 	addiu	t0,t0,1024
9d006544:	2d0f0400 	sltiu	t7,t0,1024
9d006548:	012f4821 	addu	t1,t1,t7
9d00654c:	1000ffd6 	b	9d0064a8 <Dlab8>
9d006550:	000957c2 	srl	t2,t1,0x1f

9d006554 <DspecA>:
9d006554:	0100782a 	slt	t7,t0,zero
9d006558:	01084021 	addu	t0,t0,t0
9d00655c:	01294821 	addu	t1,t1,t1
9d006560:	15400017 	bnez	t2,9d0065c0 <i33>
9d006564:	012f4821 	addu	t1,t1,t7
9d006568:	01287825 	or	t7,t1,t0
9d00656c:	11e00014 	beqz	t7,9d0065c0 <i33>
9d006570:	00000000 	nop
9d006574:	15200008 	bnez	t1,9d006598 <L36>
9d006578:	00000000 	nop
9d00657c:	15000003 	bnez	t0,9d00658c <L37>
9d006580:	00000000 	nop
9d006584:	1000ff29 	b	9d00622c <Dlab1>
9d006588:	240a0000 	li	t2,0

9d00658c <L37>:
9d00658c:	01004825 	move	t1,t0
9d006590:	24080000 	li	t0,0
9d006594:	254affe0 	addiu	t2,t2,-32

9d006598 <L36>:
9d006598:	712e7020 	clz	t6,t1
9d00659c:	11c0ff23 	beqz	t6,9d00622c <Dlab1>
9d0065a0:	00000000 	nop
9d0065a4:	014e5023 	subu	t2,t2,t6
9d0065a8:	000e3022 	neg	a2,t6
9d0065ac:	00c83006 	srlv	a2,t0,a2
9d0065b0:	01c84004 	sllv	t0,t0,t6
9d0065b4:	01c94804 	sllv	t1,t1,t6
9d0065b8:	1000ff1c 	b	9d00622c <Dlab1>
9d0065bc:	01264825 	or	t1,t1,a2

9d0065c0 <i33>:
9d0065c0:	154d0005 	bne	t2,t5,9d0065d8 <i35>
9d0065c4:	00000000 	nop
9d0065c8:	000c7840 	sll	t7,t4,0x1
9d0065cc:	01eb7825 	or	t7,t7,t3
9d0065d0:	11e0002b 	beqz	t7,9d006680 <Dnan>
9d0065d4:	00000000 	nop

9d0065d8 <i35>:
9d0065d8:	240107ff 	li	at,2047
9d0065dc:	11a1000a 	beq	t5,at,9d006608 <DspecB>
9d0065e0:	00000000 	nop
9d0065e4:	1140ffbb 	beqz	t2,9d0064d4 <Dret>
9d0065e8:	00000000 	nop
9d0065ec:	01287825 	or	t7,t1,t0
9d0065f0:	15e00023 	bnez	t7,9d006680 <Dnan>
9d0065f4:	00000000 	nop

9d0065f8 <Dinf>:
9d0065f8:	3c017ff0 	lui	at,0x7ff0
9d0065fc:	00a12825 	or	a1,a1,at
9d006600:	1000ffb4 	b	9d0064d4 <Dret>
9d006604:	24040000 	li	a0,0

9d006608 <DspecB>:
9d006608:	0160782a 	slt	t7,t3,zero
9d00660c:	016b5821 	addu	t3,t3,t3
9d006610:	018c6021 	addu	t4,t4,t4
9d006614:	15a00017 	bnez	t5,9d006674 <i36>
9d006618:	018f6021 	addu	t4,t4,t7
9d00661c:	018b7825 	or	t7,t4,t3
9d006620:	11e0fff5 	beqz	t7,9d0065f8 <Dinf>
9d006624:	00000000 	nop
9d006628:	15800008 	bnez	t4,9d00664c <L39>
9d00662c:	00000000 	nop
9d006630:	15600003 	bnez	t3,9d006640 <L40>
9d006634:	00000000 	nop
9d006638:	1000ff00 	b	9d00623c <Dlab2>
9d00663c:	240d0000 	li	t5,0

9d006640 <L40>:
9d006640:	01606025 	move	t4,t3
9d006644:	240b0000 	li	t3,0
9d006648:	25adffe0 	addiu	t5,t5,-32

9d00664c <L39>:
9d00664c:	718e7020 	clz	t6,t4
9d006650:	11c0fefa 	beqz	t6,9d00623c <Dlab2>
9d006654:	00000000 	nop
9d006658:	01ae6823 	subu	t5,t5,t6
9d00665c:	000e3022 	neg	a2,t6
9d006660:	00cb3006 	srlv	a2,t3,a2
9d006664:	01cb5804 	sllv	t3,t3,t6
9d006668:	01cc6004 	sllv	t4,t4,t6
9d00666c:	1000fef3 	b	9d00623c <Dlab2>
9d006670:	01866025 	or	t4,t4,a2

9d006674 <i36>:
9d006674:	018b7825 	or	t7,t4,t3
9d006678:	11e00002 	beqz	t7,9d006684 <i38>
9d00667c:	00000000 	nop

9d006680 <Dnan>:
9d006680:	3c05fff8 	lui	a1,0xfff8

9d006684 <i38>:
9d006684:	1000ff93 	b	9d0064d4 <Dret>
9d006688:	24040000 	li	a0,0
9d00668c:	00000000 	nop

Disassembly of section .text:

9d006690 <__divdi3>:
9d006690:	04a00052 	bltz	a1,9d0067dc <__divdi3+0x14c>
9d006694:	00004821 	move	t1,zero
9d006698:	04e20057 	bltzl	a3,9d0067f8 <__divdi3+0x168>
9d00669c:	00063023 	negu	a2,a2
9d0066a0:	00c04021 	move	t0,a2
9d0066a4:	00805021 	move	t2,a0
9d0066a8:	14e00046 	bnez	a3,9d0067c4 <__divdi3+0x134>
9d0066ac:	00a01821 	move	v1,a1
9d0066b0:	00a6102b 	sltu	v0,a1,a2
9d0066b4:	1040005d 	beqz	v0,9d00682c <__divdi3+0x19c>
9d0066b8:	70c21020 	clz	v0,a2
9d0066bc:	50400008 	beqzl	v0,9d0066e0 <__divdi3+0x50>
9d0066c0:	00082c02 	srl	a1,t0,0x10
9d0066c4:	00022023 	negu	a0,v0
9d0066c8:	008a2006 	srlv	a0,t2,a0
9d0066cc:	00451804 	sllv	v1,a1,v0
9d0066d0:	00464004 	sllv	t0,a2,v0
9d0066d4:	00831825 	or	v1,a0,v1
9d0066d8:	004a5004 	sllv	t2,t2,v0
9d0066dc:	00082c02 	srl	a1,t0,0x10
9d0066e0:	0065001b 	divu	zero,v1,a1
9d0066e4:	00a001f4 	teq	a1,zero,0x7
9d0066e8:	00006010 	mfhi	t4
9d0066ec:	00005812 	mflo	t3
9d0066f0:	3107ffff 	andi	a3,t0,0xffff
9d0066f4:	000a2402 	srl	a0,t2,0x10
9d0066f8:	00001012 	mflo	v0
9d0066fc:	71673002 	mul	a2,t3,a3
9d006700:	000c6400 	sll	t4,t4,0x10
9d006704:	01842025 	or	a0,t4,a0
9d006708:	0086602b 	sltu	t4,a0,a2
9d00670c:	0065001b 	divu	zero,v1,a1
9d006710:	00a001f4 	teq	a1,zero,0x7
9d006714:	1180000b 	beqz	t4,9d006744 <__divdi3+0xb4>
9d006718:	00861823 	subu	v1,a0,a2
9d00671c:	00882021 	addu	a0,a0,t0
9d006720:	0088182b 	sltu	v1,a0,t0
9d006724:	14600006 	bnez	v1,9d006740 <__divdi3+0xb0>
9d006728:	2562ffff 	addiu	v0,t3,-1
9d00672c:	0086182b 	sltu	v1,a0,a2
9d006730:	10600004 	beqz	v1,9d006744 <__divdi3+0xb4>
9d006734:	00861823 	subu	v1,a0,a2
9d006738:	2562fffe 	addiu	v0,t3,-2
9d00673c:	00882021 	addu	a0,a0,t0
9d006740:	00861823 	subu	v1,a0,a2
9d006744:	314affff 	andi	t2,t2,0xffff
9d006748:	0065001b 	divu	zero,v1,a1
9d00674c:	00a001f4 	teq	a1,zero,0x7
9d006750:	00005810 	mfhi	t3
9d006754:	00003012 	mflo	a2
9d006758:	00002012 	mflo	a0
9d00675c:	70c73802 	mul	a3,a2,a3
9d006760:	000b5c00 	sll	t3,t3,0x10
9d006764:	016a5025 	or	t2,t3,t2
9d006768:	0147582b 	sltu	t3,t2,a3
9d00676c:	0065001b 	divu	zero,v1,a1
9d006770:	00a001f4 	teq	a1,zero,0x7
9d006774:	51600009 	beqzl	t3,9d00679c <__divdi3+0x10c>
9d006778:	00021400 	sll	v0,v0,0x10
9d00677c:	01485021 	addu	t2,t2,t0
9d006780:	0148402b 	sltu	t0,t2,t0
9d006784:	15000004 	bnez	t0,9d006798 <__divdi3+0x108>
9d006788:	24c4ffff 	addiu	a0,a2,-1
9d00678c:	0147382b 	sltu	a3,t2,a3
9d006790:	24c6fffe 	addiu	a2,a2,-2
9d006794:	00c7200b 	movn	a0,a2,a3
9d006798:	00021400 	sll	v0,v0,0x10
9d00679c:	00821025 	or	v0,a0,v0
9d0067a0:	00001821 	move	v1,zero
9d0067a4:	11200005 	beqz	t1,9d0067bc <__divdi3+0x12c>
9d0067a8:	00000000 	nop
9d0067ac:	00021023 	negu	v0,v0
9d0067b0:	0002202b 	sltu	a0,zero,v0
9d0067b4:	00031823 	negu	v1,v1
9d0067b8:	00641823 	subu	v1,v1,a0
9d0067bc:	03e00008 	jr	ra
9d0067c0:	00000000 	nop
9d0067c4:	00a7102b 	sltu	v0,a1,a3
9d0067c8:	10400010 	beqz	v0,9d00680c <__divdi3+0x17c>
9d0067cc:	70e84020 	clz	t0,a3
9d0067d0:	00001821 	move	v1,zero
9d0067d4:	0b4019e9 	j	9d0067a4 <__divdi3+0x114>
9d0067d8:	00001021 	move	v0,zero
9d0067dc:	00042023 	negu	a0,a0
9d0067e0:	0004102b 	sltu	v0,zero,a0
9d0067e4:	00052823 	negu	a1,a1
9d0067e8:	00a22823 	subu	a1,a1,v0
9d0067ec:	04e1ffac 	bgez	a3,9d0066a0 <__divdi3+0x10>
9d0067f0:	2409ffff 	li	t1,-1
9d0067f4:	00063023 	negu	a2,a2
9d0067f8:	0006102b 	sltu	v0,zero,a2
9d0067fc:	00073823 	negu	a3,a3
9d006800:	00094827 	nor	t1,zero,t1
9d006804:	0b4019a8 	j	9d0066a0 <__divdi3+0x10>
9d006808:	00e23823 	subu	a3,a3,v0
9d00680c:	1500007e 	bnez	t0,9d006a08 <__divdi3+0x378>
9d006810:	24020020 	li	v0,32
9d006814:	00e5282b 	sltu	a1,a3,a1
9d006818:	14a000c6 	bnez	a1,9d006b34 <__divdi3+0x4a4>
9d00681c:	00001821 	move	v1,zero
9d006820:	0086102b 	sltu	v0,a0,a2
9d006824:	0b4019e9 	j	9d0067a4 <__divdi3+0x114>
9d006828:	38420001 	xori	v0,v0,0x1
9d00682c:	14c00006 	bnez	a2,9d006848 <__divdi3+0x1b8>
9d006830:	71021020 	clz	v0,t0
9d006834:	24080001 	li	t0,1
9d006838:	0107001b 	divu	zero,t0,a3
9d00683c:	00e001f4 	teq	a3,zero,0x7
9d006840:	00004012 	mflo	t0
9d006844:	71021020 	clz	v0,t0
9d006848:	54400033 	bnezl	v0,9d006918 <__divdi3+0x288>
9d00684c:	00484004 	sllv	t0,t0,v0
9d006850:	00a82023 	subu	a0,a1,t0
9d006854:	00083c02 	srl	a3,t0,0x10
9d006858:	310cffff 	andi	t4,t0,0xffff
9d00685c:	24030001 	li	v1,1
9d006860:	000a3402 	srl	a2,t2,0x10
9d006864:	0087001b 	divu	zero,a0,a3
9d006868:	00e001f4 	teq	a3,zero,0x7
9d00686c:	00007010 	mfhi	t6
9d006870:	00006812 	mflo	t5
9d006874:	00001012 	mflo	v0
9d006878:	71ac5802 	mul	t3,t5,t4
9d00687c:	000e7400 	sll	t6,t6,0x10
9d006880:	01c63025 	or	a2,t6,a2
9d006884:	00cb702b 	sltu	t6,a2,t3
9d006888:	0087001b 	divu	zero,a0,a3
9d00688c:	00e001f4 	teq	a3,zero,0x7
9d006890:	11c00009 	beqz	t6,9d0068b8 <__divdi3+0x228>
9d006894:	00cb2823 	subu	a1,a2,t3
9d006898:	00c83021 	addu	a2,a2,t0
9d00689c:	00c8202b 	sltu	a0,a2,t0
9d0068a0:	14800004 	bnez	a0,9d0068b4 <__divdi3+0x224>
9d0068a4:	25a2ffff 	addiu	v0,t5,-1
9d0068a8:	00cb202b 	sltu	a0,a2,t3
9d0068ac:	548000a3 	bnezl	a0,9d006b3c <__divdi3+0x4ac>
9d0068b0:	25a2fffe 	addiu	v0,t5,-2
9d0068b4:	00cb2823 	subu	a1,a2,t3
9d0068b8:	314affff 	andi	t2,t2,0xffff
9d0068bc:	00a7001b 	divu	zero,a1,a3
9d0068c0:	00e001f4 	teq	a3,zero,0x7
9d0068c4:	00005810 	mfhi	t3
9d0068c8:	00003012 	mflo	a2
9d0068cc:	00002012 	mflo	a0
9d0068d0:	70cc6002 	mul	t4,a2,t4
9d0068d4:	000b5c00 	sll	t3,t3,0x10
9d0068d8:	016a5025 	or	t2,t3,t2
9d0068dc:	014c582b 	sltu	t3,t2,t4
9d0068e0:	00a7001b 	divu	zero,a1,a3
9d0068e4:	00e001f4 	teq	a3,zero,0x7
9d0068e8:	51600009 	beqzl	t3,9d006910 <__divdi3+0x280>
9d0068ec:	00021400 	sll	v0,v0,0x10
9d0068f0:	01485021 	addu	t2,t2,t0
9d0068f4:	0148402b 	sltu	t0,t2,t0
9d0068f8:	15000004 	bnez	t0,9d00690c <__divdi3+0x27c>
9d0068fc:	24c4ffff 	addiu	a0,a2,-1
9d006900:	014c502b 	sltu	t2,t2,t4
9d006904:	24c6fffe 	addiu	a2,a2,-2
9d006908:	00ca200b 	movn	a0,a2,t2
9d00690c:	00021400 	sll	v0,v0,0x10
9d006910:	0b4019e9 	j	9d0067a4 <__divdi3+0x114>
9d006914:	00821025 	or	v0,a0,v0
9d006918:	24030020 	li	v1,32
9d00691c:	00621823 	subu	v1,v1,v0
9d006920:	00653006 	srlv	a2,a1,v1
9d006924:	00083c02 	srl	a3,t0,0x10
9d006928:	00c7001b 	divu	zero,a2,a3
9d00692c:	00e001f4 	teq	a3,zero,0x7
9d006930:	00007810 	mfhi	t7
9d006934:	00006812 	mflo	t5
9d006938:	310cffff 	andi	t4,t0,0xffff
9d00693c:	00452804 	sllv	a1,a1,v0
9d006940:	00641806 	srlv	v1,a0,v1
9d006944:	00652825 	or	a1,v1,a1
9d006948:	00057402 	srl	t6,a1,0x10
9d00694c:	00445004 	sllv	t2,a0,v0
9d006950:	00001812 	mflo	v1
9d006954:	71ac5802 	mul	t3,t5,t4
9d006958:	000f1400 	sll	v0,t7,0x10
9d00695c:	01c21025 	or	v0,t6,v0
9d006960:	004b202b 	sltu	a0,v0,t3
9d006964:	00c7001b 	divu	zero,a2,a3
9d006968:	00e001f4 	teq	a3,zero,0x7
9d00696c:	5080000b 	beqzl	a0,9d00699c <__divdi3+0x30c>
9d006970:	004b1023 	subu	v0,v0,t3
9d006974:	00481021 	addu	v0,v0,t0
9d006978:	0048202b 	sltu	a0,v0,t0
9d00697c:	14800006 	bnez	a0,9d006998 <__divdi3+0x308>
9d006980:	25a3ffff 	addiu	v1,t5,-1
9d006984:	004b202b 	sltu	a0,v0,t3
9d006988:	50800004 	beqzl	a0,9d00699c <__divdi3+0x30c>
9d00698c:	004b1023 	subu	v0,v0,t3
9d006990:	25a3fffe 	addiu	v1,t5,-2
9d006994:	00481021 	addu	v0,v0,t0
9d006998:	004b1023 	subu	v0,v0,t3
9d00699c:	30adffff 	andi	t5,a1,0xffff
9d0069a0:	0047001b 	divu	zero,v0,a3
9d0069a4:	00e001f4 	teq	a3,zero,0x7
9d0069a8:	00002010 	mfhi	a0
9d0069ac:	00005812 	mflo	t3
9d0069b0:	00003012 	mflo	a2
9d0069b4:	716c2802 	mul	a1,t3,t4
9d0069b8:	00042400 	sll	a0,a0,0x10
9d0069bc:	008d2025 	or	a0,a0,t5
9d0069c0:	0085682b 	sltu	t5,a0,a1
9d0069c4:	0047001b 	divu	zero,v0,a3
9d0069c8:	00e001f4 	teq	a3,zero,0x7
9d0069cc:	51a0000b 	beqzl	t5,9d0069fc <__divdi3+0x36c>
9d0069d0:	00031c00 	sll	v1,v1,0x10
9d0069d4:	00882021 	addu	a0,a0,t0
9d0069d8:	0088102b 	sltu	v0,a0,t0
9d0069dc:	14400006 	bnez	v0,9d0069f8 <__divdi3+0x368>
9d0069e0:	2566ffff 	addiu	a2,t3,-1
9d0069e4:	0085102b 	sltu	v0,a0,a1
9d0069e8:	50400004 	beqzl	v0,9d0069fc <__divdi3+0x36c>
9d0069ec:	00031c00 	sll	v1,v1,0x10
9d0069f0:	2566fffe 	addiu	a2,t3,-2
9d0069f4:	00882021 	addu	a0,a0,t0
9d0069f8:	00031c00 	sll	v1,v1,0x10
9d0069fc:	00852023 	subu	a0,a0,a1
9d006a00:	0b401a18 	j	9d006860 <__divdi3+0x1d0>
9d006a04:	00c31825 	or	v1,a2,v1
9d006a08:	00481023 	subu	v0,v0,t0
9d006a0c:	01073804 	sllv	a3,a3,t0
9d006a10:	00461806 	srlv	v1,a2,v0
9d006a14:	00673825 	or	a3,v1,a3
9d006a18:	00455806 	srlv	t3,a1,v0
9d006a1c:	00071c02 	srl	v1,a3,0x10
9d006a20:	0163001b 	divu	zero,t3,v1
9d006a24:	006001f4 	teq	v1,zero,0x7
9d006a28:	00005010 	mfhi	t2
9d006a2c:	00007012 	mflo	t6
9d006a30:	30ecffff 	andi	t4,a3,0xffff
9d006a34:	01052804 	sllv	a1,a1,t0
9d006a38:	00441006 	srlv	v0,a0,v0
9d006a3c:	00452825 	or	a1,v0,a1
9d006a40:	00057c02 	srl	t7,a1,0x10
9d006a44:	00001012 	mflo	v0
9d006a48:	71cc6802 	mul	t5,t6,t4
9d006a4c:	000a5400 	sll	t2,t2,0x10
9d006a50:	014f5025 	or	t2,t2,t7
9d006a54:	014d782b 	sltu	t7,t2,t5
9d006a58:	0163001b 	divu	zero,t3,v1
9d006a5c:	006001f4 	teq	v1,zero,0x7
9d006a60:	11e0000a 	beqz	t7,9d006a8c <__divdi3+0x3fc>
9d006a64:	01063004 	sllv	a2,a2,t0
9d006a68:	01475021 	addu	t2,t2,a3
9d006a6c:	0147582b 	sltu	t3,t2,a3
9d006a70:	15600006 	bnez	t3,9d006a8c <__divdi3+0x3fc>
9d006a74:	25c2ffff 	addiu	v0,t6,-1
9d006a78:	014d582b 	sltu	t3,t2,t5
9d006a7c:	51600004 	beqzl	t3,9d006a90 <__divdi3+0x400>
9d006a80:	014d5023 	subu	t2,t2,t5
9d006a84:	25c2fffe 	addiu	v0,t6,-2
9d006a88:	01475021 	addu	t2,t2,a3
9d006a8c:	014d5023 	subu	t2,t2,t5
9d006a90:	30a5ffff 	andi	a1,a1,0xffff
9d006a94:	0143001b 	divu	zero,t2,v1
9d006a98:	006001f4 	teq	v1,zero,0x7
9d006a9c:	00007010 	mfhi	t6
9d006aa0:	00006812 	mflo	t5
9d006aa4:	00005812 	mflo	t3
9d006aa8:	71ac6002 	mul	t4,t5,t4
9d006aac:	000e7400 	sll	t6,t6,0x10
9d006ab0:	01c52825 	or	a1,t6,a1
9d006ab4:	00ac702b 	sltu	t6,a1,t4
9d006ab8:	0143001b 	divu	zero,t2,v1
9d006abc:	006001f4 	teq	v1,zero,0x7
9d006ac0:	51c0000b 	beqzl	t6,9d006af0 <__divdi3+0x460>
9d006ac4:	00021400 	sll	v0,v0,0x10
9d006ac8:	00a72821 	addu	a1,a1,a3
9d006acc:	00a7182b 	sltu	v1,a1,a3
9d006ad0:	14600006 	bnez	v1,9d006aec <__divdi3+0x45c>
9d006ad4:	25abffff 	addiu	t3,t5,-1
9d006ad8:	00ac182b 	sltu	v1,a1,t4
9d006adc:	50600004 	beqzl	v1,9d006af0 <__divdi3+0x460>
9d006ae0:	00021400 	sll	v0,v0,0x10
9d006ae4:	25abfffe 	addiu	t3,t5,-2
9d006ae8:	00a72821 	addu	a1,a1,a3
9d006aec:	00021400 	sll	v0,v0,0x10
9d006af0:	01621025 	or	v0,t3,v0
9d006af4:	00ac2823 	subu	a1,a1,t4
9d006af8:	00460019 	multu	v0,a2
9d006afc:	00003810 	mfhi	a3
9d006b00:	00a7182b 	sltu	v1,a1,a3
9d006b04:	14600008 	bnez	v1,9d006b28 <__divdi3+0x498>
9d006b08:	00003012 	mflo	a2
9d006b0c:	50a70003 	beql	a1,a3,9d006b1c <__divdi3+0x48c>
9d006b10:	01042004 	sllv	a0,a0,t0
9d006b14:	0b4019e9 	j	9d0067a4 <__divdi3+0x114>
9d006b18:	00001821 	move	v1,zero
9d006b1c:	0086302b 	sltu	a2,a0,a2
9d006b20:	50c0ff20 	beqzl	a2,9d0067a4 <__divdi3+0x114>
9d006b24:	00001821 	move	v1,zero
9d006b28:	2442ffff 	addiu	v0,v0,-1
9d006b2c:	0b4019e9 	j	9d0067a4 <__divdi3+0x114>
9d006b30:	00001821 	move	v1,zero
9d006b34:	0b4019e9 	j	9d0067a4 <__divdi3+0x114>
9d006b38:	24020001 	li	v0,1
9d006b3c:	0b401a2d 	j	9d0068b4 <__divdi3+0x224>
9d006b40:	00c83021 	addu	a2,a2,t0

9d006b44 <__umoddi3>:
9d006b44:	00c04021 	move	t0,a2
9d006b48:	00804821 	move	t1,a0
9d006b4c:	14e0003b 	bnez	a3,9d006c3c <__umoddi3+0xf8>
9d006b50:	00a01821 	move	v1,a1
9d006b54:	00a6102b 	sltu	v0,a1,a2
9d006b58:	10400048 	beqz	v0,9d006c7c <__umoddi3+0x138>
9d006b5c:	70c21020 	clz	v0,a2
9d006b60:	50400008 	beqzl	v0,9d006b84 <__umoddi3+0x40>
9d006b64:	00083402 	srl	a2,t0,0x10
9d006b68:	00021823 	negu	v1,v0
9d006b6c:	00452804 	sllv	a1,a1,v0
9d006b70:	00641806 	srlv	v1,a0,v1
9d006b74:	00464004 	sllv	t0,a2,v0
9d006b78:	00651825 	or	v1,v1,a1
9d006b7c:	00444804 	sllv	t1,a0,v0
9d006b80:	00083402 	srl	a2,t0,0x10
9d006b84:	0066001b 	divu	zero,v1,a2
9d006b88:	00c001f4 	teq	a2,zero,0x7
9d006b8c:	00002010 	mfhi	a0
9d006b90:	00005812 	mflo	t3
9d006b94:	310cffff 	andi	t4,t0,0xffff
9d006b98:	00095402 	srl	t2,t1,0x10
9d006b9c:	716c5802 	mul	t3,t3,t4
9d006ba0:	00042400 	sll	a0,a0,0x10
9d006ba4:	008a5025 	or	t2,a0,t2
9d006ba8:	014b682b 	sltu	t5,t2,t3
9d006bac:	0066001b 	divu	zero,v1,a2
9d006bb0:	00c001f4 	teq	a2,zero,0x7
9d006bb4:	51a00009 	beqzl	t5,9d006bdc <__umoddi3+0x98>
9d006bb8:	014b5023 	subu	t2,t2,t3
9d006bbc:	01485021 	addu	t2,t2,t0
9d006bc0:	0148182b 	sltu	v1,t2,t0
9d006bc4:	54600005 	bnezl	v1,9d006bdc <__umoddi3+0x98>
9d006bc8:	014b5023 	subu	t2,t2,t3
9d006bcc:	014b202b 	sltu	a0,t2,t3
9d006bd0:	01481821 	addu	v1,t2,t0
9d006bd4:	0064500b 	movn	t2,v1,a0
9d006bd8:	014b5023 	subu	t2,t2,t3
9d006bdc:	3123ffff 	andi	v1,t1,0xffff
9d006be0:	0146001b 	divu	zero,t2,a2
9d006be4:	00c001f4 	teq	a2,zero,0x7
9d006be8:	00004810 	mfhi	t1
9d006bec:	00002012 	mflo	a0
9d006bf0:	708c2002 	mul	a0,a0,t4
9d006bf4:	00094c00 	sll	t1,t1,0x10
9d006bf8:	01234825 	or	t1,t1,v1
9d006bfc:	0124182b 	sltu	v1,t1,a0
9d006c00:	0146001b 	divu	zero,t2,a2
9d006c04:	00c001f4 	teq	a2,zero,0x7
9d006c08:	50600009 	beqzl	v1,9d006c30 <__umoddi3+0xec>
9d006c0c:	01244823 	subu	t1,t1,a0
9d006c10:	01284821 	addu	t1,t1,t0
9d006c14:	0128182b 	sltu	v1,t1,t0
9d006c18:	54600005 	bnezl	v1,9d006c30 <__umoddi3+0xec>
9d006c1c:	01244823 	subu	t1,t1,a0
9d006c20:	0124182b 	sltu	v1,t1,a0
9d006c24:	01284021 	addu	t0,t1,t0
9d006c28:	0103480b 	movn	t1,t0,v1
9d006c2c:	01244823 	subu	t1,t1,a0
9d006c30:	00491006 	srlv	v0,t1,v0
9d006c34:	03e00008 	jr	ra
9d006c38:	00001821 	move	v1,zero
9d006c3c:	00a7102b 	sltu	v0,a1,a3
9d006c40:	14400047 	bnez	v0,9d006d60 <__umoddi3+0x21c>
9d006c44:	70ea5020 	clz	t2,a3
9d006c48:	15400048 	bnez	t2,9d006d6c <__umoddi3+0x228>
9d006c4c:	240b0020 	li	t3,32
9d006c50:	00e5102b 	sltu	v0,a3,a1
9d006c54:	14400005 	bnez	v0,9d006c6c <__umoddi3+0x128>
9d006c58:	00861023 	subu	v0,a0,a2
9d006c5c:	0086402b 	sltu	t0,a0,a2
9d006c60:	15000089 	bnez	t0,9d006e88 <__umoddi3+0x344>
9d006c64:	00801021 	move	v0,a0
9d006c68:	00861023 	subu	v0,a0,a2
9d006c6c:	00a72823 	subu	a1,a1,a3
9d006c70:	0082202b 	sltu	a0,a0,v0
9d006c74:	03e00008 	jr	ra
9d006c78:	00a41823 	subu	v1,a1,a0
9d006c7c:	14c00006 	bnez	a2,9d006c98 <__umoddi3+0x154>
9d006c80:	71021020 	clz	v0,t0
9d006c84:	24020001 	li	v0,1
9d006c88:	0046001b 	divu	zero,v0,a2
9d006c8c:	00c001f4 	teq	a2,zero,0x7
9d006c90:	00004012 	mflo	t0
9d006c94:	71021020 	clz	v0,t0
9d006c98:	5440007d 	bnezl	v0,9d006e90 <__umoddi3+0x34c>
9d006c9c:	00484004 	sllv	t0,t0,v0
9d006ca0:	00a82823 	subu	a1,a1,t0
9d006ca4:	00081c02 	srl	v1,t0,0x10
9d006ca8:	3107ffff 	andi	a3,t0,0xffff
9d006cac:	00092402 	srl	a0,t1,0x10
9d006cb0:	00a3001b 	divu	zero,a1,v1
9d006cb4:	006001f4 	teq	v1,zero,0x7
9d006cb8:	00005010 	mfhi	t2
9d006cbc:	00003012 	mflo	a2
9d006cc0:	70c73002 	mul	a2,a2,a3
9d006cc4:	000a5400 	sll	t2,t2,0x10
9d006cc8:	01442025 	or	a0,t2,a0
9d006ccc:	0086502b 	sltu	t2,a0,a2
9d006cd0:	00a3001b 	divu	zero,a1,v1
9d006cd4:	006001f4 	teq	v1,zero,0x7
9d006cd8:	51400009 	beqzl	t2,9d006d00 <__umoddi3+0x1bc>
9d006cdc:	00862023 	subu	a0,a0,a2
9d006ce0:	00882021 	addu	a0,a0,t0
9d006ce4:	0088282b 	sltu	a1,a0,t0
9d006ce8:	54a00005 	bnezl	a1,9d006d00 <__umoddi3+0x1bc>
9d006cec:	00862023 	subu	a0,a0,a2
9d006cf0:	0086502b 	sltu	t2,a0,a2
9d006cf4:	00882821 	addu	a1,a0,t0
9d006cf8:	00aa200b 	movn	a0,a1,t2
9d006cfc:	00862023 	subu	a0,a0,a2
9d006d00:	3126ffff 	andi	a2,t1,0xffff
9d006d04:	0083001b 	divu	zero,a0,v1
9d006d08:	006001f4 	teq	v1,zero,0x7
9d006d0c:	00004810 	mfhi	t1
9d006d10:	00002812 	mflo	a1
9d006d14:	70a72802 	mul	a1,a1,a3
9d006d18:	00094c00 	sll	t1,t1,0x10
9d006d1c:	01264825 	or	t1,t1,a2
9d006d20:	0125302b 	sltu	a2,t1,a1
9d006d24:	0083001b 	divu	zero,a0,v1
9d006d28:	006001f4 	teq	v1,zero,0x7
9d006d2c:	50c00009 	beqzl	a2,9d006d54 <__umoddi3+0x210>
9d006d30:	01254823 	subu	t1,t1,a1
9d006d34:	01284821 	addu	t1,t1,t0
9d006d38:	0128182b 	sltu	v1,t1,t0
9d006d3c:	54600005 	bnezl	v1,9d006d54 <__umoddi3+0x210>
9d006d40:	01254823 	subu	t1,t1,a1
9d006d44:	0125182b 	sltu	v1,t1,a1
9d006d48:	01284021 	addu	t0,t1,t0
9d006d4c:	0103480b 	movn	t1,t0,v1
9d006d50:	01254823 	subu	t1,t1,a1
9d006d54:	00491006 	srlv	v0,t1,v0
9d006d58:	03e00008 	jr	ra
9d006d5c:	00001821 	move	v1,zero
9d006d60:	00801021 	move	v0,a0
9d006d64:	03e00008 	jr	ra
9d006d68:	00a01821 	move	v1,a1
9d006d6c:	016a5823 	subu	t3,t3,t2
9d006d70:	01473804 	sllv	a3,a3,t2
9d006d74:	01661006 	srlv	v0,a2,t3
9d006d78:	00473825 	or	a3,v0,a3
9d006d7c:	01656806 	srlv	t5,a1,t3
9d006d80:	00074c02 	srl	t1,a3,0x10
9d006d84:	01a9001b 	divu	zero,t5,t1
9d006d88:	012001f4 	teq	t1,zero,0x7
9d006d8c:	00006010 	mfhi	t4
9d006d90:	00001812 	mflo	v1
9d006d94:	30eeffff 	andi	t6,a3,0xffff
9d006d98:	01452804 	sllv	a1,a1,t2
9d006d9c:	01641006 	srlv	v0,a0,t3
9d006da0:	00451025 	or	v0,v0,a1
9d006da4:	00022c02 	srl	a1,v0,0x10
9d006da8:	01463004 	sllv	a2,a2,t2
9d006dac:	00004012 	mflo	t0
9d006db0:	706e7802 	mul	t7,v1,t6
9d006db4:	000c6400 	sll	t4,t4,0x10
9d006db8:	01856025 	or	t4,t4,a1
9d006dbc:	018f282b 	sltu	a1,t4,t7
9d006dc0:	01a9001b 	divu	zero,t5,t1
9d006dc4:	012001f4 	teq	t1,zero,0x7
9d006dc8:	10a0000a 	beqz	a1,9d006df4 <__umoddi3+0x2b0>
9d006dcc:	01442004 	sllv	a0,a0,t2
9d006dd0:	01876021 	addu	t4,t4,a3
9d006dd4:	0187282b 	sltu	a1,t4,a3
9d006dd8:	14a00006 	bnez	a1,9d006df4 <__umoddi3+0x2b0>
9d006ddc:	2468ffff 	addiu	t0,v1,-1
9d006de0:	018f282b 	sltu	a1,t4,t7
9d006de4:	50a00004 	beqzl	a1,9d006df8 <__umoddi3+0x2b4>
9d006de8:	018f6023 	subu	t4,t4,t7
9d006dec:	2468fffe 	addiu	t0,v1,-2
9d006df0:	01876021 	addu	t4,t4,a3
9d006df4:	018f6023 	subu	t4,t4,t7
9d006df8:	3042ffff 	andi	v0,v0,0xffff
9d006dfc:	0189001b 	divu	zero,t4,t1
9d006e00:	012001f4 	teq	t1,zero,0x7
9d006e04:	00002810 	mfhi	a1
9d006e08:	00001812 	mflo	v1
9d006e0c:	00006812 	mflo	t5
9d006e10:	706e7002 	mul	t6,v1,t6
9d006e14:	00052c00 	sll	a1,a1,0x10
9d006e18:	00a21025 	or	v0,a1,v0
9d006e1c:	004e282b 	sltu	a1,v0,t6
9d006e20:	0189001b 	divu	zero,t4,t1
9d006e24:	012001f4 	teq	t1,zero,0x7
9d006e28:	50a00006 	beqzl	a1,9d006e44 <__umoddi3+0x300>
9d006e2c:	00084400 	sll	t0,t0,0x10
9d006e30:	00471021 	addu	v0,v0,a3
9d006e34:	0047282b 	sltu	a1,v0,a3
9d006e38:	10a0004c 	beqz	a1,9d006f6c <__umoddi3+0x428>
9d006e3c:	246dffff 	addiu	t5,v1,-1
9d006e40:	00084400 	sll	t0,t0,0x10
9d006e44:	01a84025 	or	t0,t5,t0
9d006e48:	004e1023 	subu	v0,v0,t6
9d006e4c:	01060019 	multu	t0,a2
9d006e50:	00004810 	mfhi	t1
9d006e54:	0049182b 	sltu	v1,v0,t1
9d006e58:	1460003e 	bnez	v1,9d006f54 <__umoddi3+0x410>
9d006e5c:	00004012 	mflo	t0
9d006e60:	1049004b 	beq	v0,t1,9d006f90 <__umoddi3+0x44c>
9d006e64:	00491823 	subu	v1,v0,t1
9d006e68:	00003012 	mflo	a2
9d006e6c:	00863023 	subu	a2,a0,a2
9d006e70:	0086202b 	sltu	a0,a0,a2
9d006e74:	00641823 	subu	v1,v1,a0
9d006e78:	01631004 	sllv	v0,v1,t3
9d006e7c:	01463006 	srlv	a2,a2,t2
9d006e80:	00461025 	or	v0,v0,a2
9d006e84:	01431806 	srlv	v1,v1,t2
9d006e88:	03e00008 	jr	ra
9d006e8c:	00000000 	nop
9d006e90:	24090020 	li	t1,32
9d006e94:	01224823 	subu	t1,t1,v0
9d006e98:	01255006 	srlv	t2,a1,t1
9d006e9c:	00081c02 	srl	v1,t0,0x10
9d006ea0:	0143001b 	divu	zero,t2,v1
9d006ea4:	006001f4 	teq	v1,zero,0x7
9d006ea8:	00003010 	mfhi	a2
9d006eac:	00005812 	mflo	t3
9d006eb0:	3107ffff 	andi	a3,t0,0xffff
9d006eb4:	00452804 	sllv	a1,a1,v0
9d006eb8:	01244806 	srlv	t1,a0,t1
9d006ebc:	01252825 	or	a1,t1,a1
9d006ec0:	00056402 	srl	t4,a1,0x10
9d006ec4:	00444804 	sllv	t1,a0,v0
9d006ec8:	71675802 	mul	t3,t3,a3
9d006ecc:	00063400 	sll	a2,a2,0x10
9d006ed0:	01863025 	or	a2,t4,a2
9d006ed4:	00cb202b 	sltu	a0,a2,t3
9d006ed8:	0143001b 	divu	zero,t2,v1
9d006edc:	006001f4 	teq	v1,zero,0x7
9d006ee0:	50800006 	beqzl	a0,9d006efc <__umoddi3+0x3b8>
9d006ee4:	00cb3023 	subu	a2,a2,t3
9d006ee8:	00c83021 	addu	a2,a2,t0
9d006eec:	00c8202b 	sltu	a0,a2,t0
9d006ef0:	10800024 	beqz	a0,9d006f84 <__umoddi3+0x440>
9d006ef4:	00cb502b 	sltu	t2,a2,t3
9d006ef8:	00cb3023 	subu	a2,a2,t3
9d006efc:	30aaffff 	andi	t2,a1,0xffff
9d006f00:	00c3001b 	divu	zero,a2,v1
9d006f04:	006001f4 	teq	v1,zero,0x7
9d006f08:	00002010 	mfhi	a0
9d006f0c:	00002812 	mflo	a1
9d006f10:	70a72802 	mul	a1,a1,a3
9d006f14:	00042400 	sll	a0,a0,0x10
9d006f18:	008a2025 	or	a0,a0,t2
9d006f1c:	0085502b 	sltu	t2,a0,a1
9d006f20:	00c3001b 	divu	zero,a2,v1
9d006f24:	006001f4 	teq	v1,zero,0x7
9d006f28:	5140ff60 	beqzl	t2,9d006cac <__umoddi3+0x168>
9d006f2c:	00852823 	subu	a1,a0,a1
9d006f30:	00882021 	addu	a0,a0,t0
9d006f34:	0088302b 	sltu	a2,a0,t0
9d006f38:	54c0ff5c 	bnezl	a2,9d006cac <__umoddi3+0x168>
9d006f3c:	00852823 	subu	a1,a0,a1
9d006f40:	0085502b 	sltu	t2,a0,a1
9d006f44:	00883021 	addu	a2,a0,t0
9d006f48:	00ca200b 	movn	a0,a2,t2
9d006f4c:	0b401b2b 	j	9d006cac <__umoddi3+0x168>
9d006f50:	00852823 	subu	a1,a0,a1
9d006f54:	01063023 	subu	a2,t0,a2
9d006f58:	01271823 	subu	v1,t1,a3
9d006f5c:	0106402b 	sltu	t0,t0,a2
9d006f60:	00681823 	subu	v1,v1,t0
9d006f64:	0b401b9b 	j	9d006e6c <__umoddi3+0x328>
9d006f68:	00431823 	subu	v1,v0,v1
9d006f6c:	004e282b 	sltu	a1,v0,t6
9d006f70:	50a0ffb4 	beqzl	a1,9d006e44 <__umoddi3+0x300>
9d006f74:	00084400 	sll	t0,t0,0x10
9d006f78:	246dfffe 	addiu	t5,v1,-2
9d006f7c:	0b401b90 	j	9d006e40 <__umoddi3+0x2fc>
9d006f80:	00471021 	addu	v0,v0,a3
9d006f84:	00c82021 	addu	a0,a2,t0
9d006f88:	0b401bbe 	j	9d006ef8 <__umoddi3+0x3b4>
9d006f8c:	008a300b 	movn	a2,a0,t2
9d006f90:	0088182b 	sltu	v1,a0,t0
9d006f94:	5460fff0 	bnezl	v1,9d006f58 <__umoddi3+0x414>
9d006f98:	01063023 	subu	a2,t0,a2
9d006f9c:	00003012 	mflo	a2
9d006fa0:	0b401b9b 	j	9d006e6c <__umoddi3+0x328>
9d006fa4:	00001821 	move	v1,zero

9d006fa8 <__udivdi3>:
9d006fa8:	00c04021 	move	t0,a2
9d006fac:	00801021 	move	v0,a0
9d006fb0:	14e0003f 	bnez	a3,9d0070b0 <__udivdi3+0x108>
9d006fb4:	00a04821 	move	t1,a1
9d006fb8:	00a6182b 	sltu	v1,a1,a2
9d006fbc:	10600047 	beqz	v1,9d0070dc <__udivdi3+0x134>
9d006fc0:	70c31820 	clz	v1,a2
9d006fc4:	50600008 	beqzl	v1,9d006fe8 <__udivdi3+0x40>
9d006fc8:	00081c02 	srl	v1,t0,0x10
9d006fcc:	00034823 	negu	t1,v1
9d006fd0:	00652804 	sllv	a1,a1,v1
9d006fd4:	01244806 	srlv	t1,a0,t1
9d006fd8:	00664004 	sllv	t0,a2,v1
9d006fdc:	01254825 	or	t1,t1,a1
9d006fe0:	00641004 	sllv	v0,a0,v1
9d006fe4:	00081c02 	srl	v1,t0,0x10
9d006fe8:	0123001b 	divu	zero,t1,v1
9d006fec:	006001f4 	teq	v1,zero,0x7
9d006ff0:	00006010 	mfhi	t4
9d006ff4:	00005812 	mflo	t3
9d006ff8:	310affff 	andi	t2,t0,0xffff
9d006ffc:	00022402 	srl	a0,v0,0x10
9d007000:	00003012 	mflo	a2
9d007004:	716a3802 	mul	a3,t3,t2
9d007008:	000c6400 	sll	t4,t4,0x10
9d00700c:	01842025 	or	a0,t4,a0
9d007010:	0087602b 	sltu	t4,a0,a3
9d007014:	0123001b 	divu	zero,t1,v1
9d007018:	006001f4 	teq	v1,zero,0x7
9d00701c:	1180000b 	beqz	t4,9d00704c <__udivdi3+0xa4>
9d007020:	00872823 	subu	a1,a0,a3
9d007024:	00882021 	addu	a0,a0,t0
9d007028:	0088282b 	sltu	a1,a0,t0
9d00702c:	14a00006 	bnez	a1,9d007048 <__udivdi3+0xa0>
9d007030:	2566ffff 	addiu	a2,t3,-1
9d007034:	0087282b 	sltu	a1,a0,a3
9d007038:	10a00004 	beqz	a1,9d00704c <__udivdi3+0xa4>
9d00703c:	00872823 	subu	a1,a0,a3
9d007040:	2566fffe 	addiu	a2,t3,-2
9d007044:	00882021 	addu	a0,a0,t0
9d007048:	00872823 	subu	a1,a0,a3
9d00704c:	3042ffff 	andi	v0,v0,0xffff
9d007050:	00a3001b 	divu	zero,a1,v1
9d007054:	006001f4 	teq	v1,zero,0x7
9d007058:	00004810 	mfhi	t1
9d00705c:	00003812 	mflo	a3
9d007060:	00002012 	mflo	a0
9d007064:	70ea5002 	mul	t2,a3,t2
9d007068:	00094c00 	sll	t1,t1,0x10
9d00706c:	01221025 	or	v0,t1,v0
9d007070:	004a482b 	sltu	t1,v0,t2
9d007074:	00a3001b 	divu	zero,a1,v1
9d007078:	006001f4 	teq	v1,zero,0x7
9d00707c:	51200009 	beqzl	t1,9d0070a4 <__udivdi3+0xfc>
9d007080:	00061400 	sll	v0,a2,0x10
9d007084:	00481021 	addu	v0,v0,t0
9d007088:	0048402b 	sltu	t0,v0,t0
9d00708c:	15000004 	bnez	t0,9d0070a0 <__udivdi3+0xf8>
9d007090:	24e4ffff 	addiu	a0,a3,-1
9d007094:	004a502b 	sltu	t2,v0,t2
9d007098:	24e7fffe 	addiu	a3,a3,-2
9d00709c:	00ea200b 	movn	a0,a3,t2
9d0070a0:	00061400 	sll	v0,a2,0x10
9d0070a4:	00821025 	or	v0,a0,v0
9d0070a8:	03e00008 	jr	ra
9d0070ac:	00001821 	move	v1,zero
9d0070b0:	00a7102b 	sltu	v0,a1,a3
9d0070b4:	14400044 	bnez	v0,9d0071c8 <__udivdi3+0x220>
9d0070b8:	70e84020 	clz	t0,a3
9d0070bc:	55000045 	bnezl	t0,9d0071d4 <__udivdi3+0x22c>
9d0070c0:	24020020 	li	v0,32
9d0070c4:	00e5282b 	sltu	a1,a3,a1
9d0070c8:	14a000c8 	bnez	a1,9d0073ec <__udivdi3+0x444>
9d0070cc:	0086302b 	sltu	a2,a0,a2
9d0070d0:	38c20001 	xori	v0,a2,0x1
9d0070d4:	03e00008 	jr	ra
9d0070d8:	00001821 	move	v1,zero
9d0070dc:	14c00006 	bnez	a2,9d0070f8 <__udivdi3+0x150>
9d0070e0:	71031820 	clz	v1,t0
9d0070e4:	24030001 	li	v1,1
9d0070e8:	0066001b 	divu	zero,v1,a2
9d0070ec:	00c001f4 	teq	a2,zero,0x7
9d0070f0:	00004012 	mflo	t0
9d0070f4:	71031820 	clz	v1,t0
9d0070f8:	5460007b 	bnezl	v1,9d0072e8 <__udivdi3+0x340>
9d0070fc:	00684004 	sllv	t0,t0,v1
9d007100:	00a82023 	subu	a0,a1,t0
9d007104:	00083c02 	srl	a3,t0,0x10
9d007108:	310bffff 	andi	t3,t0,0xffff
9d00710c:	24030001 	li	v1,1
9d007110:	00023402 	srl	a2,v0,0x10
9d007114:	0087001b 	divu	zero,a0,a3
9d007118:	00e001f4 	teq	a3,zero,0x7
9d00711c:	00006810 	mfhi	t5
9d007120:	00006012 	mflo	t4
9d007124:	00004812 	mflo	t1
9d007128:	718b5002 	mul	t2,t4,t3
9d00712c:	000d6c00 	sll	t5,t5,0x10
9d007130:	01a63025 	or	a2,t5,a2
9d007134:	00ca682b 	sltu	t5,a2,t2
9d007138:	0087001b 	divu	zero,a0,a3
9d00713c:	00e001f4 	teq	a3,zero,0x7
9d007140:	11a00009 	beqz	t5,9d007168 <__udivdi3+0x1c0>
9d007144:	00ca2823 	subu	a1,a2,t2
9d007148:	00c83021 	addu	a2,a2,t0
9d00714c:	00c8202b 	sltu	a0,a2,t0
9d007150:	14800004 	bnez	a0,9d007164 <__udivdi3+0x1bc>
9d007154:	2589ffff 	addiu	t1,t4,-1
9d007158:	00ca202b 	sltu	a0,a2,t2
9d00715c:	548000a6 	bnezl	a0,9d0073f8 <__udivdi3+0x450>
9d007160:	2589fffe 	addiu	t1,t4,-2
9d007164:	00ca2823 	subu	a1,a2,t2
9d007168:	3042ffff 	andi	v0,v0,0xffff
9d00716c:	00a7001b 	divu	zero,a1,a3
9d007170:	00e001f4 	teq	a3,zero,0x7
9d007174:	00005010 	mfhi	t2
9d007178:	00003012 	mflo	a2
9d00717c:	00002012 	mflo	a0
9d007180:	70cb5802 	mul	t3,a2,t3
9d007184:	000a5400 	sll	t2,t2,0x10
9d007188:	01421025 	or	v0,t2,v0
9d00718c:	004b502b 	sltu	t2,v0,t3
9d007190:	00a7001b 	divu	zero,a1,a3
9d007194:	00e001f4 	teq	a3,zero,0x7
9d007198:	51400009 	beqzl	t2,9d0071c0 <__udivdi3+0x218>
9d00719c:	00091400 	sll	v0,t1,0x10
9d0071a0:	00481021 	addu	v0,v0,t0
9d0071a4:	0048402b 	sltu	t0,v0,t0
9d0071a8:	15000004 	bnez	t0,9d0071bc <__udivdi3+0x214>
9d0071ac:	24c4ffff 	addiu	a0,a2,-1
9d0071b0:	004b582b 	sltu	t3,v0,t3
9d0071b4:	24c6fffe 	addiu	a2,a2,-2
9d0071b8:	00cb200b 	movn	a0,a2,t3
9d0071bc:	00091400 	sll	v0,t1,0x10
9d0071c0:	03e00008 	jr	ra
9d0071c4:	00821025 	or	v0,a0,v0
9d0071c8:	00001821 	move	v1,zero
9d0071cc:	03e00008 	jr	ra
9d0071d0:	00001021 	move	v0,zero
9d0071d4:	00481023 	subu	v0,v0,t0
9d0071d8:	01073804 	sllv	a3,a3,t0
9d0071dc:	00461806 	srlv	v1,a2,v0
9d0071e0:	00673825 	or	a3,v1,a3
9d0071e4:	00455006 	srlv	t2,a1,v0
9d0071e8:	00071c02 	srl	v1,a3,0x10
9d0071ec:	0143001b 	divu	zero,t2,v1
9d0071f0:	006001f4 	teq	v1,zero,0x7
9d0071f4:	00004810 	mfhi	t1
9d0071f8:	00006812 	mflo	t5
9d0071fc:	30ebffff 	andi	t3,a3,0xffff
9d007200:	01052804 	sllv	a1,a1,t0
9d007204:	00441006 	srlv	v0,a0,v0
9d007208:	00452825 	or	a1,v0,a1
9d00720c:	00057402 	srl	t6,a1,0x10
9d007210:	00001012 	mflo	v0
9d007214:	71ab6002 	mul	t4,t5,t3
9d007218:	00094c00 	sll	t1,t1,0x10
9d00721c:	012e4825 	or	t1,t1,t6
9d007220:	012c702b 	sltu	t6,t1,t4
9d007224:	0143001b 	divu	zero,t2,v1
9d007228:	006001f4 	teq	v1,zero,0x7
9d00722c:	11c0000a 	beqz	t6,9d007258 <__udivdi3+0x2b0>
9d007230:	01063004 	sllv	a2,a2,t0
9d007234:	01274821 	addu	t1,t1,a3
9d007238:	0127502b 	sltu	t2,t1,a3
9d00723c:	15400006 	bnez	t2,9d007258 <__udivdi3+0x2b0>
9d007240:	25a2ffff 	addiu	v0,t5,-1
9d007244:	012c502b 	sltu	t2,t1,t4
9d007248:	51400004 	beqzl	t2,9d00725c <__udivdi3+0x2b4>
9d00724c:	012c4823 	subu	t1,t1,t4
9d007250:	25a2fffe 	addiu	v0,t5,-2
9d007254:	01274821 	addu	t1,t1,a3
9d007258:	012c4823 	subu	t1,t1,t4
9d00725c:	30a5ffff 	andi	a1,a1,0xffff
9d007260:	0123001b 	divu	zero,t1,v1
9d007264:	006001f4 	teq	v1,zero,0x7
9d007268:	00006810 	mfhi	t5
9d00726c:	00006012 	mflo	t4
9d007270:	00005012 	mflo	t2
9d007274:	718b5802 	mul	t3,t4,t3
9d007278:	000d6c00 	sll	t5,t5,0x10
9d00727c:	01a52825 	or	a1,t5,a1
9d007280:	00ab682b 	sltu	t5,a1,t3
9d007284:	0123001b 	divu	zero,t1,v1
9d007288:	006001f4 	teq	v1,zero,0x7
9d00728c:	51a0000b 	beqzl	t5,9d0072bc <__udivdi3+0x314>
9d007290:	00021400 	sll	v0,v0,0x10
9d007294:	00a72821 	addu	a1,a1,a3
9d007298:	00a7182b 	sltu	v1,a1,a3
9d00729c:	14600006 	bnez	v1,9d0072b8 <__udivdi3+0x310>
9d0072a0:	258affff 	addiu	t2,t4,-1
9d0072a4:	00ab182b 	sltu	v1,a1,t3
9d0072a8:	50600004 	beqzl	v1,9d0072bc <__udivdi3+0x314>
9d0072ac:	00021400 	sll	v0,v0,0x10
9d0072b0:	258afffe 	addiu	t2,t4,-2
9d0072b4:	00a72821 	addu	a1,a1,a3
9d0072b8:	00021400 	sll	v0,v0,0x10
9d0072bc:	01421025 	or	v0,t2,v0
9d0072c0:	00ab2823 	subu	a1,a1,t3
9d0072c4:	00460019 	multu	v0,a2
9d0072c8:	00003810 	mfhi	a3
9d0072cc:	00a7182b 	sltu	v1,a1,a3
9d0072d0:	14600044 	bnez	v1,9d0073e4 <__udivdi3+0x43c>
9d0072d4:	00003012 	mflo	a2
9d0072d8:	10a7003f 	beq	a1,a3,9d0073d8 <__udivdi3+0x430>
9d0072dc:	01042004 	sllv	a0,a0,t0
9d0072e0:	03e00008 	jr	ra
9d0072e4:	00001821 	move	v1,zero
9d0072e8:	24020020 	li	v0,32
9d0072ec:	00431023 	subu	v0,v0,v1
9d0072f0:	00454806 	srlv	t1,a1,v0
9d0072f4:	00083c02 	srl	a3,t0,0x10
9d0072f8:	0127001b 	divu	zero,t1,a3
9d0072fc:	00e001f4 	teq	a3,zero,0x7
9d007300:	00003010 	mfhi	a2
9d007304:	00006012 	mflo	t4
9d007308:	310bffff 	andi	t3,t0,0xffff
9d00730c:	00652804 	sllv	a1,a1,v1
9d007310:	00441006 	srlv	v0,a0,v0
9d007314:	00452825 	or	a1,v0,a1
9d007318:	00056c02 	srl	t5,a1,0x10
9d00731c:	00641004 	sllv	v0,a0,v1
9d007320:	00001812 	mflo	v1
9d007324:	718b5002 	mul	t2,t4,t3
9d007328:	00063400 	sll	a2,a2,0x10
9d00732c:	01a63025 	or	a2,t5,a2
9d007330:	00ca202b 	sltu	a0,a2,t2
9d007334:	0127001b 	divu	zero,t1,a3
9d007338:	00e001f4 	teq	a3,zero,0x7
9d00733c:	5080000b 	beqzl	a0,9d00736c <__udivdi3+0x3c4>
9d007340:	00ca3023 	subu	a2,a2,t2
9d007344:	00c83021 	addu	a2,a2,t0
9d007348:	00c8202b 	sltu	a0,a2,t0
9d00734c:	14800006 	bnez	a0,9d007368 <__udivdi3+0x3c0>
9d007350:	2583ffff 	addiu	v1,t4,-1
9d007354:	00ca202b 	sltu	a0,a2,t2
9d007358:	50800004 	beqzl	a0,9d00736c <__udivdi3+0x3c4>
9d00735c:	00ca3023 	subu	a2,a2,t2
9d007360:	2583fffe 	addiu	v1,t4,-2
9d007364:	00c83021 	addu	a2,a2,t0
9d007368:	00ca3023 	subu	a2,a2,t2
9d00736c:	30acffff 	andi	t4,a1,0xffff
9d007370:	00c7001b 	divu	zero,a2,a3
9d007374:	00e001f4 	teq	a3,zero,0x7
9d007378:	00002010 	mfhi	a0
9d00737c:	00005012 	mflo	t2
9d007380:	00004812 	mflo	t1
9d007384:	714b2802 	mul	a1,t2,t3
9d007388:	00042400 	sll	a0,a0,0x10
9d00738c:	008c2025 	or	a0,a0,t4
9d007390:	0085602b 	sltu	t4,a0,a1
9d007394:	00c7001b 	divu	zero,a2,a3
9d007398:	00e001f4 	teq	a3,zero,0x7
9d00739c:	5180000b 	beqzl	t4,9d0073cc <__udivdi3+0x424>
9d0073a0:	00031c00 	sll	v1,v1,0x10
9d0073a4:	00882021 	addu	a0,a0,t0
9d0073a8:	0088302b 	sltu	a2,a0,t0
9d0073ac:	14c00006 	bnez	a2,9d0073c8 <__udivdi3+0x420>
9d0073b0:	2549ffff 	addiu	t1,t2,-1
9d0073b4:	0085302b 	sltu	a2,a0,a1
9d0073b8:	50c00004 	beqzl	a2,9d0073cc <__udivdi3+0x424>
9d0073bc:	00031c00 	sll	v1,v1,0x10
9d0073c0:	2549fffe 	addiu	t1,t2,-2
9d0073c4:	00882021 	addu	a0,a0,t0
9d0073c8:	00031c00 	sll	v1,v1,0x10
9d0073cc:	00852023 	subu	a0,a0,a1
9d0073d0:	0b401c44 	j	9d007110 <__udivdi3+0x168>
9d0073d4:	01231825 	or	v1,t1,v1
9d0073d8:	0086302b 	sltu	a2,a0,a2
9d0073dc:	10c0ffc0 	beqz	a2,9d0072e0 <__udivdi3+0x338>
9d0073e0:	00000000 	nop
9d0073e4:	0b401cb8 	j	9d0072e0 <__udivdi3+0x338>
9d0073e8:	2442ffff 	addiu	v0,v0,-1
9d0073ec:	00001821 	move	v1,zero
9d0073f0:	03e00008 	jr	ra
9d0073f4:	24020001 	li	v0,1
9d0073f8:	0b401c59 	j	9d007164 <__udivdi3+0x1bc>
9d0073fc:	00c83021 	addu	a2,a2,t0

Disassembly of section .text.dp32subadd:

9d007400 <__subdf3>:
9d007400:	3c018000 00e13826                       ...<&8..

9d007408 <__adddf3>:
9d007408:	00055840 000b5d42 000552c0 00047d42     @X..B]...R..B}..
9d007418:	014f5025 00044ac0 3c088000 01485025     %PO..J.....<%PH.
9d007428:	00077040 000e7542 00076ac0 00067d42     @p..Bu...j..B}..
9d007438:	01af6825 000662c0 01a86825 256fffff     %h...b..%h....o%
9d007448:	2de107fe 1020008d 00000000              ...-.. .....

9d007454 <Blab1>:
9d007454:	25cfffff 	addiu	t7,t6,-1
9d007458:	2de107fe 	sltiu	at,t7,2046
9d00745c:	102000bb 	beqz	at,9d00774c <BspecB>
9d007460:	00000000 	nop

9d007464 <Blab2>:
9d007464:	3c018000 	lui	at,0x8000
9d007468:	00a12824 	and	a1,a1,at
9d00746c:	016e4023 	subu	t0,t3,t6
9d007470:	1100002c 	beqz	t0,9d007524 <Badd3>
9d007474:	00000000 	nop
9d007478:	19000015 	blez	t0,9d0074d0 <i1>
9d00747c:	00000000 	nop

9d007480 <L1>:
9d007480:	2d010020 	sltiu	at,t0,32
9d007484:	14200007 	bnez	at,9d0074a4 <L2>
9d007488:	00000000 	nop
9d00748c:	2108ffe0 	addi	t0,t0,-32
9d007490:	000c302b 	sltu	a2,zero,t4
9d007494:	100d0023 	beq	zero,t5,9d007524 <Badd3>
9d007498:	01a66025 	or	t4,t5,a2
9d00749c:	1000fff8 	b	9d007480 <L1>
9d0074a0:	340d0000 	li	t5,0x0

9d0074a4 <L2>:
9d0074a4:	1100001f 	beqz	t0,9d007524 <Badd3>
9d0074a8:	00000000 	nop
9d0074ac:	00082022 	neg	a0,t0
9d0074b0:	008c3004 	sllv	a2,t4,a0
9d0074b4:	008d2004 	sllv	a0,t5,a0
9d0074b8:	010c6006 	srlv	t4,t4,t0
9d0074bc:	010d6806 	srlv	t5,t5,t0
9d0074c0:	10c00018 	beqz	a2,9d007524 <Badd3>
9d0074c4:	008c6025 	or	t4,a0,t4
9d0074c8:	10000016 	b	9d007524 <Badd3>
9d0074cc:	358c0002 	ori	t4,t4,0x2

9d0074d0 <i1>:
9d0074d0:	000e5825 	or	t3,zero,t6
9d0074d4:	00084023 	negu	t0,t0

9d0074d8 <L4>:
9d0074d8:	2d010020 	sltiu	at,t0,32
9d0074dc:	14200007 	bnez	at,9d0074fc <L5>
9d0074e0:	00000000 	nop
9d0074e4:	2108ffe0 	addi	t0,t0,-32
9d0074e8:	0009302b 	sltu	a2,zero,t1
9d0074ec:	100a000d 	beq	zero,t2,9d007524 <Badd3>
9d0074f0:	01464825 	or	t1,t2,a2
9d0074f4:	1000fff8 	b	9d0074d8 <L4>
9d0074f8:	340a0000 	li	t2,0x0

9d0074fc <L5>:
9d0074fc:	11000009 	beqz	t0,9d007524 <Badd3>
9d007500:	00000000 	nop
9d007504:	00082022 	neg	a0,t0
9d007508:	00893004 	sllv	a2,t1,a0
9d00750c:	008a2004 	sllv	a0,t2,a0
9d007510:	01094806 	srlv	t1,t1,t0
9d007514:	010a5006 	srlv	t2,t2,t0
9d007518:	10c00002 	beqz	a2,9d007524 <Badd3>
9d00751c:	00894825 	or	t1,a0,t1
9d007520:	35290002 	ori	t1,t1,0x2

9d007524 <Badd3>:
9d007524:	00a77826 	xor	t7,a1,a3
9d007528:	05e0001c 	bltz	t7,9d00759c <Bsub1>
9d00752c:	00000000 	nop
9d007530:	012c4821 	addu	t1,t1,t4
9d007534:	012c782b 	sltu	t7,t1,t4
9d007538:	014d5021 	addu	t2,t2,t5
9d00753c:	014f5021 	addu	t2,t2,t7
9d007540:	114d0002 	beq	t2,t5,9d00754c <L7>
9d007544:	00000000 	nop
9d007548:	014d782b 	sltu	t7,t2,t5

9d00754c <L7>:
9d00754c:	11e00037 	beqz	t7,9d00762c <Bres>
9d007550:	00000000 	nop
9d007554:	312f0001 	andi	t7,t1,0x1
9d007558:	11e00002 	beqz	t7,9d007564 <i3>
9d00755c:	00000000 	nop
9d007560:	35290002 	ori	t1,t1,0x2

9d007564 <i3>:
9d007564:	00094842 	srl	t1,t1,0x1
9d007568:	000a7fc0 	sll	t7,t2,0x1f
9d00756c:	012f4825 	or	t1,t1,t7
9d007570:	000a5042 	srl	t2,t2,0x1
9d007574:	3c018000 	lui	at,0x8000
9d007578:	01415025 	or	t2,t2,at
9d00757c:	256b0001 	addiu	t3,t3,1
9d007580:	240107ff 	li	at,2047
9d007584:	15610029 	bne	t3,at,9d00762c <Bres>
9d007588:	00000000 	nop
9d00758c:	3c017ff0 	lui	at,0x7ff0
9d007590:	00a12825 	or	a1,a1,at
9d007594:	10000037 	b	9d007674 <BretA>
9d007598:	24040000 	li	a0,0

9d00759c <Bsub1>:
9d00759c:	012c782b 	sltu	t7,t1,t4
9d0075a0:	012c4823 	subu	t1,t1,t4
9d0075a4:	014f102b 	sltu	v0,t2,t7
9d0075a8:	014f5023 	subu	t2,t2,t7
9d0075ac:	014d782b 	sltu	t7,t2,t5
9d0075b0:	01e27825 	or	t7,t7,v0
9d0075b4:	11e00007 	beqz	t7,9d0075d4 <i5>
9d0075b8:	014d5023 	subu	t2,t2,t5
9d0075bc:	3c018000 	lui	at,0x8000
9d0075c0:	00a12826 	xor	a1,a1,at
9d0075c4:	0009782b 	sltu	t7,zero,t1
9d0075c8:	00094823 	negu	t1,t1
9d0075cc:	000a5023 	negu	t2,t2
9d0075d0:	014f5023 	subu	t2,t2,t7

9d0075d4 <i5>:
9d0075d4:	15400008 	bnez	t2,9d0075f8 <L8>
9d0075d8:	00000000 	nop
9d0075dc:	15200003 	bnez	t1,9d0075ec <L9>
9d0075e0:	00000000 	nop
9d0075e4:	1000000d 	b	9d00761c <L10>
9d0075e8:	240b0000 	li	t3,0

9d0075ec <L9>:
9d0075ec:	01205025 	move	t2,t1
9d0075f0:	24090000 	li	t1,0
9d0075f4:	256bffe0 	addiu	t3,t3,-32

9d0075f8 <L8>:
9d0075f8:	71484020 	clz	t0,t2
9d0075fc:	11000007 	beqz	t0,9d00761c <L10>
9d007600:	00000000 	nop
9d007604:	01685823 	subu	t3,t3,t0
9d007608:	00082022 	neg	a0,t0
9d00760c:	00892006 	srlv	a0,t1,a0
9d007610:	01094804 	sllv	t1,t1,t0
9d007614:	010a5004 	sllv	t2,t2,t0
9d007618:	01445025 	or	t2,t2,a0

9d00761c <L10>:
9d00761c:	01497825 	or	t7,t2,t1
9d007620:	15e00002 	bnez	t7,9d00762c <Bres>
9d007624:	00000000 	nop
9d007628:	24050000 	li	a1,0

9d00762c <Bres>:
9d00762c:	19600068 	blez	t3,9d0077d0 <Bund>
9d007630:	00000000 	nop

9d007634 <Blab8>:
9d007634:	25290400 	addiu	t1,t1,1024
9d007638:	2d2f0400 	sltiu	t7,t1,1024
9d00763c:	014f5021 	addu	t2,t2,t7
9d007640:	014f782b 	sltu	t7,t2,t7
9d007644:	016f5821 	addu	t3,t3,t7
9d007648:	00097ac2 	srl	t7,t1,0xb
9d00764c:	31ef0001 	andi	t7,t7,0x1
9d007650:	012f4823 	subu	t1,t1,t7
9d007654:	000922c2 	srl	a0,t1,0xb
9d007658:	000a7d40 	sll	t7,t2,0x15
9d00765c:	008f2025 	or	a0,a0,t7
9d007660:	000a7840 	sll	t7,t2,0x1
9d007664:	000f7b02 	srl	t7,t7,0xc
9d007668:	00af2825 	or	a1,a1,t7
9d00766c:	000b7d00 	sll	t7,t3,0x14
9d007670:	00af2825 	or	a1,a1,t7

9d007674 <BretA>:
9d007674:	00041025 	or	v0,zero,a0
9d007678:	00051825 	or	v1,zero,a1

9d00767c <B999>:
9d00767c:	03e00008 	jr	ra
9d007680:	00000000 	nop

9d007684 <BspecA>:
9d007684:	0120782a 	slt	t7,t1,zero
9d007688:	01294821 	addu	t1,t1,t1
9d00768c:	014a5021 	addu	t2,t2,t2
9d007690:	15600023 	bnez	t3,9d007720 <i7>
9d007694:	014f5021 	addu	t2,t2,t7
9d007698:	01497825 	or	t7,t2,t1
9d00769c:	11e00014 	beqz	t7,9d0076f0 <i8>
9d0076a0:	00000000 	nop
9d0076a4:	15400008 	bnez	t2,9d0076c8 <L11>
9d0076a8:	00000000 	nop
9d0076ac:	15200003 	bnez	t1,9d0076bc <L12>
9d0076b0:	00000000 	nop
9d0076b4:	1000ff67 	b	9d007454 <Blab1>
9d0076b8:	240b0000 	li	t3,0

9d0076bc <L12>:
9d0076bc:	01205025 	move	t2,t1
9d0076c0:	24090000 	li	t1,0
9d0076c4:	256bffe0 	addiu	t3,t3,-32

9d0076c8 <L11>:
9d0076c8:	71484020 	clz	t0,t2
9d0076cc:	1100ff61 	beqz	t0,9d007454 <Blab1>
9d0076d0:	00000000 	nop
9d0076d4:	01685823 	subu	t3,t3,t0
9d0076d8:	00082022 	neg	a0,t0
9d0076dc:	00892006 	srlv	a0,t1,a0
9d0076e0:	01094804 	sllv	t1,t1,t0
9d0076e4:	010a5004 	sllv	t2,t2,t0
9d0076e8:	1000ff5a 	b	9d007454 <Blab1>
9d0076ec:	01445025 	or	t2,t2,a0

9d0076f0 <i8>:
9d0076f0:	240107ff 	li	at,2047
9d0076f4:	11c10015 	beq	t6,at,9d00774c <BspecB>
9d0076f8:	00000000 	nop
9d0076fc:	00e74021 	addu	t0,a3,a3
9d007700:	01067825 	or	t7,t0,a2
9d007704:	15e00003 	bnez	t7,9d007714 <BretB>
9d007708:	00000000 	nop
9d00770c:	04e0ffd9 	bltz	a3,9d007674 <BretA>
9d007710:	00000000 	nop

9d007714 <BretB>:
9d007714:	00061025 	or	v0,zero,a2
9d007718:	1000ffd8 	b	9d00767c <B999>
9d00771c:	00071825 	or	v1,zero,a3

9d007720 <i7>:
9d007720:	01497825 	or	t7,t2,t1
9d007724:	15e00027 	bnez	t7,9d0077c4 <Bnan>
9d007728:	00000000 	nop
9d00772c:	240107ff 	li	at,2047
9d007730:	15c1ffd0 	bne	t6,at,9d007674 <BretA>
9d007734:	00000000 	nop
9d007738:	00a77826 	xor	t7,a1,a3
9d00773c:	05e00021 	bltz	t7,9d0077c4 <Bnan>
9d007740:	00000000 	nop
9d007744:	1000fff3 	b	9d007714 <BretB>
9d007748:	00000000 	nop

9d00774c <BspecB>:
9d00774c:	0180782a 	slt	t7,t4,zero
9d007750:	018c6021 	addu	t4,t4,t4
9d007754:	01ad6821 	addu	t5,t5,t5
9d007758:	15c00017 	bnez	t6,9d0077b8 <i11>
9d00775c:	01af6821 	addu	t5,t5,t7
9d007760:	01ac7825 	or	t7,t5,t4
9d007764:	11e0ffc3 	beqz	t7,9d007674 <BretA>
9d007768:	00000000 	nop
9d00776c:	15a00008 	bnez	t5,9d007790 <L14>
9d007770:	00000000 	nop
9d007774:	15800003 	bnez	t4,9d007784 <L15>
9d007778:	00000000 	nop
9d00777c:	1000ff39 	b	9d007464 <Blab2>
9d007780:	240e0000 	li	t6,0

9d007784 <L15>:
9d007784:	01806825 	move	t5,t4
9d007788:	240c0000 	li	t4,0
9d00778c:	25ceffe0 	addiu	t6,t6,-32

9d007790 <L14>:
9d007790:	71a84020 	clz	t0,t5
9d007794:	1100ff33 	beqz	t0,9d007464 <Blab2>
9d007798:	00000000 	nop
9d00779c:	01c87023 	subu	t6,t6,t0
9d0077a0:	00082022 	neg	a0,t0
9d0077a4:	008c2006 	srlv	a0,t4,a0
9d0077a8:	010c6004 	sllv	t4,t4,t0
9d0077ac:	010d6804 	sllv	t5,t5,t0
9d0077b0:	1000ff2c 	b	9d007464 <Blab2>
9d0077b4:	01a46825 	or	t5,t5,a0

9d0077b8 <i11>:
9d0077b8:	01ac7825 	or	t7,t5,t4
9d0077bc:	11e0ffd5 	beqz	t7,9d007714 <BretB>
9d0077c0:	00000000 	nop

9d0077c4 <Bnan>:
9d0077c4:	3c05fff8 	lui	a1,0xfff8
9d0077c8:	1000ffaa 	b	9d007674 <BretA>
9d0077cc:	24040000 	li	a0,0

9d0077d0 <Bund>:
9d0077d0:	24080001 	li	t0,1
9d0077d4:	010b4023 	subu	t0,t0,t3

9d0077d8 <L17>:
9d0077d8:	2d010020 	sltiu	at,t0,32
9d0077dc:	14200007 	bnez	at,9d0077fc <L18>
9d0077e0:	00000000 	nop
9d0077e4:	2108ffe0 	addi	t0,t0,-32
9d0077e8:	0009302b 	sltu	a2,zero,t1
9d0077ec:	100a000d 	beq	zero,t2,9d007824 <L19>
9d0077f0:	01464825 	or	t1,t2,a2
9d0077f4:	1000fff8 	b	9d0077d8 <L17>
9d0077f8:	340a0000 	li	t2,0x0

9d0077fc <L18>:
9d0077fc:	11000009 	beqz	t0,9d007824 <L19>
9d007800:	00000000 	nop
9d007804:	00082022 	neg	a0,t0
9d007808:	00893004 	sllv	a2,t1,a0
9d00780c:	008a2004 	sllv	a0,t2,a0
9d007810:	01094806 	srlv	t1,t1,t0
9d007814:	010a5006 	srlv	t2,t2,t0
9d007818:	10c00002 	beqz	a2,9d007824 <L19>
9d00781c:	00894825 	or	t1,a0,t1
9d007820:	35290002 	ori	t1,t1,0x2

9d007824 <L19>:
9d007824:	1000ff83 	b	9d007634 <Blab8>
9d007828:	240b0000 	li	t3,0
9d00782c:	00000000 	nop

Disassembly of section .text.__strtod:

9d007830 <__strtod>:
9d007830:	27bdffc8 	addiu	sp,sp,-56
9d007834:	afbf0034 	sw	ra,52(sp)
9d007838:	afbe0030 	sw	s8,48(sp)
9d00783c:	afb7002c 	sw	s7,44(sp)
9d007840:	afb60028 	sw	s6,40(sp)
9d007844:	afb50024 	sw	s5,36(sp)
9d007848:	afb40020 	sw	s4,32(sp)
9d00784c:	afb3001c 	sw	s3,28(sp)
9d007850:	afb20018 	sw	s2,24(sp)
9d007854:	afb10014 	sw	s1,20(sp)
9d007858:	afb00010 	sw	s0,16(sp)
9d00785c:	0080b821 	move	s7,a0
9d007860:	80820000 	lb	v0,0(a0)
9d007864:	3c1e9d01 	lui	s8,0x9d01
9d007868:	27dea57d 	addiu	s8,s8,-23171
9d00786c:	03c21821 	addu	v1,s8,v0
9d007870:	80630000 	lb	v1,0(v1)
9d007874:	00a0a821 	move	s5,a1
9d007878:	30630088 	andi	v1,v1,0x88
9d00787c:	10600008 	beqz	v1,9d0078a0 <__strtod+0x70>
9d007880:	0080a021 	move	s4,a0
9d007884:	26940001 	addiu	s4,s4,1
9d007888:	82820000 	lb	v0,0(s4)
9d00788c:	03c21821 	addu	v1,s8,v0
9d007890:	80630000 	lb	v1,0(v1)
9d007894:	30630088 	andi	v1,v1,0x88
9d007898:	5460fffb 	bnezl	v1,9d007888 <__strtod+0x58>
9d00789c:	26940001 	addiu	s4,s4,1
9d0078a0:	2403002d 	li	v1,45
9d0078a4:	10430098 	beq	v0,v1,9d007b08 <__strtod+0x2d8>
9d0078a8:	3842002b 	xori	v0,v0,0x2b
9d0078ac:	2c420001 	sltiu	v0,v0,1
9d0078b0:	00009821 	move	s3,zero
9d0078b4:	0282a021 	addu	s4,s4,v0
9d0078b8:	82860000 	lb	a2,0(s4)
9d0078bc:	03c61021 	addu	v0,s8,a2
9d0078c0:	90420000 	lbu	v0,0(v0)
9d0078c4:	30420004 	andi	v0,v0,0x4
9d0078c8:	00008821 	move	s1,zero
9d0078cc:	104000bc 	beqz	v0,9d007bc0 <__strtod+0x390>
9d0078d0:	00008021 	move	s0,zero
9d0078d4:	00009021 	move	s2,zero
9d0078d8:	24d6ffd0 	addiu	s6,a2,-48
9d0078dc:	02002821 	move	a1,s0
9d0078e0:	02202021 	move	a0,s1
9d0078e4:	00003021 	move	a2,zero
9d0078e8:	0f4020b8 	jal	9d0082e0 <.LFE23>
9d0078ec:	3c074024 	lui	a3,0x4024
9d0078f0:	00408021 	move	s0,v0
9d0078f4:	00608821 	move	s1,v1
9d0078f8:	0f402dfd 	jal	9d00b7f4 <__floatsidf>
9d0078fc:	02c02021 	move	a0,s6
9d007900:	02002021 	move	a0,s0
9d007904:	02202821 	move	a1,s1
9d007908:	00403021 	move	a2,v0
9d00790c:	00603821 	move	a3,v1
9d007910:	0f401d02 	jal	9d007408 <__adddf3>
9d007914:	26940001 	addiu	s4,s4,1
9d007918:	00408821 	move	s1,v0
9d00791c:	00608021 	move	s0,v1
9d007920:	82860000 	lb	a2,0(s4)
9d007924:	03c61021 	addu	v0,s8,a2
9d007928:	90420000 	lbu	v0,0(v0)
9d00792c:	30420004 	andi	v0,v0,0x4
9d007930:	1440ffe9 	bnez	v0,9d0078d8 <__strtod+0xa8>
9d007934:	02569025 	or	s2,s2,s6
9d007938:	24030001 	li	v1,1
9d00793c:	2402002e 	li	v0,46
9d007940:	50c20048 	beql	a2,v0,9d007a64 <__strtod+0x234>
9d007944:	82820001 	lb	v0,1(s4)
9d007948:	54600072 	bnezl	v1,9d007b14 <__strtod+0x2e4>
9d00794c:	82820000 	lb	v0,0(s4)
9d007950:	12a0002a 	beqz	s5,9d0079fc <__strtod+0x1cc>
9d007954:	00000000 	nop
9d007958:	02e0a021 	move	s4,s7
9d00795c:	0000b821 	move	s7,zero
9d007960:	aeb40000 	sw	s4,0(s5)
9d007964:	12e00025 	beqz	s7,9d0079fc <__strtod+0x1cc>
9d007968:	00004021 	move	t0,zero
9d00796c:	001717c3 	sra	v0,s7,0x1f
9d007970:	0057b026 	xor	s6,v0,s7
9d007974:	02c2b023 	subu	s6,s6,v0
9d007978:	3c159d01 	lui	s5,0x9d01
9d00797c:	26b5bea4 	addiu	s5,s5,-16732
9d007980:	3c093ff0 	lui	t1,0x3ff0
9d007984:	0b401e65 	j	9d007994 <__strtod+0x164>
9d007988:	24140009 	li	s4,9
9d00798c:	1280000e 	beqz	s4,9d0079c8 <__strtod+0x198>
9d007990:	26b5fff8 	addiu	s5,s5,-8
9d007994:	2694ffff 	addiu	s4,s4,-1
9d007998:	02961007 	srav	v0,s6,s4
9d00799c:	30420001 	andi	v0,v0,0x1
9d0079a0:	1040fffa 	beqz	v0,9d00798c <__strtod+0x15c>
9d0079a4:	01002021 	move	a0,t0
9d0079a8:	8ea60000 	lw	a2,0(s5)
9d0079ac:	8ea70004 	lw	a3,4(s5)
9d0079b0:	0f4020b8 	jal	9d0082e0 <.LFE23>
9d0079b4:	01202821 	move	a1,t1
9d0079b8:	00404021 	move	t0,v0
9d0079bc:	00604821 	move	t1,v1
9d0079c0:	1680fff4 	bnez	s4,9d007994 <__strtod+0x164>
9d0079c4:	26b5fff8 	addiu	s5,s5,-8
9d0079c8:	02202021 	move	a0,s1
9d0079cc:	02002821 	move	a1,s0
9d0079d0:	01003021 	move	a2,t0
9d0079d4:	06e00075 	bltz	s7,9d007bac <__strtod+0x37c>
9d0079d8:	01203821 	move	a3,t1
9d0079dc:	0f4020b8 	jal	9d0082e0 <.LFE23>
9d0079e0:	00000000 	nop
9d0079e4:	00402021 	move	a0,v0
9d0079e8:	00602821 	move	a1,v1
9d0079ec:	0f4026d1 	jal	9d009b44 <__ldexp>
9d0079f0:	02e03021 	move	a2,s7
9d0079f4:	00408821 	move	s1,v0
9d0079f8:	00608021 	move	s0,v1
9d0079fc:	1220007b 	beqz	s1,9d007bec <__strtod+0x3bc>
9d007a00:	7e02f000 	ext	v0,s0,0x0,0x1f
9d007a04:	02301025 	or	v0,s1,s0
9d007a08:	10400073 	beqz	v0,9d007bd8 <__strtod+0x3a8>
9d007a0c:	00000000 	nop
9d007a10:	12600007 	beqz	s3,9d007a30 <__strtod+0x200>
9d007a14:	02201021 	move	v0,s1
9d007a18:	02202021 	move	a0,s1
9d007a1c:	0f403090 	jal	9d00c240 <__negdf2>
9d007a20:	02002821 	move	a1,s0
9d007a24:	00408821 	move	s1,v0
9d007a28:	00608021 	move	s0,v1
9d007a2c:	02201021 	move	v0,s1
9d007a30:	02001821 	move	v1,s0
9d007a34:	8fbf0034 	lw	ra,52(sp)
9d007a38:	8fbe0030 	lw	s8,48(sp)
9d007a3c:	8fb7002c 	lw	s7,44(sp)
9d007a40:	8fb60028 	lw	s6,40(sp)
9d007a44:	8fb50024 	lw	s5,36(sp)
9d007a48:	8fb40020 	lw	s4,32(sp)
9d007a4c:	8fb3001c 	lw	s3,28(sp)
9d007a50:	8fb20018 	lw	s2,24(sp)
9d007a54:	8fb10014 	lw	s1,20(sp)
9d007a58:	8fb00010 	lw	s0,16(sp)
9d007a5c:	03e00008 	jr	ra
9d007a60:	27bd0038 	addiu	sp,sp,56
9d007a64:	03c22021 	addu	a0,s8,v0
9d007a68:	90840000 	lbu	a0,0(a0)
9d007a6c:	30840004 	andi	a0,a0,0x4
9d007a70:	1080ffb5 	beqz	a0,9d007948 <__strtod+0x118>
9d007a74:	26940001 	addiu	s4,s4,1
9d007a78:	0000b821 	move	s7,zero
9d007a7c:	2456ffd0 	addiu	s6,v0,-48
9d007a80:	02002821 	move	a1,s0
9d007a84:	02202021 	move	a0,s1
9d007a88:	00003021 	move	a2,zero
9d007a8c:	0f4020b8 	jal	9d0082e0 <.LFE23>
9d007a90:	3c074024 	lui	a3,0x4024
9d007a94:	00408021 	move	s0,v0
9d007a98:	00608821 	move	s1,v1
9d007a9c:	0f402dfd 	jal	9d00b7f4 <__floatsidf>
9d007aa0:	02c02021 	move	a0,s6
9d007aa4:	02002021 	move	a0,s0
9d007aa8:	02202821 	move	a1,s1
9d007aac:	00403021 	move	a2,v0
9d007ab0:	00603821 	move	a3,v1
9d007ab4:	0f401d02 	jal	9d007408 <__adddf3>
9d007ab8:	26940001 	addiu	s4,s4,1
9d007abc:	00408821 	move	s1,v0
9d007ac0:	00608021 	move	s0,v1
9d007ac4:	82820000 	lb	v0,0(s4)
9d007ac8:	02569025 	or	s2,s2,s6
9d007acc:	03c21821 	addu	v1,s8,v0
9d007ad0:	90630000 	lbu	v1,0(v1)
9d007ad4:	30630004 	andi	v1,v1,0x4
9d007ad8:	1460ffe8 	bnez	v1,9d007a7c <__strtod+0x24c>
9d007adc:	26f7ffff 	addiu	s7,s7,-1
9d007ae0:	2403ffdf 	li	v1,-33
9d007ae4:	00431824 	and	v1,v0,v1
9d007ae8:	7c031c20 	seb	v1,v1
9d007aec:	24020045 	li	v0,69
9d007af0:	5062000f 	beql	v1,v0,9d007b30 <__strtod+0x300>
9d007af4:	82830001 	lb	v1,1(s4)
9d007af8:	56a0ff9a 	bnezl	s5,9d007964 <__strtod+0x134>
9d007afc:	aeb40000 	sw	s4,0(s5)
9d007b00:	0b401e59 	j	9d007964 <__strtod+0x134>
9d007b04:	00000000 	nop
9d007b08:	26940001 	addiu	s4,s4,1
9d007b0c:	0b401e2e 	j	9d0078b8 <__strtod+0x88>
9d007b10:	24130001 	li	s3,1
9d007b14:	2403ffdf 	li	v1,-33
9d007b18:	00431824 	and	v1,v0,v1
9d007b1c:	7c031c20 	seb	v1,v1
9d007b20:	24020045 	li	v0,69
9d007b24:	1462fff4 	bne	v1,v0,9d007af8 <__strtod+0x2c8>
9d007b28:	0000b821 	move	s7,zero
9d007b2c:	82830001 	lb	v1,1(s4)
9d007b30:	2402002d 	li	v0,45
9d007b34:	10620019 	beq	v1,v0,9d007b9c <__strtod+0x36c>
9d007b38:	2402002b 	li	v0,43
9d007b3c:	50620023 	beql	v1,v0,9d007bcc <__strtod+0x39c>
9d007b40:	82830002 	lb	v1,2(s4)
9d007b44:	26940001 	addiu	s4,s4,1
9d007b48:	00003821 	move	a3,zero
9d007b4c:	03c31021 	addu	v0,s8,v1
9d007b50:	90420000 	lbu	v0,0(v0)
9d007b54:	30420004 	andi	v0,v0,0x4
9d007b58:	1040000c 	beqz	v0,9d007b8c <__strtod+0x35c>
9d007b5c:	00001021 	move	v0,zero
9d007b60:	26940001 	addiu	s4,s4,1
9d007b64:	2465ffd0 	addiu	a1,v1,-48
9d007b68:	82830000 	lb	v1,0(s4)
9d007b6c:	00023040 	sll	a2,v0,0x1
9d007b70:	000210c0 	sll	v0,v0,0x3
9d007b74:	03c32021 	addu	a0,s8,v1
9d007b78:	90840000 	lbu	a0,0(a0)
9d007b7c:	00c21021 	addu	v0,a2,v0
9d007b80:	30840004 	andi	a0,a0,0x4
9d007b84:	1480fff6 	bnez	a0,9d007b60 <__strtod+0x330>
9d007b88:	00451021 	addu	v0,v0,a1
9d007b8c:	00021823 	negu	v1,v0
9d007b90:	0067100b 	movn	v0,v1,a3
9d007b94:	0b401ebe 	j	9d007af8 <__strtod+0x2c8>
9d007b98:	02e2b821 	addu	s7,s7,v0
9d007b9c:	82830002 	lb	v1,2(s4)
9d007ba0:	24070001 	li	a3,1
9d007ba4:	0b401ed3 	j	9d007b4c <__strtod+0x31c>
9d007ba8:	26940002 	addiu	s4,s4,2
9d007bac:	0f401876 	jal	9d0061d8 <__divdf3>
9d007bb0:	00000000 	nop
9d007bb4:	00402021 	move	a0,v0
9d007bb8:	0b401e7b 	j	9d0079ec <__strtod+0x1bc>
9d007bbc:	00602821 	move	a1,v1
9d007bc0:	00001821 	move	v1,zero
9d007bc4:	0b401e4f 	j	9d00793c <__strtod+0x10c>
9d007bc8:	00009021 	move	s2,zero
9d007bcc:	00003821 	move	a3,zero
9d007bd0:	0b401ed3 	j	9d007b4c <__strtod+0x31c>
9d007bd4:	26940002 	addiu	s4,s4,2
9d007bd8:	1240ff8d 	beqz	s2,9d007a10 <__strtod+0x1e0>
9d007bdc:	24030022 	li	v1,34
9d007be0:	3c02a000 	lui	v0,0xa000
9d007be4:	0b401e84 	j	9d007a10 <__strtod+0x1e0>
9d007be8:	ac430050 	sw	v1,80(v0)
9d007bec:	3c037ff0 	lui	v1,0x7ff0
9d007bf0:	1443ff85 	bne	v0,v1,9d007a08 <__strtod+0x1d8>
9d007bf4:	02301025 	or	v0,s1,s0
9d007bf8:	0b401ef8 	j	9d007be0 <__strtod+0x3b0>
9d007bfc:	24030022 	li	v1,34

Disassembly of section .text.strtoll:

9d007c00 <strtoll>:
9d007c00:	27bdffd0 	addiu	sp,sp,-48
9d007c04:	afbf002c 	sw	ra,44(sp)
9d007c08:	afb60028 	sw	s6,40(sp)
9d007c0c:	afb50024 	sw	s5,36(sp)
9d007c10:	afb40020 	sw	s4,32(sp)
9d007c14:	afb3001c 	sw	s3,28(sp)
9d007c18:	afb20018 	sw	s2,24(sp)
9d007c1c:	afb10014 	sw	s1,20(sp)
9d007c20:	afb00010 	sw	s0,16(sp)
9d007c24:	00809821 	move	s3,a0
9d007c28:	80820000 	lb	v0,0(a0)
9d007c2c:	00a0a021 	move	s4,a1
9d007c30:	104000c0 	beqz	v0,9d007f34 <strtoll+0x334>
9d007c34:	00c09021 	move	s2,a2
9d007c38:	3c049d01 	lui	a0,0x9d01
9d007c3c:	2484a57d 	addiu	a0,a0,-23171
9d007c40:	00821821 	addu	v1,a0,v0
9d007c44:	80630000 	lb	v1,0(v1)
9d007c48:	30630088 	andi	v1,v1,0x88
9d007c4c:	14600007 	bnez	v1,9d007c6c <strtoll+0x6c>
9d007c50:	02608821 	move	s1,s3
9d007c54:	0b401f9b 	j	9d007e6c <strtoll+0x26c>
9d007c58:	2403002b 	li	v1,43
9d007c5c:	80630000 	lb	v1,0(v1)
9d007c60:	30630088 	andi	v1,v1,0x88
9d007c64:	50600081 	beqzl	v1,9d007e6c <strtoll+0x26c>
9d007c68:	2403002b 	li	v1,43
9d007c6c:	26310001 	addiu	s1,s1,1
9d007c70:	82220000 	lb	v0,0(s1)
9d007c74:	1440fff9 	bnez	v0,9d007c5c <strtoll+0x5c>
9d007c78:	00821821 	addu	v1,a0,v0
9d007c7c:	00008021 	move	s0,zero
9d007c80:	0000b021 	move	s6,zero
9d007c84:	16400063 	bnez	s2,9d007e14 <strtoll+0x214>
9d007c88:	24020010 	li	v0,16
9d007c8c:	24020030 	li	v0,48
9d007c90:	12020090 	beq	s0,v0,9d007ed4 <strtoll+0x2d4>
9d007c94:	3c0fcccc 	lui	t7,0xcccc
9d007c98:	35efcccc 	ori	t7,t7,0xcccc
9d007c9c:	3c0b0ccc 	lui	t3,0xccc
9d007ca0:	356bcccc 	ori	t3,t3,0xcccc
9d007ca4:	240c000a 	li	t4,10
9d007ca8:	0000a821 	move	s5,zero
9d007cac:	00002021 	move	a0,zero
9d007cb0:	2412000a 	li	s2,10
9d007cb4:	2628ffff 	addiu	t0,s1,-1
9d007cb8:	00002821 	move	a1,zero
9d007cbc:	00001021 	move	v0,zero
9d007cc0:	00001821 	move	v1,zero
9d007cc4:	3c079d01 	lui	a3,0x9d01
9d007cc8:	24e7a57d 	addiu	a3,a3,-23171
9d007ccc:	240e0061 	li	t6,97
9d007cd0:	240d0041 	li	t5,65
9d007cd4:	3c187fff 	lui	t8,0x7fff
9d007cd8:	3718ffff 	ori	t8,t8,0xffff
9d007cdc:	1200002c 	beqz	s0,9d007d90 <strtoll+0x190>
9d007ce0:	25080001 	addiu	t0,t0,1
9d007ce4:	02074821 	addu	t1,s0,a3
9d007ce8:	91290000 	lbu	t1,0(t1)
9d007cec:	312a0004 	andi	t2,t1,0x4
9d007cf0:	11400041 	beqz	t2,9d007df8 <strtoll+0x1f8>
9d007cf4:	31260003 	andi	a2,t1,0x3
9d007cf8:	2610ffd0 	addiu	s0,s0,-48
9d007cfc:	06000024 	bltz	s0,9d007d90 <strtoll+0x190>
9d007d00:	0212482a 	slt	t1,s0,s2
9d007d04:	11200022 	beqz	t1,9d007d90 <strtoll+0x190>
9d007d08:	0163482a 	slt	t1,t3,v1
9d007d0c:	55200037 	bnezl	t1,9d007dec <strtoll+0x1ec>
9d007d10:	24050001 	li	a1,1
9d007d14:	146b0003 	bne	v1,t3,9d007d24 <strtoll+0x124>
9d007d18:	01e2202b 	sltu	a0,t7,v0
9d007d1c:	54800033 	bnezl	a0,9d007dec <strtoll+0x1ec>
9d007d20:	24050001 	li	a1,1
9d007d24:	14a00030 	bnez	a1,9d007de8 <strtoll+0x1e8>
9d007d28:	02a20018 	mult	s5,v0
9d007d2c:	001027c3 	sra	a0,s0,0x1f
9d007d30:	71830000 	madd	t4,v1
9d007d34:	00003012 	mflo	a2
9d007d38:	004c0019 	multu	v0,t4
9d007d3c:	00001012 	mflo	v0
9d007d40:	00001810 	mfhi	v1
9d007d44:	00c31821 	addu	v1,a2,v1
9d007d48:	03033023 	subu	a2,t8,v1
9d007d4c:	00c4482a 	slt	t1,a2,a0
9d007d50:	15200025 	bnez	t1,9d007de8 <strtoll+0x1e8>
9d007d54:	00025027 	nor	t2,zero,v0
9d007d58:	54860005 	bnel	a0,a2,9d007d70 <strtoll+0x170>
9d007d5c:	02028021 	addu	s0,s0,v0
9d007d60:	0150502b 	sltu	t2,t2,s0
9d007d64:	55400021 	bnezl	t2,9d007dec <strtoll+0x1ec>
9d007d68:	24050001 	li	a1,1
9d007d6c:	02028021 	addu	s0,s0,v0
9d007d70:	0202302b 	sltu	a2,s0,v0
9d007d74:	00642021 	addu	a0,v1,a0
9d007d78:	02001021 	move	v0,s0
9d007d7c:	00c41821 	addu	v1,a2,a0
9d007d80:	81100001 	lb	s0,1(t0)
9d007d84:	24040001 	li	a0,1
9d007d88:	1600ffd6 	bnez	s0,9d007ce4 <strtoll+0xe4>
9d007d8c:	25080001 	addiu	t0,t0,1
9d007d90:	12c0002d 	beqz	s6,9d007e48 <strtoll+0x248>
9d007d94:	00000000 	nop
9d007d98:	54a0003b 	bnezl	a1,9d007e88 <strtoll+0x288>
9d007d9c:	24030022 	li	v1,34
9d007da0:	00023823 	negu	a3,v0
9d007da4:	0007282b 	sltu	a1,zero,a3
9d007da8:	00033023 	negu	a2,v1
9d007dac:	00e01021 	move	v0,a3
9d007db0:	00c51823 	subu	v1,a2,a1
9d007db4:	12800002 	beqz	s4,9d007dc0 <strtoll+0x1c0>
9d007db8:	0264400a 	movz	t0,s3,a0
9d007dbc:	ae880000 	sw	t0,0(s4)
9d007dc0:	8fbf002c 	lw	ra,44(sp)
9d007dc4:	8fb60028 	lw	s6,40(sp)
9d007dc8:	8fb50024 	lw	s5,36(sp)
9d007dcc:	8fb40020 	lw	s4,32(sp)
9d007dd0:	8fb3001c 	lw	s3,28(sp)
9d007dd4:	8fb20018 	lw	s2,24(sp)
9d007dd8:	8fb10014 	lw	s1,20(sp)
9d007ddc:	8fb00010 	lw	s0,16(sp)
9d007de0:	03e00008 	jr	ra
9d007de4:	27bd0030 	addiu	sp,sp,48
9d007de8:	24050001 	li	a1,1
9d007dec:	81100001 	lb	s0,1(t0)
9d007df0:	0b401f62 	j	9d007d88 <strtoll+0x188>
9d007df4:	24040001 	li	a0,1
9d007df8:	10c0ffe5 	beqz	a2,9d007d90 <strtoll+0x190>
9d007dfc:	31290001 	andi	t1,t1,0x1
9d007e00:	01a03021 	move	a2,t5
9d007e04:	01c9300a 	movz	a2,t6,t1
9d007e08:	02068023 	subu	s0,s0,a2
9d007e0c:	0b401f3f 	j	9d007cfc <strtoll+0xfc>
9d007e10:	2610000a 	addiu	s0,s0,10
9d007e14:	12420026 	beq	s2,v0,9d007eb0 <strtoll+0x2b0>
9d007e18:	0012afc3 	sra	s5,s2,0x1f
9d007e1c:	2404ffff 	li	a0,-1
9d007e20:	3c057fff 	lui	a1,0x7fff
9d007e24:	34a5ffff 	ori	a1,a1,0xffff
9d007e28:	02403021 	move	a2,s2
9d007e2c:	0f4019a4 	jal	9d006690 <__divdi3>
9d007e30:	02a03821 	move	a3,s5
9d007e34:	02406021 	move	t4,s2
9d007e38:	00407821 	move	t7,v0
9d007e3c:	00605821 	move	t3,v1
9d007e40:	0b401f2d 	j	9d007cb4 <strtoll+0xb4>
9d007e44:	00002021 	move	a0,zero
9d007e48:	10a0ffda 	beqz	a1,9d007db4 <strtoll+0x1b4>
9d007e4c:	00000000 	nop
9d007e50:	24030022 	li	v1,34
9d007e54:	3c02a000 	lui	v0,0xa000
9d007e58:	ac430050 	sw	v1,80(v0)
9d007e5c:	2402ffff 	li	v0,-1
9d007e60:	3c037fff 	lui	v1,0x7fff
9d007e64:	0b401f6d 	j	9d007db4 <strtoll+0x1b4>
9d007e68:	3463ffff 	ori	v1,v1,0xffff
9d007e6c:	5443000b 	bnel	v0,v1,9d007e9c <strtoll+0x29c>
9d007e70:	2403002d 	li	v1,45
9d007e74:	3842002d 	xori	v0,v0,0x2d
9d007e78:	82300001 	lb	s0,1(s1)
9d007e7c:	2c560001 	sltiu	s6,v0,1
9d007e80:	0b401f21 	j	9d007c84 <strtoll+0x84>
9d007e84:	26310001 	addiu	s1,s1,1
9d007e88:	3c02a000 	lui	v0,0xa000
9d007e8c:	ac430050 	sw	v1,80(v0)
9d007e90:	00001021 	move	v0,zero
9d007e94:	0b401f6d 	j	9d007db4 <strtoll+0x1b4>
9d007e98:	3c038000 	lui	v1,0x8000
9d007e9c:	5043fff6 	beql	v0,v1,9d007e78 <strtoll+0x278>
9d007ea0:	3842002d 	xori	v0,v0,0x2d
9d007ea4:	82300000 	lb	s0,0(s1)
9d007ea8:	0b401f21 	j	9d007c84 <strtoll+0x84>
9d007eac:	0000b021 	move	s6,zero
9d007eb0:	24020030 	li	v0,48
9d007eb4:	12020023 	beq	s0,v0,9d007f44 <strtoll+0x344>
9d007eb8:	240fffff 	li	t7,-1
9d007ebc:	3c0b07ff 	lui	t3,0x7ff
9d007ec0:	356bffff 	ori	t3,t3,0xffff
9d007ec4:	240c0010 	li	t4,16
9d007ec8:	0000a821 	move	s5,zero
9d007ecc:	0b401f2d 	j	9d007cb4 <strtoll+0xb4>
9d007ed0:	00002021 	move	a0,zero
9d007ed4:	82300001 	lb	s0,1(s1)
9d007ed8:	2403ffdf 	li	v1,-33
9d007edc:	02031824 	and	v1,s0,v1
9d007ee0:	24020058 	li	v0,88
9d007ee4:	5062000a 	beql	v1,v0,9d007f10 <strtoll+0x310>
9d007ee8:	82300002 	lb	s0,2(s1)
9d007eec:	26310001 	addiu	s1,s1,1
9d007ef0:	240fffff 	li	t7,-1
9d007ef4:	3c0b0fff 	lui	t3,0xfff
9d007ef8:	356bffff 	ori	t3,t3,0xffff
9d007efc:	240c0008 	li	t4,8
9d007f00:	0000a821 	move	s5,zero
9d007f04:	24040001 	li	a0,1
9d007f08:	0b401f2d 	j	9d007cb4 <strtoll+0xb4>
9d007f0c:	24120008 	li	s2,8
9d007f10:	240fffff 	li	t7,-1
9d007f14:	26310002 	addiu	s1,s1,2
9d007f18:	3c0b07ff 	lui	t3,0x7ff
9d007f1c:	356bffff 	ori	t3,t3,0xffff
9d007f20:	240c0010 	li	t4,16
9d007f24:	0000a821 	move	s5,zero
9d007f28:	24040001 	li	a0,1
9d007f2c:	0b401f2d 	j	9d007cb4 <strtoll+0xb4>
9d007f30:	24120010 	li	s2,16
9d007f34:	00008021 	move	s0,zero
9d007f38:	00808821 	move	s1,a0
9d007f3c:	0b401f21 	j	9d007c84 <strtoll+0x84>
9d007f40:	0000b021 	move	s6,zero
9d007f44:	82300001 	lb	s0,1(s1)
9d007f48:	2403ffdf 	li	v1,-33
9d007f4c:	02031824 	and	v1,s0,v1
9d007f50:	24020058 	li	v0,88
9d007f54:	50620009 	beql	v1,v0,9d007f7c <strtoll+0x37c>
9d007f58:	82300002 	lb	s0,2(s1)
9d007f5c:	26310001 	addiu	s1,s1,1
9d007f60:	240fffff 	li	t7,-1
9d007f64:	3c0b07ff 	lui	t3,0x7ff
9d007f68:	356bffff 	ori	t3,t3,0xffff
9d007f6c:	240c0010 	li	t4,16
9d007f70:	0000a821 	move	s5,zero
9d007f74:	0b401f2d 	j	9d007cb4 <strtoll+0xb4>
9d007f78:	24040001 	li	a0,1
9d007f7c:	240fffff 	li	t7,-1
9d007f80:	0b401fd9 	j	9d007f64 <strtoll+0x364>
9d007f84:	26310002 	addiu	s1,s1,2

Disassembly of section .text.__strtof:

9d007f88 <__strtof>:
9d007f88:	27bdffc8 	addiu	sp,sp,-56
9d007f8c:	afbf0034 	sw	ra,52(sp)
9d007f90:	afb70030 	sw	s7,48(sp)
9d007f94:	afb6002c 	sw	s6,44(sp)
9d007f98:	afb50028 	sw	s5,40(sp)
9d007f9c:	afb40024 	sw	s4,36(sp)
9d007fa0:	afb30020 	sw	s3,32(sp)
9d007fa4:	afb2001c 	sw	s2,28(sp)
9d007fa8:	afb10018 	sw	s1,24(sp)
9d007fac:	afb00014 	sw	s0,20(sp)
9d007fb0:	0080a821 	move	s5,a0
9d007fb4:	80820000 	lb	v0,0(a0)
9d007fb8:	3c139d01 	lui	s3,0x9d01
9d007fbc:	2673a57d 	addiu	s3,s3,-23171
9d007fc0:	02621821 	addu	v1,s3,v0
9d007fc4:	80630000 	lb	v1,0(v1)
9d007fc8:	00a0b021 	move	s6,a1
9d007fcc:	30630088 	andi	v1,v1,0x88
9d007fd0:	10600008 	beqz	v1,9d007ff4 <__strtof+0x6c>
9d007fd4:	00808021 	move	s0,a0
9d007fd8:	26100001 	addiu	s0,s0,1
9d007fdc:	82020000 	lb	v0,0(s0)
9d007fe0:	02621821 	addu	v1,s3,v0
9d007fe4:	80630000 	lb	v1,0(v1)
9d007fe8:	30630088 	andi	v1,v1,0x88
9d007fec:	5460fffb 	bnezl	v1,9d007fdc <__strtof+0x54>
9d007ff0:	26100001 	addiu	s0,s0,1
9d007ff4:	2403002d 	li	v1,45
9d007ff8:	10430081 	beq	v0,v1,9d008200 <__strtof+0x278>
9d007ffc:	3842002b 	xori	v0,v0,0x2b
9d008000:	2c420001 	sltiu	v0,v0,1
9d008004:	0000b821 	move	s7,zero
9d008008:	02028021 	addu	s0,s0,v0
9d00800c:	82030000 	lb	v1,0(s0)
9d008010:	02631021 	addu	v0,s3,v1
9d008014:	90420000 	lbu	v0,0(v0)
9d008018:	30420004 	andi	v0,v0,0x4
9d00801c:	104000a5 	beqz	v0,9d0082b4 <__strtof+0x32c>
9d008020:	00008821 	move	s1,zero
9d008024:	0000a021 	move	s4,zero
9d008028:	2472ffd0 	addiu	s2,v1,-48
9d00802c:	02202021 	move	a0,s1
9d008030:	0f402662 	jal	9d009988 <.LFE4>
9d008034:	3c054120 	lui	a1,0x4120
9d008038:	00408821 	move	s1,v0
9d00803c:	0f402ed3 	jal	9d00bb4c <__floatsisf>
9d008040:	02402021 	move	a0,s2
9d008044:	02202021 	move	a0,s1
9d008048:	00402821 	move	a1,v0
9d00804c:	0f4024c9 	jal	9d009324 <__addsf3>
9d008050:	26100001 	addiu	s0,s0,1
9d008054:	00408821 	move	s1,v0
9d008058:	82030000 	lb	v1,0(s0)
9d00805c:	02631021 	addu	v0,s3,v1
9d008060:	90420000 	lbu	v0,0(v0)
9d008064:	30420004 	andi	v0,v0,0x4
9d008068:	1440ffef 	bnez	v0,9d008028 <__strtof+0xa0>
9d00806c:	0292a025 	or	s4,s4,s2
9d008070:	24040001 	li	a0,1
9d008074:	2402002e 	li	v0,46
9d008078:	5062003e 	beql	v1,v0,9d008174 <__strtof+0x1ec>
9d00807c:	82020001 	lb	v0,1(s0)
9d008080:	54800062 	bnezl	a0,9d00820c <__strtof+0x284>
9d008084:	82020000 	lb	v0,0(s0)
9d008088:	12c00024 	beqz	s6,9d00811c <__strtof+0x194>
9d00808c:	00111840 	sll	v1,s1,0x1
9d008090:	02a08021 	move	s0,s5
9d008094:	00009021 	move	s2,zero
9d008098:	aed00000 	sw	s0,0(s6)
9d00809c:	1240001f 	beqz	s2,9d00811c <__strtof+0x194>
9d0080a0:	00111840 	sll	v1,s1,0x1
9d0080a4:	001217c3 	sra	v0,s2,0x1f
9d0080a8:	0052a826 	xor	s5,v0,s2
9d0080ac:	02a2a823 	subu	s5,s5,v0
9d0080b0:	3c139d01 	lui	s3,0x9d01
9d0080b4:	2673c288 	addiu	s3,s3,-15736
9d0080b8:	24100006 	li	s0,6
9d0080bc:	0b402033 	j	9d0080cc <__strtof+0x144>
9d0080c0:	3c023f80 	lui	v0,0x3f80
9d0080c4:	1200000b 	beqz	s0,9d0080f4 <__strtof+0x16c>
9d0080c8:	2673fffc 	addiu	s3,s3,-4
9d0080cc:	2610ffff 	addiu	s0,s0,-1
9d0080d0:	02151807 	srav	v1,s5,s0
9d0080d4:	30630001 	andi	v1,v1,0x1
9d0080d8:	1060fffa 	beqz	v1,9d0080c4 <__strtof+0x13c>
9d0080dc:	00000000 	nop
9d0080e0:	8e650000 	lw	a1,0(s3)
9d0080e4:	0f402662 	jal	9d009988 <.LFE4>
9d0080e8:	00402021 	move	a0,v0
9d0080ec:	1600fff7 	bnez	s0,9d0080cc <__strtof+0x144>
9d0080f0:	2673fffc 	addiu	s3,s3,-4
9d0080f4:	02202021 	move	a0,s1
9d0080f8:	0640006a 	bltz	s2,9d0082a4 <__strtof+0x31c>
9d0080fc:	00402821 	move	a1,v0
9d008100:	0f402662 	jal	9d009988 <.LFE4>
9d008104:	00000000 	nop
9d008108:	00402021 	move	a0,v0
9d00810c:	0f4029a0 	jal	9d00a680 <__ldexpf>
9d008110:	02402821 	move	a1,s2
9d008114:	00408821 	move	s1,v0
9d008118:	00111840 	sll	v1,s1,0x1
9d00811c:	3c02ff00 	lui	v0,0xff00
9d008120:	5062006c 	beql	v1,v0,9d0082d4 <__strtof+0x34c>
9d008124:	24030022 	li	v1,34
9d008128:	12200068 	beqz	s1,9d0082cc <__strtof+0x344>
9d00812c:	00000000 	nop
9d008130:	12e00005 	beqz	s7,9d008148 <__strtof+0x1c0>
9d008134:	02201021 	move	v0,s1
9d008138:	0f4030b7 	jal	9d00c2dc <__negsf2>
9d00813c:	02202021 	move	a0,s1
9d008140:	00408821 	move	s1,v0
9d008144:	02201021 	move	v0,s1
9d008148:	8fbf0034 	lw	ra,52(sp)
9d00814c:	8fb70030 	lw	s7,48(sp)
9d008150:	8fb6002c 	lw	s6,44(sp)
9d008154:	8fb50028 	lw	s5,40(sp)
9d008158:	8fb40024 	lw	s4,36(sp)
9d00815c:	8fb30020 	lw	s3,32(sp)
9d008160:	8fb2001c 	lw	s2,28(sp)
9d008164:	8fb10018 	lw	s1,24(sp)
9d008168:	8fb00014 	lw	s0,20(sp)
9d00816c:	03e00008 	jr	ra
9d008170:	27bd0038 	addiu	sp,sp,56
9d008174:	02621821 	addu	v1,s3,v0
9d008178:	90630000 	lbu	v1,0(v1)
9d00817c:	30630004 	andi	v1,v1,0x4
9d008180:	1060ffbf 	beqz	v1,9d008080 <__strtof+0xf8>
9d008184:	26100001 	addiu	s0,s0,1
9d008188:	00009021 	move	s2,zero
9d00818c:	2455ffd0 	addiu	s5,v0,-48
9d008190:	02202021 	move	a0,s1
9d008194:	0f402662 	jal	9d009988 <.LFE4>
9d008198:	3c054120 	lui	a1,0x4120
9d00819c:	00408821 	move	s1,v0
9d0081a0:	0f402ed3 	jal	9d00bb4c <__floatsisf>
9d0081a4:	02a02021 	move	a0,s5
9d0081a8:	02202021 	move	a0,s1
9d0081ac:	00402821 	move	a1,v0
9d0081b0:	0f4024c9 	jal	9d009324 <__addsf3>
9d0081b4:	26100001 	addiu	s0,s0,1
9d0081b8:	00408821 	move	s1,v0
9d0081bc:	82020000 	lb	v0,0(s0)
9d0081c0:	0295a025 	or	s4,s4,s5
9d0081c4:	02621821 	addu	v1,s3,v0
9d0081c8:	90630000 	lbu	v1,0(v1)
9d0081cc:	30630004 	andi	v1,v1,0x4
9d0081d0:	1460ffee 	bnez	v1,9d00818c <__strtof+0x204>
9d0081d4:	2652ffff 	addiu	s2,s2,-1
9d0081d8:	2403ffdf 	li	v1,-33
9d0081dc:	00431824 	and	v1,v0,v1
9d0081e0:	7c031c20 	seb	v1,v1
9d0081e4:	24020045 	li	v0,69
9d0081e8:	5062000f 	beql	v1,v0,9d008228 <__strtof+0x2a0>
9d0081ec:	82030001 	lb	v1,1(s0)
9d0081f0:	56c0ffaa 	bnezl	s6,9d00809c <__strtof+0x114>
9d0081f4:	aed00000 	sw	s0,0(s6)
9d0081f8:	0b402027 	j	9d00809c <__strtof+0x114>
9d0081fc:	00000000 	nop
9d008200:	26100001 	addiu	s0,s0,1
9d008204:	0b402003 	j	9d00800c <__strtof+0x84>
9d008208:	24170001 	li	s7,1
9d00820c:	2403ffdf 	li	v1,-33
9d008210:	00431824 	and	v1,v0,v1
9d008214:	7c031c20 	seb	v1,v1
9d008218:	24020045 	li	v0,69
9d00821c:	1462fff4 	bne	v1,v0,9d0081f0 <__strtof+0x268>
9d008220:	00009021 	move	s2,zero
9d008224:	82030001 	lb	v1,1(s0)
9d008228:	2402002d 	li	v0,45
9d00822c:	10620019 	beq	v1,v0,9d008294 <__strtof+0x30c>
9d008230:	2402002b 	li	v0,43
9d008234:	50620022 	beql	v1,v0,9d0082c0 <__strtof+0x338>
9d008238:	82030002 	lb	v1,2(s0)
9d00823c:	26100001 	addiu	s0,s0,1
9d008240:	00003821 	move	a3,zero
9d008244:	02631021 	addu	v0,s3,v1
9d008248:	90420000 	lbu	v0,0(v0)
9d00824c:	30420004 	andi	v0,v0,0x4
9d008250:	1040000c 	beqz	v0,9d008284 <__strtof+0x2fc>
9d008254:	00001021 	move	v0,zero
9d008258:	26100001 	addiu	s0,s0,1
9d00825c:	2465ffd0 	addiu	a1,v1,-48
9d008260:	82030000 	lb	v1,0(s0)
9d008264:	00023040 	sll	a2,v0,0x1
9d008268:	000210c0 	sll	v0,v0,0x3
9d00826c:	02632021 	addu	a0,s3,v1
9d008270:	90840000 	lbu	a0,0(a0)
9d008274:	00c21021 	addu	v0,a2,v0
9d008278:	30840004 	andi	a0,a0,0x4
9d00827c:	1480fff6 	bnez	a0,9d008258 <__strtof+0x2d0>
9d008280:	00451021 	addu	v0,v0,a1
9d008284:	00021823 	negu	v1,v0
9d008288:	0067100b 	movn	v0,v1,a3
9d00828c:	0b40207c 	j	9d0081f0 <__strtof+0x268>
9d008290:	02429021 	addu	s2,s2,v0
9d008294:	82030002 	lb	v1,2(s0)
9d008298:	24070001 	li	a3,1
9d00829c:	0b402091 	j	9d008244 <__strtof+0x2bc>
9d0082a0:	26100002 	addiu	s0,s0,2
9d0082a4:	0f402565 	jal	9d009594 <__divsf3>
9d0082a8:	00000000 	nop
9d0082ac:	0b402043 	j	9d00810c <__strtof+0x184>
9d0082b0:	00402021 	move	a0,v0
9d0082b4:	00002021 	move	a0,zero
9d0082b8:	0b40201d 	j	9d008074 <__strtof+0xec>
9d0082bc:	0000a021 	move	s4,zero
9d0082c0:	00003821 	move	a3,zero
9d0082c4:	0b402091 	j	9d008244 <__strtof+0x2bc>
9d0082c8:	26100002 	addiu	s0,s0,2
9d0082cc:	1280ff98 	beqz	s4,9d008130 <__strtof+0x1a8>
9d0082d0:	24030022 	li	v1,34
9d0082d4:	3c02a000 	lui	v0,0xa000
9d0082d8:	0b40204c 	j	9d008130 <__strtof+0x1a8>
9d0082dc:	ac430050 	sw	v1,80(v0)

Disassembly of section .text.dp32mul:

9d0082e0 <__muldf3>:
9d0082e0:	00055040 000a5542 00054ac0 00047d42     @P..BU...J..B}..
9d0082f0:	012f4825 000442c0 3c0e8000 012e4825     %H/..B.....<%H..
9d008300:	00076840 000d6d42 000762c0 00067d42     @h..Bm...b..B}..
9d008310:	018f6025 00065ac0 018e6025 00a72826     %`...Z..%`..&(..
9d008320:	00ae2824 254fffff 2de107fe 10200047     $(....O%...-G. .
9d008330:	00000000                                ....

9d008334 <Clab1>:
9d008334:	25afffff 	addiu	t7,t5,-1
9d008338:	2de107fe 	sltiu	at,t7,2046
9d00833c:	1020006f 	beqz	at,9d0084fc <CspecB>
9d008340:	00000000 	nop

9d008344 <Clab2>:
9d008344:	25affc02 	addiu	t7,t5,-1022
9d008348:	014f5021 	addu	t2,t2,t7
9d00834c:	012c0019 	multu	t1,t4
9d008350:	00003812 	mflo	a3
9d008354:	00007010 	mfhi	t6
9d008358:	010b0019 	multu	t0,t3
9d00835c:	00002012 	mflo	a0
9d008360:	00003010 	mfhi	a2
9d008364:	012b0019 	multu	t1,t3
9d008368:	00005812 	mflo	t3
9d00836c:	00006810 	mfhi	t5
9d008370:	00cb3021 	addu	a2,a2,t3
9d008374:	00cb782b 	sltu	t7,a2,t3
9d008378:	00ed3821 	addu	a3,a3,t5
9d00837c:	00ef3821 	addu	a3,a3,t7
9d008380:	10ed0002 	beq	a3,t5,9d00838c <L20>
9d008384:	00000000 	nop
9d008388:	00ed782b 	sltu	t7,a3,t5

9d00838c <L20>:
9d00838c:	01cf7021 	addu	t6,t6,t7
9d008390:	010c0019 	multu	t0,t4
9d008394:	00004012 	mflo	t0
9d008398:	00004810 	mfhi	t1
9d00839c:	00c83021 	addu	a2,a2,t0
9d0083a0:	00c8782b 	sltu	t7,a2,t0
9d0083a4:	00e93821 	addu	a3,a3,t1
9d0083a8:	00ef3821 	addu	a3,a3,t7
9d0083ac:	10e90002 	beq	a3,t1,9d0083b8 <L21>
9d0083b0:	00000000 	nop
9d0083b4:	00e9782b 	sltu	t7,a3,t1

9d0083b8 <L21>:
9d0083b8:	01cf7021 	addu	t6,t6,t7
9d0083bc:	00867825 	or	t7,a0,a2
9d0083c0:	11e00002 	beqz	t7,9d0083cc <i13>
9d0083c4:	00000000 	nop
9d0083c8:	34e70001 	ori	a3,a3,0x1

9d0083cc <i13>:
9d0083cc:	000e4825 	or	t1,zero,t6
9d0083d0:	05200006 	bltz	t1,9d0083ec <i14>
9d0083d4:	00074025 	or	t0,zero,a3
9d0083d8:	0100782a 	slt	t7,t0,zero
9d0083dc:	01084021 	addu	t0,t0,t0
9d0083e0:	01294821 	addu	t1,t1,t1
9d0083e4:	012f4821 	addu	t1,t1,t7
9d0083e8:	254affff 	addiu	t2,t2,-1

9d0083ec <i14>:
9d0083ec:	254fffff 	addiu	t7,t2,-1
9d0083f0:	2de107fe 	sltiu	at,t7,2046
9d0083f4:	10200068 	beqz	at,9d008598 <Coveund>
9d0083f8:	00000000 	nop
9d0083fc:	25080400 	addiu	t0,t0,1024
9d008400:	2d0f0400 	sltiu	t7,t0,1024
9d008404:	012f4821 	addu	t1,t1,t7
9d008408:	012f782b 	sltu	t7,t1,t7
9d00840c:	014f5021 	addu	t2,t2,t7

9d008410 <Clab8>:
9d008410:	00087ac2 	srl	t7,t0,0xb
9d008414:	31ef0001 	andi	t7,t7,0x1
9d008418:	010f4023 	subu	t0,t0,t7
9d00841c:	000822c2 	srl	a0,t0,0xb
9d008420:	00097d40 	sll	t7,t1,0x15
9d008424:	008f2025 	or	a0,a0,t7
9d008428:	00097840 	sll	t7,t1,0x1
9d00842c:	000f7b02 	srl	t7,t7,0xc
9d008430:	00af2825 	or	a1,a1,t7
9d008434:	000a7d00 	sll	t7,t2,0x14
9d008438:	00af2825 	or	a1,a1,t7

9d00843c <Cret>:
9d00843c:	00041025 	or	v0,zero,a0
9d008440:	00051825 	or	v1,zero,a1

9d008444 <C999>:
9d008444:	03e00008 	jr	ra
9d008448:	00000000 	nop

9d00844c <CspecA>:
9d00844c:	0100782a 	slt	t7,t0,zero
9d008450:	01084021 	addu	t0,t0,t0
9d008454:	01294821 	addu	t1,t1,t1
9d008458:	1540001c 	bnez	t2,9d0084cc <i15>
9d00845c:	012f4821 	addu	t1,t1,t7
9d008460:	01287825 	or	t7,t1,t0
9d008464:	11e00014 	beqz	t7,9d0084b8 <i16>
9d008468:	00000000 	nop
9d00846c:	15200008 	bnez	t1,9d008490 <L22>
9d008470:	00000000 	nop
9d008474:	15000003 	bnez	t0,9d008484 <L23>
9d008478:	00000000 	nop
9d00847c:	1000ffad 	b	9d008334 <Clab1>
9d008480:	240a0000 	li	t2,0

9d008484 <L23>:
9d008484:	01004825 	move	t1,t0
9d008488:	24080000 	li	t0,0
9d00848c:	254affe0 	addiu	t2,t2,-32

9d008490 <L22>:
9d008490:	712e7020 	clz	t6,t1
9d008494:	11c0ffa7 	beqz	t6,9d008334 <Clab1>
9d008498:	00000000 	nop
9d00849c:	014e5023 	subu	t2,t2,t6
9d0084a0:	000e3822 	neg	a3,t6
9d0084a4:	00e83806 	srlv	a3,t0,a3
9d0084a8:	01c84004 	sllv	t0,t0,t6
9d0084ac:	01c94804 	sllv	t1,t1,t6
9d0084b0:	1000ffa0 	b	9d008334 <Clab1>
9d0084b4:	01274825 	or	t1,t1,a3

9d0084b8 <i16>:
9d0084b8:	240107ff 	li	at,2047
9d0084bc:	11a10033 	beq	t5,at,9d00858c <Cnan>
9d0084c0:	00000000 	nop
9d0084c4:	1000ffdd 	b	9d00843c <Cret>
9d0084c8:	00000000 	nop

9d0084cc <i15>:
9d0084cc:	01287825 	or	t7,t1,t0
9d0084d0:	15e0002e 	bnez	t7,9d00858c <Cnan>
9d0084d4:	00000000 	nop
9d0084d8:	15a00005 	bnez	t5,9d0084f0 <i17>
9d0084dc:	00000000 	nop
9d0084e0:	000c7840 	sll	t7,t4,0x1
9d0084e4:	01eb7825 	or	t7,t7,t3
9d0084e8:	11e00028 	beqz	t7,9d00858c <Cnan>
9d0084ec:	00000000 	nop

9d0084f0 <i17>:
9d0084f0:	240107ff 	li	at,2047
9d0084f4:	15a10021 	bne	t5,at,9d00857c <Cinf>
9d0084f8:	00000000 	nop

9d0084fc <CspecB>:
9d0084fc:	0160782a 	slt	t7,t3,zero
9d008500:	016b5821 	addu	t3,t3,t3
9d008504:	018c6021 	addu	t4,t4,t4
9d008508:	15a00019 	bnez	t5,9d008570 <i18>
9d00850c:	018f6021 	addu	t4,t4,t7
9d008510:	018b7825 	or	t7,t4,t3
9d008514:	11e00014 	beqz	t7,9d008568 <i19>
9d008518:	00000000 	nop
9d00851c:	15800008 	bnez	t4,9d008540 <L25>
9d008520:	00000000 	nop
9d008524:	15600003 	bnez	t3,9d008534 <L26>
9d008528:	00000000 	nop
9d00852c:	1000ff85 	b	9d008344 <Clab2>
9d008530:	240d0000 	li	t5,0

9d008534 <L26>:
9d008534:	01606025 	move	t4,t3
9d008538:	240b0000 	li	t3,0
9d00853c:	25adffe0 	addiu	t5,t5,-32

9d008540 <L25>:
9d008540:	71863020 	clz	a2,t4
9d008544:	10c0ff7f 	beqz	a2,9d008344 <Clab2>
9d008548:	00000000 	nop
9d00854c:	01a66823 	subu	t5,t5,a2
9d008550:	00067022 	neg	t6,a2
9d008554:	01cb7006 	srlv	t6,t3,t6
9d008558:	00cb5804 	sllv	t3,t3,a2
9d00855c:	00cc6004 	sllv	t4,t4,a2
9d008560:	1000ff78 	b	9d008344 <Clab2>
9d008564:	018e6025 	or	t4,t4,t6

9d008568 <i19>:
9d008568:	1000ffb4 	b	9d00843c <Cret>
9d00856c:	24040000 	li	a0,0

9d008570 <i18>:
9d008570:	018b7825 	or	t7,t4,t3
9d008574:	15e00005 	bnez	t7,9d00858c <Cnan>
9d008578:	00000000 	nop

9d00857c <Cinf>:
9d00857c:	3c017ff0 	lui	at,0x7ff0
9d008580:	00a12825 	or	a1,a1,at
9d008584:	1000ffad 	b	9d00843c <Cret>
9d008588:	24040000 	li	a0,0

9d00858c <Cnan>:
9d00858c:	3c05fff8 	lui	a1,0xfff8
9d008590:	1000ffaa 	b	9d00843c <Cret>
9d008594:	24040000 	li	a0,0

9d008598 <Coveund>:
9d008598:	1d40fff8 	bgtz	t2,9d00857c <Cinf>
9d00859c:	00000000 	nop
9d0085a0:	240e0001 	li	t6,1
9d0085a4:	01ca7023 	subu	t6,t6,t2

9d0085a8 <L28>:
9d0085a8:	2dc10020 	sltiu	at,t6,32
9d0085ac:	14200007 	bnez	at,9d0085cc <L29>
9d0085b0:	00000000 	nop
9d0085b4:	21ceffe0 	addi	t6,t6,-32
9d0085b8:	0008302b 	sltu	a2,zero,t0
9d0085bc:	1009000d 	beq	zero,t1,9d0085f4 <L30>
9d0085c0:	01264025 	or	t0,t1,a2
9d0085c4:	1000fff8 	b	9d0085a8 <L28>
9d0085c8:	34090000 	li	t1,0x0

9d0085cc <L29>:
9d0085cc:	11c00009 	beqz	t6,9d0085f4 <L30>
9d0085d0:	00000000 	nop
9d0085d4:	000e3822 	neg	a3,t6
9d0085d8:	00e83004 	sllv	a2,t0,a3
9d0085dc:	00e93804 	sllv	a3,t1,a3
9d0085e0:	01c84006 	srlv	t0,t0,t6
9d0085e4:	01c94806 	srlv	t1,t1,t6
9d0085e8:	10c00002 	beqz	a2,9d0085f4 <L30>
9d0085ec:	00e84025 	or	t0,a3,t0
9d0085f0:	35080002 	ori	t0,t0,0x2

9d0085f4 <L30>:
9d0085f4:	25080400 	addiu	t0,t0,1024
9d0085f8:	2d0f0400 	sltiu	t7,t0,1024
9d0085fc:	012f4821 	addu	t1,t1,t7
9d008600:	1000ff83 	b	9d008410 <Clab8>
9d008604:	000957c2 	srl	t2,t1,0x1f
9d008608:	00000000 	nop

Disassembly of section .text.strtoull:

9d00860c <strtoull>:
9d00860c:	27bdffd0 	addiu	sp,sp,-48
9d008610:	afbf002c 	sw	ra,44(sp)
9d008614:	afb50028 	sw	s5,40(sp)
9d008618:	afb40024 	sw	s4,36(sp)
9d00861c:	afb30020 	sw	s3,32(sp)
9d008620:	afb2001c 	sw	s2,28(sp)
9d008624:	afb10018 	sw	s1,24(sp)
9d008628:	afb00014 	sw	s0,20(sp)
9d00862c:	00808821 	move	s1,a0
9d008630:	80820000 	lb	v0,0(a0)
9d008634:	00a09821 	move	s3,a1
9d008638:	1040001f 	beqz	v0,9d0086b8 <strtoull+0xac>
9d00863c:	00c09021 	move	s2,a2
9d008640:	3c049d01 	lui	a0,0x9d01
9d008644:	2484a57d 	addiu	a0,a0,-23171
9d008648:	0b402197 	j	9d00865c <strtoull+0x50>
9d00864c:	00821821 	addu	v1,a0,v0
9d008650:	82220000 	lb	v0,0(s1)
9d008654:	10400018 	beqz	v0,9d0086b8 <strtoull+0xac>
9d008658:	00821821 	addu	v1,a0,v0
9d00865c:	80630000 	lb	v1,0(v1)
9d008660:	30630088 	andi	v1,v1,0x88
9d008664:	5460fffa 	bnezl	v1,9d008650 <strtoull+0x44>
9d008668:	26310001 	addiu	s1,s1,1
9d00866c:	2403002b 	li	v1,43
9d008670:	14430079 	bne	v0,v1,9d008858 <strtoull+0x24c>
9d008674:	2403002d 	li	v1,45
9d008678:	3842002d 	xori	v0,v0,0x2d
9d00867c:	82300001 	lb	s0,1(s1)
9d008680:	2c550001 	sltiu	s5,v0,1
9d008684:	26310001 	addiu	s1,s1,1
9d008688:	1640000f 	bnez	s2,9d0086c8 <strtoull+0xbc>
9d00868c:	24020010 	li	v0,16
9d008690:	24020030 	li	v0,48
9d008694:	12020075 	beq	s0,v0,9d00886c <strtoull+0x260>
9d008698:	3c0d9999 	lui	t5,0x9999
9d00869c:	35ad9999 	ori	t5,t5,0x9999
9d0086a0:	3c0a1999 	lui	t2,0x1999
9d0086a4:	354a9999 	ori	t2,t2,0x9999
9d0086a8:	240b000a 	li	t3,10
9d0086ac:	0000a021 	move	s4,zero
9d0086b0:	0b4021bc 	j	9d0086f0 <strtoull+0xe4>
9d0086b4:	2412000a 	li	s2,10
9d0086b8:	00008021 	move	s0,zero
9d0086bc:	1240fff4 	beqz	s2,9d008690 <strtoull+0x84>
9d0086c0:	0000a821 	move	s5,zero
9d0086c4:	24020010 	li	v0,16
9d0086c8:	12420076 	beq	s2,v0,9d0088a4 <strtoull+0x298>
9d0086cc:	0012a7c3 	sra	s4,s2,0x1f
9d0086d0:	2404ffff 	li	a0,-1
9d0086d4:	2405ffff 	li	a1,-1
9d0086d8:	02403021 	move	a2,s2
9d0086dc:	0f401bea 	jal	9d006fa8 <__udivdi3>
9d0086e0:	02803821 	move	a3,s4
9d0086e4:	02405821 	move	t3,s2
9d0086e8:	00406821 	move	t5,v0
9d0086ec:	00605021 	move	t2,v1
9d0086f0:	2624ffff 	addiu	a0,s1,-1
9d0086f4:	00002821 	move	a1,zero
9d0086f8:	00001021 	move	v0,zero
9d0086fc:	00001821 	move	v1,zero
9d008700:	3c079d01 	lui	a3,0x9d01
9d008704:	24e7a57d 	addiu	a3,a3,-23171
9d008708:	240e0061 	li	t6,97
9d00870c:	240c0041 	li	t4,65
9d008710:	1200002b 	beqz	s0,9d0087c0 <strtoull+0x1b4>
9d008714:	24840001 	addiu	a0,a0,1
9d008718:	02074021 	addu	t0,s0,a3
9d00871c:	91080000 	lbu	t0,0(t0)
9d008720:	31090004 	andi	t1,t0,0x4
9d008724:	1120003d 	beqz	t1,9d00881c <strtoull+0x210>
9d008728:	31060003 	andi	a2,t0,0x3
9d00872c:	2610ffd0 	addiu	s0,s0,-48
9d008730:	06000023 	bltz	s0,9d0087c0 <strtoull+0x1b4>
9d008734:	0212402a 	slt	t0,s0,s2
9d008738:	11000021 	beqz	t0,9d0087c0 <strtoull+0x1b4>
9d00873c:	0143402b 	sltu	t0,t2,v1
9d008740:	55000034 	bnezl	t0,9d008814 <strtoull+0x208>
9d008744:	24050001 	li	a1,1
9d008748:	146a0003 	bne	v1,t2,9d008758 <strtoull+0x14c>
9d00874c:	01a2302b 	sltu	a2,t5,v0
9d008750:	54c00030 	bnezl	a2,9d008814 <strtoull+0x208>
9d008754:	24050001 	li	a1,1
9d008758:	14a00016 	bnez	a1,9d0087b4 <strtoull+0x1a8>
9d00875c:	02820018 	mult	s4,v0
9d008760:	001047c3 	sra	t0,s0,0x1f
9d008764:	71630000 	madd	t3,v1
9d008768:	00003012 	mflo	a2
9d00876c:	004b0019 	multu	v0,t3
9d008770:	00001012 	mflo	v0
9d008774:	00001810 	mfhi	v1
9d008778:	00c31821 	addu	v1,a2,v1
9d00877c:	00033027 	nor	a2,zero,v1
9d008780:	00c8482b 	sltu	t1,a2,t0
9d008784:	15200022 	bnez	t1,9d008810 <strtoull+0x204>
9d008788:	00027827 	nor	t7,zero,v0
9d00878c:	55060005 	bnel	t0,a2,9d0087a4 <strtoull+0x198>
9d008790:	02028021 	addu	s0,s0,v0
9d008794:	01f0782b 	sltu	t7,t7,s0
9d008798:	55e0001e 	bnezl	t7,9d008814 <strtoull+0x208>
9d00879c:	24050001 	li	a1,1
9d0087a0:	02028021 	addu	s0,s0,v0
9d0087a4:	0202302b 	sltu	a2,s0,v0
9d0087a8:	00684021 	addu	t0,v1,t0
9d0087ac:	02001021 	move	v0,s0
9d0087b0:	00c81821 	addu	v1,a2,t0
9d0087b4:	80900001 	lb	s0,1(a0)
9d0087b8:	1600ffd7 	bnez	s0,9d008718 <strtoull+0x10c>
9d0087bc:	24840001 	addiu	a0,a0,1
9d0087c0:	12a0001d 	beqz	s5,9d008838 <strtoull+0x22c>
9d0087c4:	00000000 	nop
9d0087c8:	54a0001e 	bnezl	a1,9d008844 <strtoull+0x238>
9d0087cc:	24030022 	li	v1,34
9d0087d0:	00023823 	negu	a3,v0
9d0087d4:	0007282b 	sltu	a1,zero,a3
9d0087d8:	00033023 	negu	a2,v1
9d0087dc:	00e01021 	move	v0,a3
9d0087e0:	00c51823 	subu	v1,a2,a1
9d0087e4:	56600001 	bnezl	s3,9d0087ec <strtoull+0x1e0>
9d0087e8:	ae640000 	sw	a0,0(s3)
9d0087ec:	8fbf002c 	lw	ra,44(sp)
9d0087f0:	8fb50028 	lw	s5,40(sp)
9d0087f4:	8fb40024 	lw	s4,36(sp)
9d0087f8:	8fb30020 	lw	s3,32(sp)
9d0087fc:	8fb2001c 	lw	s2,28(sp)
9d008800:	8fb10018 	lw	s1,24(sp)
9d008804:	8fb00014 	lw	s0,20(sp)
9d008808:	03e00008 	jr	ra
9d00880c:	27bd0030 	addiu	sp,sp,48
9d008810:	24050001 	li	a1,1
9d008814:	0b4021ee 	j	9d0087b8 <strtoull+0x1ac>
9d008818:	80900001 	lb	s0,1(a0)
9d00881c:	10c0ffe8 	beqz	a2,9d0087c0 <strtoull+0x1b4>
9d008820:	31080001 	andi	t0,t0,0x1
9d008824:	01803021 	move	a2,t4
9d008828:	01c8300a 	movz	a2,t6,t0
9d00882c:	02068023 	subu	s0,s0,a2
9d008830:	0b4021cc 	j	9d008730 <strtoull+0x124>
9d008834:	2610000a 	addiu	s0,s0,10
9d008838:	10a0ffea 	beqz	a1,9d0087e4 <strtoull+0x1d8>
9d00883c:	00000000 	nop
9d008840:	24030022 	li	v1,34
9d008844:	3c02a000 	lui	v0,0xa000
9d008848:	ac430050 	sw	v1,80(v0)
9d00884c:	2402ffff 	li	v0,-1
9d008850:	0b4021f9 	j	9d0087e4 <strtoull+0x1d8>
9d008854:	2403ffff 	li	v1,-1
9d008858:	1043ff88 	beq	v0,v1,9d00867c <strtoull+0x70>
9d00885c:	3842002d 	xori	v0,v0,0x2d
9d008860:	82300000 	lb	s0,0(s1)
9d008864:	0b4021a2 	j	9d008688 <strtoull+0x7c>
9d008868:	0000a821 	move	s5,zero
9d00886c:	82300001 	lb	s0,1(s1)
9d008870:	2403ffdf 	li	v1,-33
9d008874:	02031824 	and	v1,s0,v1
9d008878:	24020058 	li	v0,88
9d00887c:	50620012 	beql	v1,v0,9d0088c8 <strtoull+0x2bc>
9d008880:	82300002 	lb	s0,2(s1)
9d008884:	26310001 	addiu	s1,s1,1
9d008888:	240dffff 	li	t5,-1
9d00888c:	3c0a1fff 	lui	t2,0x1fff
9d008890:	354affff 	ori	t2,t2,0xffff
9d008894:	240b0008 	li	t3,8
9d008898:	0000a021 	move	s4,zero
9d00889c:	0b4021bc 	j	9d0086f0 <strtoull+0xe4>
9d0088a0:	24120008 	li	s2,8
9d0088a4:	24020030 	li	v0,48
9d0088a8:	5202000f 	beql	s0,v0,9d0088e8 <strtoull+0x2dc>
9d0088ac:	82300001 	lb	s0,1(s1)
9d0088b0:	240dffff 	li	t5,-1
9d0088b4:	3c0a0fff 	lui	t2,0xfff
9d0088b8:	354affff 	ori	t2,t2,0xffff
9d0088bc:	240b0010 	li	t3,16
9d0088c0:	0b4021bc 	j	9d0086f0 <strtoull+0xe4>
9d0088c4:	0000a021 	move	s4,zero
9d0088c8:	240dffff 	li	t5,-1
9d0088cc:	26310002 	addiu	s1,s1,2
9d0088d0:	3c0a0fff 	lui	t2,0xfff
9d0088d4:	354affff 	ori	t2,t2,0xffff
9d0088d8:	240b0010 	li	t3,16
9d0088dc:	0000a021 	move	s4,zero
9d0088e0:	0b4021bc 	j	9d0086f0 <strtoull+0xe4>
9d0088e4:	24120010 	li	s2,16
9d0088e8:	24020078 	li	v0,120
9d0088ec:	52020003 	beql	s0,v0,9d0088fc <strtoull+0x2f0>
9d0088f0:	82300002 	lb	s0,2(s1)
9d0088f4:	0b40222c 	j	9d0088b0 <strtoull+0x2a4>
9d0088f8:	26310001 	addiu	s1,s1,1
9d0088fc:	240dffff 	li	t5,-1
9d008900:	26310002 	addiu	s1,s1,2
9d008904:	3c0a0fff 	lui	t2,0xfff
9d008908:	354affff 	ori	t2,t2,0xffff
9d00890c:	240b0010 	li	t3,16
9d008910:	0b4021bc 	j	9d0086f0 <strtoull+0xe4>
9d008914:	0000a021 	move	s4,zero

Disassembly of section .text._strtostr:

9d008918 <_strtostr>:
9d008918:	27bdfec8 	addiu	sp,sp,-312
9d00891c:	afbf0134 	sw	ra,308(sp)
9d008920:	afbe0130 	sw	s8,304(sp)
9d008924:	afb7012c 	sw	s7,300(sp)
9d008928:	afb60128 	sw	s6,296(sp)
9d00892c:	afb50124 	sw	s5,292(sp)
9d008930:	afb40120 	sw	s4,288(sp)
9d008934:	afb3011c 	sw	s3,284(sp)
9d008938:	afb20118 	sw	s2,280(sp)
9d00893c:	afb10114 	sw	s1,276(sp)
9d008940:	afb00110 	sw	s0,272(sp)
9d008944:	00808021 	move	s0,a0
9d008948:	afa5013c 	sw	a1,316(sp)
9d00894c:	00c09821 	move	s3,a2
9d008950:	00e0b021 	move	s6,a3
9d008954:	24020002 	li	v0,2
9d008958:	10820056 	beq	a0,v0,9d008ab4 <_strtostr+0x19c>
9d00895c:	8fb20148 	lw	s2,328(sp)
9d008960:	32730001 	andi	s3,s3,0x1
9d008964:	16600005 	bnez	s3,9d00897c <_strtostr+0x64>
9d008968:	00000000 	nop
9d00896c:	8e42000c 	lw	v0,12(s2)
9d008970:	24430004 	addiu	v1,v0,4
9d008974:	ae43000c 	sw	v1,12(s2)
9d008978:	8c510000 	lw	s1,0(v0)
9d00897c:	12c00081 	beqz	s6,9d008b84 <_strtostr+0x26c>
9d008980:	02c0b821 	move	s7,s6
9d008984:	2414ffff 	li	s4,-1
9d008988:	24150001 	li	s5,1
9d00898c:	3c1e9d01 	lui	s8,0x9d01
9d008990:	27dea57d 	addiu	s8,s8,-23171
9d008994:	0f402ea1 	jal	9d00ba84 <gsgetc>
9d008998:	02402021 	move	a0,s2
9d00899c:	50540011 	beql	v0,s4,9d0089e4 <_strtostr+0xcc>
9d0089a0:	02e01821 	move	v1,s7
9d0089a4:	12150038 	beq	s0,s5,9d008a88 <_strtostr+0x170>
9d0089a8:	26e3ffff 	addiu	v1,s7,-1
9d0089ac:	24040002 	li	a0,2
9d0089b0:	1204002b 	beq	s0,a0,9d008a60 <_strtostr+0x148>
9d0089b4:	27a50010 	addiu	a1,sp,16
9d0089b8:	16600003 	bnez	s3,9d0089c8 <_strtostr+0xb0>
9d0089bc:	00000000 	nop
9d0089c0:	a2220000 	sb	v0,0(s1)
9d0089c4:	26310001 	addiu	s1,s1,1
9d0089c8:	10600006 	beqz	v1,9d0089e4 <_strtostr+0xcc>
9d0089cc:	0060b821 	move	s7,v1
9d0089d0:	0f402ea1 	jal	9d00ba84 <gsgetc>
9d0089d4:	02402021 	move	a0,s2
9d0089d8:	1454fff2 	bne	v0,s4,9d0089a4 <_strtostr+0x8c>
9d0089dc:	00000000 	nop
9d0089e0:	02e01821 	move	v1,s7
9d0089e4:	2402ffff 	li	v0,-1
9d0089e8:	8e440014 	lw	a0,20(s2)
9d0089ec:	24840001 	addiu	a0,a0,1
9d0089f0:	16600008 	bnez	s3,9d008a14 <_strtostr+0xfc>
9d0089f4:	ae440014 	sw	a0,20(s2)
9d0089f8:	24040001 	li	a0,1
9d0089fc:	8fa6013c 	lw	a2,316(sp)
9d008a00:	50c40001 	beql	a2,a0,9d008a08 <_strtostr+0xf0>
9d008a04:	a2200000 	sb	zero,0(s1)
9d008a08:	8e440018 	lw	a0,24(s2)
9d008a0c:	24840001 	addiu	a0,a0,1
9d008a10:	ae440018 	sw	a0,24(s2)
9d008a14:	14760005 	bne	v1,s6,9d008a2c <_strtostr+0x114>
9d008a18:	00002021 	move	a0,zero
9d008a1c:	2404ffff 	li	a0,-1
9d008a20:	00021027 	nor	v0,zero,v0
9d008a24:	24030001 	li	v1,1
9d008a28:	0062200b 	movn	a0,v1,v0
9d008a2c:	00801021 	move	v0,a0
9d008a30:	8fbf0134 	lw	ra,308(sp)
9d008a34:	8fbe0130 	lw	s8,304(sp)
9d008a38:	8fb7012c 	lw	s7,300(sp)
9d008a3c:	8fb60128 	lw	s6,296(sp)
9d008a40:	8fb50124 	lw	s5,292(sp)
9d008a44:	8fb40120 	lw	s4,288(sp)
9d008a48:	8fb3011c 	lw	s3,284(sp)
9d008a4c:	8fb20118 	lw	s2,280(sp)
9d008a50:	8fb10114 	lw	s1,276(sp)
9d008a54:	8fb00110 	lw	s0,272(sp)
9d008a58:	03e00008 	jr	ra
9d008a5c:	27bd0138 	addiu	sp,sp,312
9d008a60:	00a22021 	addu	a0,a1,v0
9d008a64:	80840000 	lb	a0,0(a0)
9d008a68:	1480ffd3 	bnez	a0,9d0089b8 <_strtostr+0xa0>
9d008a6c:	00000000 	nop
9d008a70:	8e440010 	lw	a0,16(s2)
9d008a74:	ae420004 	sw	v0,4(s2)
9d008a78:	02e01821 	move	v1,s7
9d008a7c:	2484ffff 	addiu	a0,a0,-1
9d008a80:	0b40227a 	j	9d0089e8 <_strtostr+0xd0>
9d008a84:	ae440010 	sw	a0,16(s2)
9d008a88:	005e2021 	addu	a0,v0,s8
9d008a8c:	80840000 	lb	a0,0(a0)
9d008a90:	30840088 	andi	a0,a0,0x88
9d008a94:	1080ffc8 	beqz	a0,9d0089b8 <_strtostr+0xa0>
9d008a98:	00000000 	nop
9d008a9c:	8e440010 	lw	a0,16(s2)
9d008aa0:	ae420004 	sw	v0,4(s2)
9d008aa4:	02e01821 	move	v1,s7
9d008aa8:	2484ffff 	addiu	a0,a0,-1
9d008aac:	0b40227a 	j	9d0089e8 <_strtostr+0xd0>
9d008ab0:	ae440010 	sw	a0,16(s2)
9d008ab4:	8e540008 	lw	s4,8(s2)
9d008ab8:	82830000 	lb	v1,0(s4)
9d008abc:	2402005e 	li	v0,94
9d008ac0:	50620032 	beql	v1,v0,9d008b8c <_strtostr+0x274>
9d008ac4:	26940001 	addiu	s4,s4,1
9d008ac8:	24150001 	li	s5,1
9d008acc:	00002821 	move	a1,zero
9d008ad0:	27a40010 	addiu	a0,sp,16
9d008ad4:	0f403041 	jal	9d00c104 <.LFE1>
9d008ad8:	24060100 	li	a2,256
9d008adc:	82830000 	lb	v1,0(s4)
9d008ae0:	2405ffff 	li	a1,-1
9d008ae4:	2409ffff 	li	t1,-1
9d008ae8:	240a002d 	li	t2,45
9d008aec:	2408005d 	li	t0,93
9d008af0:	0b4022c8 	j	9d008b20 <_strtostr+0x208>
9d008af4:	7c152420 	seb	a0,s5
9d008af8:	00602821 	move	a1,v1
9d008afc:	27a30010 	addiu	v1,sp,16
9d008b00:	00651021 	addu	v0,v1,a1
9d008b04:	a0550000 	sb	s5,0(v0)
9d008b08:	02801021 	move	v0,s4
9d008b0c:	24540001 	addiu	s4,v0,1
9d008b10:	ae540008 	sw	s4,8(s2)
9d008b14:	80430001 	lb	v1,1(v0)
9d008b18:	50680018 	beql	v1,t0,9d008b7c <_strtostr+0x264>
9d008b1c:	24420002 	addiu	v0,v0,2
9d008b20:	10a9fff5 	beq	a1,t1,9d008af8 <_strtostr+0x1e0>
9d008b24:	82870001 	lb	a3,1(s4)
9d008b28:	546afff4 	bnel	v1,t2,9d008afc <_strtostr+0x1e4>
9d008b2c:	00602821 	move	a1,v1
9d008b30:	10e8fff1 	beq	a3,t0,9d008af8 <_strtostr+0x1e0>
9d008b34:	24a20001 	addiu	v0,a1,1
9d008b38:	00e2282a 	slt	a1,a3,v0
9d008b3c:	27a30010 	addiu	v1,sp,16
9d008b40:	00621021 	addu	v0,v1,v0
9d008b44:	27a60011 	addiu	a2,sp,17
9d008b48:	14a00005 	bnez	a1,9d008b60 <_strtostr+0x248>
9d008b4c:	00c71821 	addu	v1,a2,a3
9d008b50:	a0440000 	sb	a0,0(v0)
9d008b54:	24420001 	addiu	v0,v0,1
9d008b58:	5443fffe 	bnel	v0,v1,9d008b54 <_strtostr+0x23c>
9d008b5c:	a0440000 	sb	a0,0(v0)
9d008b60:	26820001 	addiu	v0,s4,1
9d008b64:	24540001 	addiu	s4,v0,1
9d008b68:	ae540008 	sw	s4,8(s2)
9d008b6c:	80430001 	lb	v1,1(v0)
9d008b70:	1468ffeb 	bne	v1,t0,9d008b20 <_strtostr+0x208>
9d008b74:	2405ffff 	li	a1,-1
9d008b78:	24420002 	addiu	v0,v0,2
9d008b7c:	0b402258 	j	9d008960 <_strtostr+0x48>
9d008b80:	ae420008 	sw	v0,8(s2)
9d008b84:	0b402279 	j	9d0089e4 <_strtostr+0xcc>
9d008b88:	00001821 	move	v1,zero
9d008b8c:	ae540008 	sw	s4,8(s2)
9d008b90:	0000a821 	move	s5,zero
9d008b94:	0b4022b4 	j	9d008ad0 <_strtostr+0x1b8>
9d008b98:	24050001 	li	a1,1

Disassembly of section .text.free:

9d008b9c <free>:
9d008b9c:	10800076 	beqz	a0,9d008d78 <free+0x1dc>
9d008ba0:	2403fffe 	li	v1,-2
9d008ba4:	8c86fffc 	lw	a2,-4(a0)
9d008ba8:	2485fff8 	addiu	a1,a0,-8
9d008bac:	00c31824 	and	v1,a2,v1
9d008bb0:	00a31021 	addu	v0,a1,v1
9d008bb4:	8c470004 	lw	a3,4(v0)
9d008bb8:	30e80001 	andi	t0,a3,0x1
9d008bbc:	1100006e 	beqz	t0,9d008d78 <free+0x1dc>
9d008bc0:	240afffc 	li	t2,-4
9d008bc4:	3c08a000 	lui	t0,0xa000
9d008bc8:	250841fc 	addiu	t0,t0,16892
9d008bcc:	8d090008 	lw	t1,8(t0)
9d008bd0:	00ea3824 	and	a3,a3,t2
9d008bd4:	10490058 	beq	v0,t1,9d008d38 <free+0x19c>
9d008bd8:	30c60001 	andi	a2,a2,0x1
9d008bdc:	ac470004 	sw	a3,4(v0)
9d008be0:	14c0000c 	bnez	a2,9d008c14 <free+0x78>
9d008be4:	00004821 	move	t1,zero
9d008be8:	8c86fff8 	lw	a2,-8(a0)
9d008bec:	00a62823 	subu	a1,a1,a2
9d008bf0:	8ca40008 	lw	a0,8(a1)
9d008bf4:	00661821 	addu	v1,v1,a2
9d008bf8:	3c06a000 	lui	a2,0xa000
9d008bfc:	24c64204 	addiu	a2,a2,16900
9d008c00:	50860004 	beql	a0,a2,9d008c14 <free+0x78>
9d008c04:	24090001 	li	t1,1
9d008c08:	8ca6000c 	lw	a2,12(a1)
9d008c0c:	ac86000c 	sw	a2,12(a0)
9d008c10:	acc40008 	sw	a0,8(a2)
9d008c14:	00472021 	addu	a0,v0,a3
9d008c18:	8c840004 	lw	a0,4(a0)
9d008c1c:	30840001 	andi	a0,a0,0x1
9d008c20:	54800008 	bnezl	a0,9d008c44 <free+0xa8>
9d008c24:	34640001 	ori	a0,v1,0x1
9d008c28:	00671821 	addu	v1,v1,a3
9d008c2c:	11200027 	beqz	t1,9d008ccc <free+0x130>
9d008c30:	8c440008 	lw	a0,8(v0)
9d008c34:	8c42000c 	lw	v0,12(v0)
9d008c38:	ac82000c 	sw	v0,12(a0)
9d008c3c:	ac440008 	sw	a0,8(v0)
9d008c40:	34640001 	ori	a0,v1,0x1
9d008c44:	00a31021 	addu	v0,a1,v1
9d008c48:	aca40004 	sw	a0,4(a1)
9d008c4c:	1520004a 	bnez	t1,9d008d78 <free+0x1dc>
9d008c50:	ac430000 	sw	v1,0(v0)
9d008c54:	2c620200 	sltiu	v0,v1,512
9d008c58:	54400029 	bnezl	v0,9d008d00 <free+0x164>
9d008c5c:	000318c2 	srl	v1,v1,0x3
9d008c60:	00031242 	srl	v0,v1,0x9
9d008c64:	2c440005 	sltiu	a0,v0,5
9d008c68:	1080004d 	beqz	a0,9d008da0 <free+0x204>
9d008c6c:	2c440015 	sltiu	a0,v0,21
9d008c70:	00032182 	srl	a0,v1,0x6
9d008c74:	24840038 	addiu	a0,a0,56
9d008c78:	00043040 	sll	a2,a0,0x1
9d008c7c:	00063080 	sll	a2,a2,0x2
9d008c80:	01063021 	addu	a2,t0,a2
9d008c84:	8cc20008 	lw	v0,8(a2)
9d008c88:	5046004a 	beql	v0,a2,9d008db4 <free+0x218>
9d008c8c:	8d030004 	lw	v1,4(t0)
9d008c90:	2407fffc 	li	a3,-4
9d008c94:	8c440004 	lw	a0,4(v0)
9d008c98:	00872024 	and	a0,a0,a3
9d008c9c:	0064202b 	sltu	a0,v1,a0
9d008ca0:	50800005 	beqzl	a0,9d008cb8 <free+0x11c>
9d008ca4:	8c43000c 	lw	v1,12(v0)
9d008ca8:	8c420008 	lw	v0,8(v0)
9d008cac:	54c2fffa 	bnel	a2,v0,9d008c98 <free+0xfc>
9d008cb0:	8c440004 	lw	a0,4(v0)
9d008cb4:	8c43000c 	lw	v1,12(v0)
9d008cb8:	aca3000c 	sw	v1,12(a1)
9d008cbc:	aca20008 	sw	v0,8(a1)
9d008cc0:	ac650008 	sw	a1,8(v1)
9d008cc4:	03e00008 	jr	ra
9d008cc8:	ac45000c 	sw	a1,12(v0)
9d008ccc:	3c06a000 	lui	a2,0xa000
9d008cd0:	24c64204 	addiu	a2,a2,16900
9d008cd4:	5486ffd8 	bnel	a0,a2,9d008c38 <free+0x9c>
9d008cd8:	8c42000c 	lw	v0,12(v0)
9d008cdc:	34660001 	ori	a2,v1,0x1
9d008ce0:	00a31021 	addu	v0,a1,v1
9d008ce4:	ad050014 	sw	a1,20(t0)
9d008ce8:	ad050010 	sw	a1,16(t0)
9d008cec:	aca4000c 	sw	a0,12(a1)
9d008cf0:	aca40008 	sw	a0,8(a1)
9d008cf4:	aca60004 	sw	a2,4(a1)
9d008cf8:	03e00008 	jr	ra
9d008cfc:	ac430000 	sw	v1,0(v0)
9d008d00:	000310c0 	sll	v0,v1,0x3
9d008d04:	01021021 	addu	v0,t0,v0
9d008d08:	8d060004 	lw	a2,4(t0)
9d008d0c:	8c440008 	lw	a0,8(v0)
9d008d10:	00031883 	sra	v1,v1,0x2
9d008d14:	24070001 	li	a3,1
9d008d18:	00671804 	sllv	v1,a3,v1
9d008d1c:	00661825 	or	v1,v1,a2
9d008d20:	aca2000c 	sw	v0,12(a1)
9d008d24:	aca40008 	sw	a0,8(a1)
9d008d28:	ad030004 	sw	v1,4(t0)
9d008d2c:	ac450008 	sw	a1,8(v0)
9d008d30:	03e00008 	jr	ra
9d008d34:	ac85000c 	sw	a1,12(a0)
9d008d38:	14c00008 	bnez	a2,9d008d5c <free+0x1c0>
9d008d3c:	00e33821 	addu	a3,a3,v1
9d008d40:	8c84fff8 	lw	a0,-8(a0)
9d008d44:	00a42823 	subu	a1,a1,a0
9d008d48:	8ca2000c 	lw	v0,12(a1)
9d008d4c:	8ca30008 	lw	v1,8(a1)
9d008d50:	00e43821 	addu	a3,a3,a0
9d008d54:	ac62000c 	sw	v0,12(v1)
9d008d58:	ac430008 	sw	v1,8(v0)
9d008d5c:	3c02a000 	lui	v0,0xa000
9d008d60:	8c4241f8 	lw	v0,16888(v0)
9d008d64:	34e30001 	ori	v1,a3,0x1
9d008d68:	aca30004 	sw	v1,4(a1)
9d008d6c:	00e2382b 	sltu	a3,a3,v0
9d008d70:	10e00003 	beqz	a3,9d008d80 <free+0x1e4>
9d008d74:	ad050008 	sw	a1,8(t0)
9d008d78:	03e00008 	jr	ra
9d008d7c:	00000000 	nop
9d008d80:	27bdffe8 	addiu	sp,sp,-24
9d008d84:	afbf0014 	sw	ra,20(sp)
9d008d88:	3c02a000 	lui	v0,0xa000
9d008d8c:	0f40291d 	jal	9d00a474 <.LFE2>
9d008d90:	8c444790 	lw	a0,18320(v0)
9d008d94:	8fbf0014 	lw	ra,20(sp)
9d008d98:	03e00008 	jr	ra
9d008d9c:	27bd0018 	addiu	sp,sp,24
9d008da0:	5080000b 	beqzl	a0,9d008dd0 <free+0x234>
9d008da4:	2c440055 	sltiu	a0,v0,85
9d008da8:	2444005b 	addiu	a0,v0,91
9d008dac:	0b40231f 	j	9d008c7c <free+0xe0>
9d008db0:	00043040 	sll	a2,a0,0x1
9d008db4:	00042083 	sra	a0,a0,0x2
9d008db8:	24060001 	li	a2,1
9d008dbc:	00862004 	sllv	a0,a2,a0
9d008dc0:	00831825 	or	v1,a0,v1
9d008dc4:	ad030004 	sw	v1,4(t0)
9d008dc8:	0b40232e 	j	9d008cb8 <free+0x11c>
9d008dcc:	00401821 	move	v1,v0
9d008dd0:	50800005 	beqzl	a0,9d008de8 <free+0x24c>
9d008dd4:	2c440155 	sltiu	a0,v0,341
9d008dd8:	00032302 	srl	a0,v1,0xc
9d008ddc:	2484006e 	addiu	a0,a0,110
9d008de0:	0b40231f 	j	9d008c7c <free+0xe0>
9d008de4:	00043040 	sll	a2,a0,0x1
9d008de8:	10800005 	beqz	a0,9d008e00 <free+0x264>
9d008dec:	2c420555 	sltiu	v0,v0,1365
9d008df0:	000323c2 	srl	a0,v1,0xf
9d008df4:	24840077 	addiu	a0,a0,119
9d008df8:	0b40231f 	j	9d008c7c <free+0xe0>
9d008dfc:	00043040 	sll	a2,a0,0x1
9d008e00:	50400005 	beqzl	v0,9d008e18 <free+0x27c>
9d008e04:	240600fc 	li	a2,252
9d008e08:	00032482 	srl	a0,v1,0x12
9d008e0c:	2484007c 	addiu	a0,a0,124
9d008e10:	0b40231f 	j	9d008c7c <free+0xe0>
9d008e14:	00043040 	sll	a2,a0,0x1
9d008e18:	0b40231f 	j	9d008c7c <free+0xe0>
9d008e1c:	2404007e 	li	a0,126

Disassembly of section .text.strtoul:

9d008e20 <strtoul>:
9d008e20:	80820000 	lb	v0,0(a0)
9d008e24:	10400089 	beqz	v0,9d00904c <strtoul+0x22c>
9d008e28:	00001821 	move	v1,zero
9d008e2c:	3c089d01 	lui	t0,0x9d01
9d008e30:	2508a57d 	addiu	t0,t0,-23171
9d008e34:	01021821 	addu	v1,t0,v0
9d008e38:	80630000 	lb	v1,0(v1)
9d008e3c:	30630088 	andi	v1,v1,0x88
9d008e40:	14600007 	bnez	v1,9d008e60 <strtoul+0x40>
9d008e44:	00803821 	move	a3,a0
9d008e48:	0b4023ec 	j	9d008fb0 <strtoul+0x190>
9d008e4c:	2403002b 	li	v1,43
9d008e50:	80630000 	lb	v1,0(v1)
9d008e54:	30630088 	andi	v1,v1,0x88
9d008e58:	50600055 	beqzl	v1,9d008fb0 <strtoul+0x190>
9d008e5c:	2403002b 	li	v1,43
9d008e60:	24e70001 	addiu	a3,a3,1
9d008e64:	80e20000 	lb	v0,0(a3)
9d008e68:	1440fff9 	bnez	v0,9d008e50 <strtoul+0x30>
9d008e6c:	01021821 	addu	v1,t0,v0
9d008e70:	00001821 	move	v1,zero
9d008e74:	0000c021 	move	t8,zero
9d008e78:	14c00041 	bnez	a2,9d008f80 <strtoul+0x160>
9d008e7c:	24020010 	li	v0,16
9d008e80:	24020030 	li	v0,48
9d008e84:	1062005d 	beq	v1,v0,9d008ffc <strtoul+0x1dc>
9d008e88:	3c0d1999 	lui	t5,0x1999
9d008e8c:	35ad9999 	ori	t5,t5,0x9999
9d008e90:	240f000a 	li	t7,10
9d008e94:	00005821 	move	t3,zero
9d008e98:	2406000a 	li	a2,10
9d008e9c:	24e7ffff 	addiu	a3,a3,-1
9d008ea0:	00005021 	move	t2,zero
9d008ea4:	00001021 	move	v0,zero
9d008ea8:	3c0c9d01 	lui	t4,0x9d01
9d008eac:	258ca57d 	addiu	t4,t4,-23171
9d008eb0:	24190061 	li	t9,97
9d008eb4:	240e0041 	li	t6,65
9d008eb8:	10600019 	beqz	v1,9d008f20 <strtoul+0x100>
9d008ebc:	24e70001 	addiu	a3,a3,1
9d008ec0:	006c4021 	addu	t0,v1,t4
9d008ec4:	91080000 	lbu	t0,0(t0)
9d008ec8:	31090004 	andi	t1,t0,0x4
9d008ecc:	11200023 	beqz	t1,9d008f5c <strtoul+0x13c>
9d008ed0:	31090003 	andi	t1,t0,0x3
9d008ed4:	2463ffd0 	addiu	v1,v1,-48
9d008ed8:	04600011 	bltz	v1,9d008f20 <strtoul+0x100>
9d008edc:	0066402a 	slt	t0,v1,a2
9d008ee0:	1100000f 	beqz	t0,9d008f20 <strtoul+0x100>
9d008ee4:	01a2402b 	sltu	t0,t5,v0
9d008ee8:	55000019 	bnezl	t0,9d008f50 <strtoul+0x130>
9d008eec:	240a0001 	li	t2,1
9d008ef0:	55400008 	bnezl	t2,9d008f14 <strtoul+0xf4>
9d008ef4:	80e30001 	lb	v1,1(a3)
9d008ef8:	704f1002 	mul	v0,v0,t7
9d008efc:	00024027 	nor	t0,zero,v0
9d008f00:	0103402b 	sltu	t0,t0,v1
9d008f04:	55000012 	bnezl	t0,9d008f50 <strtoul+0x130>
9d008f08:	240a0001 	li	t2,1
9d008f0c:	00431021 	addu	v0,v0,v1
9d008f10:	80e30001 	lb	v1,1(a3)
9d008f14:	240b0001 	li	t3,1
9d008f18:	1460ffe9 	bnez	v1,9d008ec0 <strtoul+0xa0>
9d008f1c:	24e70001 	addiu	a3,a3,1
9d008f20:	1300001f 	beqz	t8,9d008fa0 <strtoul+0x180>
9d008f24:	00000000 	nop
9d008f28:	11400005 	beqz	t2,9d008f40 <strtoul+0x120>
9d008f2c:	00021023 	negu	v0,v0
9d008f30:	24030022 	li	v1,34
9d008f34:	3c02a000 	lui	v0,0xa000
9d008f38:	ac430050 	sw	v1,80(v0)
9d008f3c:	2402ffff 	li	v0,-1
9d008f40:	10a0000d 	beqz	a1,9d008f78 <strtoul+0x158>
9d008f44:	008b380a 	movz	a3,a0,t3
9d008f48:	03e00008 	jr	ra
9d008f4c:	aca70000 	sw	a3,0(a1)
9d008f50:	80e30001 	lb	v1,1(a3)
9d008f54:	0b4023c6 	j	9d008f18 <strtoul+0xf8>
9d008f58:	240b0001 	li	t3,1
9d008f5c:	1120fff0 	beqz	t1,9d008f20 <strtoul+0x100>
9d008f60:	31080001 	andi	t0,t0,0x1
9d008f64:	01c04821 	move	t1,t6
9d008f68:	0328480a 	movz	t1,t9,t0
9d008f6c:	00691823 	subu	v1,v1,t1
9d008f70:	0b4023b6 	j	9d008ed8 <strtoul+0xb8>
9d008f74:	2463000a 	addiu	v1,v1,10
9d008f78:	03e00008 	jr	ra
9d008f7c:	00000000 	nop
9d008f80:	10c20017 	beq	a2,v0,9d008fe0 <strtoul+0x1c0>
9d008f84:	240dffff 	li	t5,-1
9d008f88:	00c07821 	move	t7,a2
9d008f8c:	01a6001b 	divu	zero,t5,a2
9d008f90:	00c001f4 	teq	a2,zero,0x7
9d008f94:	00006812 	mflo	t5
9d008f98:	0b4023a7 	j	9d008e9c <strtoul+0x7c>
9d008f9c:	00005821 	move	t3,zero
9d008fa0:	1540ffe4 	bnez	t2,9d008f34 <strtoul+0x114>
9d008fa4:	24030022 	li	v1,34
9d008fa8:	0b4023d0 	j	9d008f40 <strtoul+0x120>
9d008fac:	00000000 	nop
9d008fb0:	54430006 	bnel	v0,v1,9d008fcc <strtoul+0x1ac>
9d008fb4:	2403002d 	li	v1,45
9d008fb8:	3842002d 	xori	v0,v0,0x2d
9d008fbc:	80e30001 	lb	v1,1(a3)
9d008fc0:	2c580001 	sltiu	t8,v0,1
9d008fc4:	0b40239e 	j	9d008e78 <strtoul+0x58>
9d008fc8:	24e70001 	addiu	a3,a3,1
9d008fcc:	5043fffb 	beql	v0,v1,9d008fbc <strtoul+0x19c>
9d008fd0:	3842002d 	xori	v0,v0,0x2d
9d008fd4:	80e30000 	lb	v1,0(a3)
9d008fd8:	0b40239e 	j	9d008e78 <strtoul+0x58>
9d008fdc:	0000c021 	move	t8,zero
9d008fe0:	24020030 	li	v0,48
9d008fe4:	1062001c 	beq	v1,v0,9d009058 <strtoul+0x238>
9d008fe8:	3c0d0fff 	lui	t5,0xfff
9d008fec:	35adffff 	ori	t5,t5,0xffff
9d008ff0:	240f0010 	li	t7,16
9d008ff4:	0b4023a7 	j	9d008e9c <strtoul+0x7c>
9d008ff8:	00005821 	move	t3,zero
9d008ffc:	80e30001 	lb	v1,1(a3)
9d009000:	2406ffdf 	li	a2,-33
9d009004:	00663024 	and	a2,v1,a2
9d009008:	24020058 	li	v0,88
9d00900c:	50c20008 	beql	a2,v0,9d009030 <strtoul+0x210>
9d009010:	80e30002 	lb	v1,2(a3)
9d009014:	24e70001 	addiu	a3,a3,1
9d009018:	3c0d1fff 	lui	t5,0x1fff
9d00901c:	35adffff 	ori	t5,t5,0xffff
9d009020:	240f0008 	li	t7,8
9d009024:	240b0001 	li	t3,1
9d009028:	0b4023a7 	j	9d008e9c <strtoul+0x7c>
9d00902c:	24060008 	li	a2,8
9d009030:	3c0d0fff 	lui	t5,0xfff
9d009034:	35adffff 	ori	t5,t5,0xffff
9d009038:	24e70002 	addiu	a3,a3,2
9d00903c:	240f0010 	li	t7,16
9d009040:	240b0001 	li	t3,1
9d009044:	0b4023a7 	j	9d008e9c <strtoul+0x7c>
9d009048:	24060010 	li	a2,16
9d00904c:	00803821 	move	a3,a0
9d009050:	0b40239e 	j	9d008e78 <strtoul+0x58>
9d009054:	0000c021 	move	t8,zero
9d009058:	80e30001 	lb	v1,1(a3)
9d00905c:	2408ffdf 	li	t0,-33
9d009060:	00684024 	and	t0,v1,t0
9d009064:	24020058 	li	v0,88
9d009068:	51020007 	beql	t0,v0,9d009088 <strtoul+0x268>
9d00906c:	80e30002 	lb	v1,2(a3)
9d009070:	24e70001 	addiu	a3,a3,1
9d009074:	3c0d0fff 	lui	t5,0xfff
9d009078:	35adffff 	ori	t5,t5,0xffff
9d00907c:	240f0010 	li	t7,16
9d009080:	0b4023a7 	j	9d008e9c <strtoul+0x7c>
9d009084:	240b0001 	li	t3,1
9d009088:	3c0d0fff 	lui	t5,0xfff
9d00908c:	35adffff 	ori	t5,t5,0xffff
9d009090:	24e70002 	addiu	a3,a3,2
9d009094:	240f0010 	li	t7,16
9d009098:	0b4023a7 	j	9d008e9c <strtoul+0x7c>
9d00909c:	240b0001 	li	t3,1

Disassembly of section .text.strtol:

9d0090a0 <strtol>:
9d0090a0:	80820000 	lb	v0,0(a0)
9d0090a4:	1040008a 	beqz	v0,9d0092d0 <strtol+0x230>
9d0090a8:	00001821 	move	v1,zero
9d0090ac:	3c089d01 	lui	t0,0x9d01
9d0090b0:	2508a57d 	addiu	t0,t0,-23171
9d0090b4:	01021821 	addu	v1,t0,v0
9d0090b8:	80630000 	lb	v1,0(v1)
9d0090bc:	30630088 	andi	v1,v1,0x88
9d0090c0:	14600007 	bnez	v1,9d0090e0 <strtol+0x40>
9d0090c4:	00803821 	move	a3,a0
9d0090c8:	0b402490 	j	9d009240 <strtol+0x1a0>
9d0090cc:	2403002b 	li	v1,43
9d0090d0:	80630000 	lb	v1,0(v1)
9d0090d4:	30630088 	andi	v1,v1,0x88
9d0090d8:	50600059 	beqzl	v1,9d009240 <strtol+0x1a0>
9d0090dc:	2403002b 	li	v1,43
9d0090e0:	24e70001 	addiu	a3,a3,1
9d0090e4:	80e20000 	lb	v0,0(a3)
9d0090e8:	1440fff9 	bnez	v0,9d0090d0 <strtol+0x30>
9d0090ec:	01021821 	addu	v1,t0,v0
9d0090f0:	00001821 	move	v1,zero
9d0090f4:	0000c021 	move	t8,zero
9d0090f8:	14c00042 	bnez	a2,9d009204 <strtol+0x164>
9d0090fc:	24020010 	li	v0,16
9d009100:	24020030 	li	v0,48
9d009104:	10620060 	beq	v1,v0,9d009288 <strtol+0x1e8>
9d009108:	3c0d0ccc 	lui	t5,0xccc
9d00910c:	35adcccc 	ori	t5,t5,0xcccc
9d009110:	00005821 	move	t3,zero
9d009114:	2406000a 	li	a2,10
9d009118:	24e7ffff 	addiu	a3,a3,-1
9d00911c:	00005021 	move	t2,zero
9d009120:	00001021 	move	v0,zero
9d009124:	3c0c9d01 	lui	t4,0x9d01
9d009128:	258ca57d 	addiu	t4,t4,-23171
9d00912c:	240f0061 	li	t7,97
9d009130:	240e0041 	li	t6,65
9d009134:	3c197fff 	lui	t9,0x7fff
9d009138:	3739ffff 	ori	t9,t9,0xffff
9d00913c:	10600019 	beqz	v1,9d0091a4 <strtol+0x104>
9d009140:	24e70001 	addiu	a3,a3,1
9d009144:	006c4021 	addu	t0,v1,t4
9d009148:	91080000 	lbu	t0,0(t0)
9d00914c:	31090004 	andi	t1,t0,0x4
9d009150:	11200023 	beqz	t1,9d0091e0 <strtol+0x140>
9d009154:	31090003 	andi	t1,t0,0x3
9d009158:	2463ffd0 	addiu	v1,v1,-48
9d00915c:	04600011 	bltz	v1,9d0091a4 <strtol+0x104>
9d009160:	0066402a 	slt	t0,v1,a2
9d009164:	1100000f 	beqz	t0,9d0091a4 <strtol+0x104>
9d009168:	01a2402a 	slt	t0,t5,v0
9d00916c:	55000019 	bnezl	t0,9d0091d4 <strtol+0x134>
9d009170:	240a0001 	li	t2,1
9d009174:	55400017 	bnezl	t2,9d0091d4 <strtol+0x134>
9d009178:	240a0001 	li	t2,1
9d00917c:	70461002 	mul	v0,v0,a2
9d009180:	03224023 	subu	t0,t9,v0
9d009184:	0103402a 	slt	t0,t0,v1
9d009188:	55000012 	bnezl	t0,9d0091d4 <strtol+0x134>
9d00918c:	240a0001 	li	t2,1
9d009190:	00431021 	addu	v0,v0,v1
9d009194:	80e30001 	lb	v1,1(a3)
9d009198:	240b0001 	li	t3,1
9d00919c:	1460ffe9 	bnez	v1,9d009144 <strtol+0xa4>
9d0091a0:	24e70001 	addiu	a3,a3,1
9d0091a4:	1300001f 	beqz	t8,9d009224 <strtol+0x184>
9d0091a8:	00000000 	nop
9d0091ac:	11400005 	beqz	t2,9d0091c4 <strtol+0x124>
9d0091b0:	00021023 	negu	v0,v0
9d0091b4:	24030022 	li	v1,34
9d0091b8:	3c02a000 	lui	v0,0xa000
9d0091bc:	ac430050 	sw	v1,80(v0)
9d0091c0:	3c028000 	lui	v0,0x8000
9d0091c4:	10a0000d 	beqz	a1,9d0091fc <strtol+0x15c>
9d0091c8:	008b380a 	movz	a3,a0,t3
9d0091cc:	03e00008 	jr	ra
9d0091d0:	aca70000 	sw	a3,0(a1)
9d0091d4:	80e30001 	lb	v1,1(a3)
9d0091d8:	0b402467 	j	9d00919c <strtol+0xfc>
9d0091dc:	240b0001 	li	t3,1
9d0091e0:	1120fff0 	beqz	t1,9d0091a4 <strtol+0x104>
9d0091e4:	31080001 	andi	t0,t0,0x1
9d0091e8:	01c04821 	move	t1,t6
9d0091ec:	01e8480a 	movz	t1,t7,t0
9d0091f0:	00691823 	subu	v1,v1,t1
9d0091f4:	0b402457 	j	9d00915c <strtol+0xbc>
9d0091f8:	2463000a 	addiu	v1,v1,10
9d0091fc:	03e00008 	jr	ra
9d009200:	00000000 	nop
9d009204:	10c2001a 	beq	a2,v0,9d009270 <strtol+0x1d0>
9d009208:	3c0d7fff 	lui	t5,0x7fff
9d00920c:	35adffff 	ori	t5,t5,0xffff
9d009210:	01a6001a 	div	zero,t5,a2
9d009214:	00c001f4 	teq	a2,zero,0x7
9d009218:	00006812 	mflo	t5
9d00921c:	0b402446 	j	9d009118 <strtol+0x78>
9d009220:	00005821 	move	t3,zero
9d009224:	1140ffe7 	beqz	t2,9d0091c4 <strtol+0x124>
9d009228:	24030022 	li	v1,34
9d00922c:	3c02a000 	lui	v0,0xa000
9d009230:	ac430050 	sw	v1,80(v0)
9d009234:	3c027fff 	lui	v0,0x7fff
9d009238:	0b402471 	j	9d0091c4 <strtol+0x124>
9d00923c:	3442ffff 	ori	v0,v0,0xffff
9d009240:	54430006 	bnel	v0,v1,9d00925c <strtol+0x1bc>
9d009244:	2403002d 	li	v1,45
9d009248:	3842002d 	xori	v0,v0,0x2d
9d00924c:	80e30001 	lb	v1,1(a3)
9d009250:	2c580001 	sltiu	t8,v0,1
9d009254:	0b40243e 	j	9d0090f8 <strtol+0x58>
9d009258:	24e70001 	addiu	a3,a3,1
9d00925c:	5043fffb 	beql	v0,v1,9d00924c <strtol+0x1ac>
9d009260:	3842002d 	xori	v0,v0,0x2d
9d009264:	80e30000 	lb	v1,0(a3)
9d009268:	0b40243e 	j	9d0090f8 <strtol+0x58>
9d00926c:	0000c021 	move	t8,zero
9d009270:	24020030 	li	v0,48
9d009274:	10620019 	beq	v1,v0,9d0092dc <strtol+0x23c>
9d009278:	3c0d07ff 	lui	t5,0x7ff
9d00927c:	35adffff 	ori	t5,t5,0xffff
9d009280:	0b402446 	j	9d009118 <strtol+0x78>
9d009284:	00005821 	move	t3,zero
9d009288:	80e30001 	lb	v1,1(a3)
9d00928c:	2406ffdf 	li	a2,-33
9d009290:	00663024 	and	a2,v1,a2
9d009294:	24020058 	li	v0,88
9d009298:	50c20007 	beql	a2,v0,9d0092b8 <strtol+0x218>
9d00929c:	80e30002 	lb	v1,2(a3)
9d0092a0:	24e70001 	addiu	a3,a3,1
9d0092a4:	3c0d0fff 	lui	t5,0xfff
9d0092a8:	35adffff 	ori	t5,t5,0xffff
9d0092ac:	240b0001 	li	t3,1
9d0092b0:	0b402446 	j	9d009118 <strtol+0x78>
9d0092b4:	24060008 	li	a2,8
9d0092b8:	3c0d07ff 	lui	t5,0x7ff
9d0092bc:	35adffff 	ori	t5,t5,0xffff
9d0092c0:	24e70002 	addiu	a3,a3,2
9d0092c4:	240b0001 	li	t3,1
9d0092c8:	0b402446 	j	9d009118 <strtol+0x78>
9d0092cc:	24060010 	li	a2,16
9d0092d0:	00803821 	move	a3,a0
9d0092d4:	0b40243e 	j	9d0090f8 <strtol+0x58>
9d0092d8:	0000c021 	move	t8,zero
9d0092dc:	80e30001 	lb	v1,1(a3)
9d0092e0:	2408ffdf 	li	t0,-33
9d0092e4:	00684024 	and	t0,v1,t0
9d0092e8:	24020058 	li	v0,88
9d0092ec:	51020006 	beql	t0,v0,9d009308 <strtol+0x268>
9d0092f0:	80e30002 	lb	v1,2(a3)
9d0092f4:	24e70001 	addiu	a3,a3,1
9d0092f8:	3c0d07ff 	lui	t5,0x7ff
9d0092fc:	35adffff 	ori	t5,t5,0xffff
9d009300:	0b402446 	j	9d009118 <strtol+0x78>
9d009304:	240b0001 	li	t3,1
9d009308:	3c0d07ff 	lui	t5,0x7ff
9d00930c:	35adffff 	ori	t5,t5,0xffff
9d009310:	24e70002 	addiu	a3,a3,2
9d009314:	0b402446 	j	9d009118 <strtol+0x78>
9d009318:	240b0001 	li	t3,1

Disassembly of section .text.fpsubadd:

9d00931c <__subsf3>:
9d00931c:	3c018000 00a12826                       ...<&(..

9d009324 <__addsf3>:
9d009324:	00044dc2 312900ff 00055dc2 316b00ff     .M....)1.]....k1
9d009334:	3c078000 00044200 01074025 00055200     ...<.B..%@...R..
9d009344:	01475025 252dffff 2da100fe 10200061     %PG...-%...-a. .
9d009354:	00000000                                ....

9d009358 <Blab1>:
9d009358:	256dffff 	addiu	t5,t3,-1
9d00935c:	2da100fe 	sltiu	at,t5,254
9d009360:	10200077 	beqz	at,9d009540 <BspecB>
9d009364:	00000000 	nop

9d009368 <Blab2>:
9d009368:	012b6023 	subu	t4,t1,t3
9d00936c:	0580000d 	bltz	t4,9d0093a4 <i1>
9d009370:	00000000 	nop
9d009374:	29810020 	slti	at,t4,32
9d009378:	14200003 	bnez	at,9d009388 <i2>
9d00937c:	00000000 	nop
9d009380:	10000015 	b	9d0093d8 <e1>
9d009384:	240a0002 	li	t2,2

9d009388 <i2>:
9d009388:	000a3025 	or	a2,zero,t2
9d00938c:	018a5006 	srlv	t2,t2,t4
9d009390:	018a6804 	sllv	t5,t2,t4
9d009394:	11a60010 	beq	t5,a2,9d0093d8 <e1>
9d009398:	00000000 	nop
9d00939c:	1000000e 	b	9d0093d8 <e1>
9d0093a0:	354a0002 	ori	t2,t2,0x2

9d0093a4 <i1>:
9d0093a4:	000b4825 	or	t1,zero,t3
9d0093a8:	000c6023 	negu	t4,t4
9d0093ac:	29810020 	slti	at,t4,32
9d0093b0:	14200003 	bnez	at,9d0093c0 <i4>
9d0093b4:	00000000 	nop
9d0093b8:	10000007 	b	9d0093d8 <e1>
9d0093bc:	24080002 	li	t0,2

9d0093c0 <i4>:
9d0093c0:	00083025 	or	a2,zero,t0
9d0093c4:	01884006 	srlv	t0,t0,t4
9d0093c8:	01886804 	sllv	t5,t0,t4
9d0093cc:	11a60002 	beq	t5,a2,9d0093d8 <e1>
9d0093d0:	00000000 	nop
9d0093d4:	35080002 	ori	t0,t0,0x2

9d0093d8 <e1>:
9d0093d8:	00876024 	and	t4,a0,a3
9d0093dc:	01856826 	xor	t5,t4,a1
9d0093e0:	05a00010 	bltz	t5,9d009424 <Bsub1>
9d0093e4:	00000000 	nop
9d0093e8:	010a4021 	addu	t0,t0,t2
9d0093ec:	010a682b 	sltu	t5,t0,t2
9d0093f0:	11a00017 	beqz	t5,9d009450 <Bres>
9d0093f4:	00000000 	nop
9d0093f8:	310d0001 	andi	t5,t0,0x1
9d0093fc:	11a00002 	beqz	t5,9d009408 <i7>
9d009400:	00000000 	nop
9d009404:	35080002 	ori	t0,t0,0x2

9d009408 <i7>:
9d009408:	00084042 	srl	t0,t0,0x1
9d00940c:	25290001 	addiu	t1,t1,1
9d009410:	240100ff 	li	at,255
9d009414:	1521000e 	bne	t1,at,9d009450 <Bres>
9d009418:	00000000 	nop
9d00941c:	1000000c 	b	9d009450 <Bres>
9d009420:	24080000 	li	t0,0

9d009424 <Bsub1>:
9d009424:	010a682b 	sltu	t5,t0,t2
9d009428:	11a00004 	beqz	t5,9d00943c <i9>
9d00942c:	010a4023 	subu	t0,t0,t2
9d009430:	00084023 	negu	t0,t0
9d009434:	10000003 	b	9d009444 <e9>
9d009438:	01876026 	xor	t4,t4,a3

9d00943c <i9>:
9d00943c:	11000050 	beqz	t0,9d009580 <Bzer>
9d009440:	00000000 	nop

9d009444 <e9>:
9d009444:	71063020 	clz	a2,t0
9d009448:	01264823 	subu	t1,t1,a2
9d00944c:	00c84004 	sllv	t0,t0,a2

9d009450 <Bres>:
9d009450:	1920000e 	blez	t1,9d00948c <Bund>
9d009454:	00000000 	nop

9d009458 <Blab12>:
9d009458:	25080080 	addiu	t0,t0,128
9d00945c:	2d0d0080 	sltiu	t5,t0,128
9d009460:	012d4821 	addu	t1,t1,t5
9d009464:	00086a02 	srl	t5,t0,0x8
9d009468:	31ad0001 	andi	t5,t5,0x1
9d00946c:	010d4023 	subu	t0,t0,t5
9d009470:	00084040 	sll	t0,t0,0x1
9d009474:	00084242 	srl	t0,t0,0x9
9d009478:	00096dc0 	sll	t5,t1,0x17
9d00947c:	010d4025 	or	t0,t0,t5
9d009480:	010c1025 	or	v0,t0,t4

9d009484 <B999>:
9d009484:	03e00008 	jr	ra
9d009488:	00000000 	nop

9d00948c <Bund>:
9d00948c:	24060001 	li	a2,1
9d009490:	00c93023 	subu	a2,a2,t1
9d009494:	2cc10020 	sltiu	at,a2,32
9d009498:	10200039 	beqz	at,9d009580 <Bzer>
9d00949c:	00000000 	nop
9d0094a0:	3c018000 	lui	at,0x8000
9d0094a4:	01014025 	or	t0,t0,at
9d0094a8:	240d0020 	li	t5,32
9d0094ac:	01a66823 	subu	t5,t5,a2
9d0094b0:	01a84804 	sllv	t1,t0,t5
9d0094b4:	11200002 	beqz	t1,9d0094c0 <i10>
9d0094b8:	00c84006 	srlv	t0,t0,a2
9d0094bc:	35080001 	ori	t0,t0,0x1

9d0094c0 <i10>:
9d0094c0:	24090000 	li	t1,0
9d0094c4:	250d0080 	addiu	t5,t0,128
9d0094c8:	05a1ffe3 	bgez	t5,9d009458 <Blab12>
9d0094cc:	00000000 	nop
9d0094d0:	1000ffe1 	b	9d009458 <Blab12>
9d0094d4:	24090001 	li	t1,1

9d0094d8 <BspecA>:
9d0094d8:	1520000e 	bnez	t1,9d009514 <i12>
9d0094dc:	00000000 	nop
9d0094e0:	01084021 	addu	t0,t0,t0
9d0094e4:	11000005 	beqz	t0,9d0094fc <i13>
9d0094e8:	00000000 	nop
9d0094ec:	710c6020 	clz	t4,t0
9d0094f0:	012c4823 	subu	t1,t1,t4
9d0094f4:	1000ff98 	b	9d009358 <Blab1>
9d0094f8:	01884004 	sllv	t0,t0,t4

9d0094fc <i13>:
9d0094fc:	240100ff 	li	at,255
9d009500:	1161000f 	beq	t3,at,9d009540 <BspecB>
9d009504:	00000000 	nop
9d009508:	3c018000 	lui	at,0x8000
9d00950c:	14a10018 	bne	a1,at,9d009570 <BretB>
9d009510:	00000000 	nop

9d009514 <i12>:
9d009514:	01086821 	addu	t5,t0,t0
9d009518:	15a0001b 	bnez	t5,9d009588 <Bnan>
9d00951c:	00000000 	nop
9d009520:	240100ff 	li	at,255
9d009524:	15610014 	bne	t3,at,9d009578 <BretA>
9d009528:	00000000 	nop
9d00952c:	00856826 	xor	t5,a0,a1
9d009530:	05a00015 	bltz	t5,9d009588 <Bnan>
9d009534:	00000000 	nop
9d009538:	1000000d 	b	9d009570 <BretB>
9d00953c:	00000000 	nop

9d009540 <BspecB>:
9d009540:	15600008 	bnez	t3,9d009564 <i15>
9d009544:	00000000 	nop
9d009548:	014a5021 	addu	t2,t2,t2
9d00954c:	1140000a 	beqz	t2,9d009578 <BretA>
9d009550:	00000000 	nop
9d009554:	714c6020 	clz	t4,t2
9d009558:	016c5823 	subu	t3,t3,t4
9d00955c:	1000ff82 	b	9d009368 <Blab2>
9d009560:	018a5004 	sllv	t2,t2,t4

9d009564 <i15>:
9d009564:	014a6821 	addu	t5,t2,t2
9d009568:	15a00007 	bnez	t5,9d009588 <Bnan>
9d00956c:	00000000 	nop

9d009570 <BretB>:
9d009570:	1000ffc4 	b	9d009484 <B999>
9d009574:	00051025 	or	v0,zero,a1

9d009578 <BretA>:
9d009578:	1000ffc2 	b	9d009484 <B999>
9d00957c:	00041025 	or	v0,zero,a0

9d009580 <Bzer>:
9d009580:	1000ffc0 	b	9d009484 <B999>
9d009584:	24020000 	li	v0,0

9d009588 <Bnan>:
9d009588:	1000ffbe 	b	9d009484 <B999>
9d00958c:	3c02ffc0 	lui	v0,0xffc0
9d009590:	00000000 	nop

Disassembly of section .text.fp32div:

9d009594 <__divsf3>:
9d009594:	3c0b8000 000445c2 310800ff 000555c2     ...<.E.....1.U..
9d0095a4:	314a00ff 00043a00 00eb3825 00054a00     ..J1.:..%8...J..
9d0095b4:	012b4825 00857026 016e5824 250effff     %H+.&p..$Xn....%
9d0095c4:	2dc100fe 1020003f 00000000              ...-?. .....

9d0095d0 <Dlab1>:
9d0095d0:	254effff 	addiu	t6,t2,-1
9d0095d4:	2dc100fe 	sltiu	at,t6,254
9d0095d8:	10200053 	beqz	at,9d009728 <DspecB>
9d0095dc:	00000000 	nop

9d0095e0 <Dlab2>:
9d0095e0:	00e9082b 	sltu	at,a3,t1
9d0095e4:	14200003 	bnez	at,9d0095f4 <i27>
9d0095e8:	00000000 	nop
9d0095ec:	00073842 	srl	a3,a3,0x1
9d0095f0:	25080001 	addiu	t0,t0,1

9d0095f4 <i27>:
9d0095f4:	00096382 	srl	t4,t1,0xe
9d0095f8:	018001f4 	teq	t4,zero,0x7
9d0095fc:	00ec001b 	divu	zero,a3,t4
9d009600:	00002012 	mflo	a0
9d009604:	00003010 	mfhi	a2
9d009608:	312d3fff 	andi	t5,t1,0x3fff
9d00960c:	01a40019 	multu	t5,a0
9d009610:	00002812 	mflo	a1
9d009614:	00063380 	sll	a2,a2,0xe
9d009618:	00c5702b 	sltu	t6,a2,a1
9d00961c:	11c00004 	beqz	t6,9d009630 <i28>
9d009620:	00c53023 	subu	a2,a2,a1
9d009624:	2484ffff 	addiu	a0,a0,-1
9d009628:	00c93021 	addu	a2,a2,t1
9d00962c:	00c9702b 	sltu	t6,a2,t1

9d009630 <i28>:
9d009630:	018001f4 	teq	t4,zero,0x7
9d009634:	00cc001b 	divu	zero,a2,t4
9d009638:	00003812 	mflo	a3
9d00963c:	00003010 	mfhi	a2
9d009640:	01a70019 	multu	t5,a3
9d009644:	00002812 	mflo	a1
9d009648:	00063380 	sll	a2,a2,0xe
9d00964c:	00c5702b 	sltu	t6,a2,a1
9d009650:	11c00004 	beqz	t6,9d009664 <i29>
9d009654:	00c53023 	subu	a2,a2,a1
9d009658:	24e7ffff 	addiu	a3,a3,-1
9d00965c:	00c93021 	addu	a2,a2,t1
9d009660:	00c9702b 	sltu	t6,a2,t1

9d009664 <i29>:
9d009664:	00047380 	sll	t6,a0,0xe
9d009668:	00ee3821 	addu	a3,a3,t6
9d00966c:	10c00002 	beqz	a2,9d009678 <i30>
9d009670:	00073900 	sll	a3,a3,0x4
9d009674:	34e70001 	ori	a3,a3,0x1

9d009678 <i30>:
9d009678:	240e007e 	li	t6,126
9d00967c:	01ca7023 	subu	t6,t6,t2
9d009680:	010e4021 	addu	t0,t0,t6
9d009684:	250effff 	addiu	t6,t0,-1
9d009688:	2dc100fe 	sltiu	at,t6,254
9d00968c:	10200034 	beqz	at,9d009760 <Doveund>
9d009690:	00000000 	nop

9d009694 <Dlab8>:
9d009694:	24e70080 	addiu	a3,a3,128
9d009698:	2cee0080 	sltiu	t6,a3,128
9d00969c:	010e4021 	addu	t0,t0,t6
9d0096a0:	00077202 	srl	t6,a3,0x8
9d0096a4:	31ce0001 	andi	t6,t6,0x1
9d0096a8:	00ee3823 	subu	a3,a3,t6
9d0096ac:	00073840 	sll	a3,a3,0x1
9d0096b0:	00073a42 	srl	a3,a3,0x9
9d0096b4:	000875c0 	sll	t6,t0,0x17
9d0096b8:	00ee3825 	or	a3,a3,t6
9d0096bc:	00eb1025 	or	v0,a3,t3

9d0096c0 <D999>:
9d0096c0:	03e00008 	jr	ra
9d0096c4:	00000000 	nop

9d0096c8 <DspecA>:
9d0096c8:	15000008 	bnez	t0,9d0096ec <i31>
9d0096cc:	00000000 	nop
9d0096d0:	00e73821 	addu	a3,a3,a3
9d0096d4:	10e00005 	beqz	a3,9d0096ec <i31>
9d0096d8:	00000000 	nop
9d0096dc:	70ec6020 	clz	t4,a3
9d0096e0:	010c4023 	subu	t0,t0,t4
9d0096e4:	1000ffba 	b	9d0095d0 <Dlab1>
9d0096e8:	01873804 	sllv	a3,a3,t4

9d0096ec <i31>:
9d0096ec:	15480004 	bne	t2,t0,9d009700 <i33>
9d0096f0:	00000000 	nop
9d0096f4:	01297021 	addu	t6,t1,t1
9d0096f8:	11c0002f 	beqz	t6,9d0097b8 <Dnan>
9d0096fc:	00000000 	nop

9d009700 <i33>:
9d009700:	240100ff 	li	at,255
9d009704:	11410008 	beq	t2,at,9d009728 <DspecB>
9d009708:	00000000 	nop
9d00970c:	11000012 	beqz	t0,9d009758 <Dzer>
9d009710:	00000000 	nop
9d009714:	00e77021 	addu	t6,a3,a3
9d009718:	15c00027 	bnez	t6,9d0097b8 <Dnan>
9d00971c:	00000000 	nop
9d009720:	10000022 	b	9d0097ac <Dinf>
9d009724:	00000000 	nop

9d009728 <DspecB>:
9d009728:	15400008 	bnez	t2,9d00974c <i34>
9d00972c:	00000000 	nop
9d009730:	01294821 	addu	t1,t1,t1
9d009734:	1120001d 	beqz	t1,9d0097ac <Dinf>
9d009738:	00000000 	nop
9d00973c:	712c6020 	clz	t4,t1
9d009740:	014c5023 	subu	t2,t2,t4
9d009744:	1000ffa6 	b	9d0095e0 <Dlab2>
9d009748:	01894804 	sllv	t1,t1,t4

9d00974c <i34>:
9d00974c:	01297021 	addu	t6,t1,t1
9d009750:	15c00019 	bnez	t6,9d0097b8 <Dnan>
9d009754:	00000000 	nop

9d009758 <Dzer>:
9d009758:	1000ffd9 	b	9d0096c0 <D999>
9d00975c:	000b1025 	or	v0,zero,t3

9d009760 <Doveund>:
9d009760:	1d000012 	bgtz	t0,9d0097ac <Dinf>
9d009764:	00000000 	nop
9d009768:	240c0001 	li	t4,1
9d00976c:	01886023 	subu	t4,t4,t0
9d009770:	2d810020 	sltiu	at,t4,32
9d009774:	1020fff8 	beqz	at,9d009758 <Dzer>
9d009778:	00000000 	nop
9d00977c:	240e0020 	li	t6,32
9d009780:	01cc7023 	subu	t6,t6,t4
9d009784:	01c74004 	sllv	t0,a3,t6
9d009788:	11000002 	beqz	t0,9d009794 <i37>
9d00978c:	01873806 	srlv	a3,a3,t4
9d009790:	34e70002 	ori	a3,a3,0x2

9d009794 <i37>:
9d009794:	24080000 	li	t0,0
9d009798:	24ee0080 	addiu	t6,a3,128
9d00979c:	05c1ffbd 	bgez	t6,9d009694 <Dlab8>
9d0097a0:	00000000 	nop
9d0097a4:	1000ffbb 	b	9d009694 <Dlab8>
9d0097a8:	24080001 	li	t0,1

9d0097ac <Dinf>:
9d0097ac:	3c017f80 	lui	at,0x7f80
9d0097b0:	1000ffc3 	b	9d0096c0 <D999>
9d0097b4:	01611025 	or	v0,t3,at

9d0097b8 <Dnan>:
9d0097b8:	1000ffc1 	b	9d0096c0 <D999>
9d0097bc:	3c02ffc0 	lui	v0,0xffc0
9d0097c0:	00000000 	nop

Disassembly of section .text:

9d0097c4 <NU32_Startup>:

// Perform startup routines:
//  Make NU32_LED1 and NU32_LED2 pins outputs (NU32_USER is by default an input)
//  Initialize the serial port - UART3 (no interrupt) 
//  Enable interrupts
void NU32_Startup() {
9d0097c4:	27bdfff8 	addiu	sp,sp,-8
9d0097c8:	afbf0004 	sw	ra,4(sp)
  // disable interrupts
  __builtin_disable_interrupts();
9d0097cc:	41626000 	di	v0
9d0097d0:	000000c0 	ehb
  // see Chapter 2 "CPU for Devices with M4K Core" of the PIC32 reference manual
  // most of the other bits have prescribed values
  // microchip does not provide a _CP0_SET_CONFIG macro, so we directly use
  // the compiler built-in command _mtc0
  // to disable cache, use 0xa4210582 
  __builtin_mtc0(_CP0_CONFIG, _CP0_CONFIG_SELECT, 0xa4210583); 
9d0097d4:	3c02a421 	lui	v0,0xa421
9d0097d8:	24420583 	addiu	v0,v0,1411
9d0097dc:	40828000 	mtc0	v0,c0_config
9d0097e0:	000000c0 	ehb
  
  // set the prefectch cache wait state to 2, as per the
  // electrical characteristics data sheet
  CHECONbits.PFMWS = 0x2;   
9d0097e4:	3c02bf88 	lui	v0,0xbf88
9d0097e8:	8c434000 	lw	v1,16384(v0)
9d0097ec:	24050002 	li	a1,2
9d0097f0:	7ca31004 	ins	v1,a1,0x0,0x3
9d0097f4:	ac434000 	sw	v1,16384(v0)

  //enable prefetch for cacheable and noncacheable memory
  CHECONbits.PREFEN = 0x3; 
9d0097f8:	8c434000 	lw	v1,16384(v0)
9d0097fc:	24040003 	li	a0,3
9d009800:	7c832904 	ins	v1,a0,0x4,0x2
9d009804:	ac434000 	sw	v1,16384(v0)

  // 0 data RAM access wait states
  BMXCONbits.BMXWSDRM = 0x0;
9d009808:	3c02bf88 	lui	v0,0xbf88
9d00980c:	8c432000 	lw	v1,8192(v0)
9d009810:	7c033184 	ins	v1,zero,0x6,0x1
9d009814:	ac432000 	sw	v1,8192(v0)
  
  // enable multi vector interrupts
  INTCONbits.MVEC = 0x1;
9d009818:	3c02bf88 	lui	v0,0xbf88
9d00981c:	8c461000 	lw	a2,4096(v0)
9d009820:	24030001 	li	v1,1
9d009824:	7c666304 	ins	a2,v1,0xc,0x1
9d009828:	ac461000 	sw	a2,4096(v0)

  // disable JTAG to get B10, B11, B12 and B13 back
  DDPCONbits.JTAGEN = 0;
9d00982c:	3c02bf81 	lui	v0,0xbf81
9d009830:	9046f200 	lbu	a2,-3584(v0)
9d009834:	7c0618c4 	ins	a2,zero,0x3,0x1
9d009838:	a046f200 	sb	a2,-3584(v0)

  TRISFCLR = 0x0003;  // Make F0 and F1 outputs (LED1 and LED2)
9d00983c:	3c02bf88 	lui	v0,0xbf88
9d009840:	ac446144 	sw	a0,24900(v0)
  NU32_LED1 = 1;      // LED1 is off
9d009844:	3c02bf88 	lui	v0,0xbf88
9d009848:	90446160 	lbu	a0,24928(v0)
9d00984c:	7c640004 	ins	a0,v1,0x0,0x1
9d009850:	a0446160 	sb	a0,24928(v0)
  NU32_LED2 = 0;      // LED2 is on
9d009854:	90446160 	lbu	a0,24928(v0)
9d009858:	7c040844 	ins	a0,zero,0x1,0x1
9d00985c:	a0446160 	sb	a0,24928(v0)

  // turn on UART3 without an interrupt
  U3MODEbits.BRGH = 0; // set baud to NU32_DESIRED_BAUD
9d009860:	3c02bf80 	lui	v0,0xbf80
9d009864:	94446400 	lhu	a0,25600(v0)
9d009868:	7c0418c4 	ins	a0,zero,0x3,0x1
9d00986c:	a4446400 	sh	a0,25600(v0)
  U3BRG = ((NU32_SYS_FREQ / NU32_DESIRED_BAUD) / 16) - 1;
9d009870:	24060014 	li	a2,20
9d009874:	3c04bf80 	lui	a0,0xbf80
9d009878:	ac866440 	sw	a2,25664(a0)

  // 8 bit, no parity bit, and 1 stop bit (8N1 setup)
  U3MODEbits.PDSEL = 0;
9d00987c:	94446400 	lhu	a0,25600(v0)
9d009880:	7c041044 	ins	a0,zero,0x1,0x2
9d009884:	a4446400 	sh	a0,25600(v0)
  U3MODEbits.STSEL = 0;
9d009888:	94446400 	lhu	a0,25600(v0)
9d00988c:	7c040004 	ins	a0,zero,0x0,0x1
9d009890:	a4446400 	sh	a0,25600(v0)

  // configure TX & RX pins as output & input pins
  U3STAbits.UTXEN = 1;
9d009894:	3c04bf80 	lui	a0,0xbf80
9d009898:	8c866410 	lw	a2,25616(a0)
9d00989c:	7c665284 	ins	a2,v1,0xa,0x1
9d0098a0:	ac866410 	sw	a2,25616(a0)
  U3STAbits.URXEN = 1;
9d0098a4:	8c866410 	lw	a2,25616(a0)
9d0098a8:	7c666304 	ins	a2,v1,0xc,0x1
9d0098ac:	ac866410 	sw	a2,25616(a0)
  // configure hardware flow control using RTS and CTS
  U3MODEbits.UEN = 2;
9d0098b0:	94446400 	lhu	a0,25600(v0)
9d0098b4:	7ca44a04 	ins	a0,a1,0x8,0x2
9d0098b8:	a4446400 	sh	a0,25600(v0)

  // enable the uart
  U3MODEbits.ON = 1;
9d0098bc:	94446400 	lhu	a0,25600(v0)
9d0098c0:	7c647bc4 	ins	a0,v1,0xf,0x1
9d0098c4:	a4446400 	sh	a0,25600(v0)

  __builtin_enable_interrupts();
9d0098c8:	41626020 	ei	v0
}
9d0098cc:	8fbf0004 	lw	ra,4(sp)
9d0098d0:	03e00008 	jr	ra
9d0098d4:	27bd0008 	addiu	sp,sp,8

9d0098d8 <NU32_ReadUART3>:
// Read from UART3
// block other functions until you get a '\r' or '\n'
// send the pointer to your char array and the number of elements in the array
void NU32_ReadUART3(char * message, int maxLength) {
  char data = 0;
  int complete = 0, num_bytes = 0;
9d0098d8:	00003021 	move	a2,zero
  // loop until you get a '\r' or '\n'
  while (!complete) {
    if (U3STAbits.URXDA) { // if data is available
9d0098dc:	3c03bf80 	lui	v1,0xbf80
      data = U3RXREG;      // read the data
9d0098e0:	3c08bf80 	lui	t0,0xbf80
      if ((data == '\n') || (data == '\r')) {
9d0098e4:	2407000a 	li	a3,10
9d0098e8:	0b40264a 	j	9d009928 <NU32_ReadUART3+0x50>
9d0098ec:	2409000d 	li	t1,13
void NU32_ReadUART3(char * message, int maxLength) {
  char data = 0;
  int complete = 0, num_bytes = 0;
  // loop until you get a '\r' or '\n'
  while (!complete) {
    if (U3STAbits.URXDA) { // if data is available
9d0098f0:	8c626410 	lw	v0,25616(v1)
9d0098f4:	30420001 	andi	v0,v0,0x1
9d0098f8:	1040fffd 	beqz	v0,9d0098f0 <NU32_ReadUART3+0x18>
9d0098fc:	00000000 	nop
      data = U3RXREG;      // read the data
9d009900:	8d026430 	lw	v0,25648(t0)
9d009904:	7c021420 	seb	v0,v0
      if ((data == '\n') || (data == '\r')) {
9d009908:	5047000e 	beql	v0,a3,9d009944 <NU32_ReadUART3+0x6c>
9d00990c:	00862021 	addu	a0,a0,a2
9d009910:	1049000b 	beq	v0,t1,9d009940 <NU32_ReadUART3+0x68>
9d009914:	00865021 	addu	t2,a0,a2
        complete = 1;
      } else {
        message[num_bytes] = data;
9d009918:	a1420000 	sb	v0,0(t2)
        ++num_bytes;
9d00991c:	24c60001 	addiu	a2,a2,1
        // roll over if the array is too small
        if (num_bytes >= maxLength) {
9d009920:	00c5102a 	slt	v0,a2,a1
          num_bytes = 0;
9d009924:	0002300a 	movz	a2,zero,v0
void NU32_ReadUART3(char * message, int maxLength) {
  char data = 0;
  int complete = 0, num_bytes = 0;
  // loop until you get a '\r' or '\n'
  while (!complete) {
    if (U3STAbits.URXDA) { // if data is available
9d009928:	8c626410 	lw	v0,25616(v1)
9d00992c:	30420001 	andi	v0,v0,0x1
9d009930:	1040ffef 	beqz	v0,9d0098f0 <NU32_ReadUART3+0x18>
9d009934:	00000000 	nop
9d009938:	0b402640 	j	9d009900 <NU32_ReadUART3+0x28>
9d00993c:	00000000 	nop
        }
      }
    }
  }
  // end the string
  message[num_bytes] = '\0';
9d009940:	00862021 	addu	a0,a0,a2
9d009944:	03e00008 	jr	ra
9d009948:	a0800000 	sb	zero,0(a0)

9d00994c <NU32_WriteUART3>:
}

// Write a character array using UART3
void NU32_WriteUART3(const char * string) {
  while (*string != '\0') {
9d00994c:	80850000 	lb	a1,0(a0)
9d009950:	10a0000b 	beqz	a1,9d009980 <NU32_WriteUART3+0x34>
9d009954:	3c03bf80 	lui	v1,0xbf80
    while (U3STAbits.UTXBF) {
      ; // wait until tx buffer isn't full
    }
    U3TXREG = *string;
9d009958:	3c06bf80 	lui	a2,0xbf80
}

// Write a character array using UART3
void NU32_WriteUART3(const char * string) {
  while (*string != '\0') {
    while (U3STAbits.UTXBF) {
9d00995c:	8c626410 	lw	v0,25616(v1)
9d009960:	30420200 	andi	v0,v0,0x200
9d009964:	1440fffd 	bnez	v0,9d00995c <NU32_WriteUART3+0x10>
9d009968:	00000000 	nop
      ; // wait until tx buffer isn't full
    }
    U3TXREG = *string;
9d00996c:	acc56420 	sw	a1,25632(a2)
    ++string;
9d009970:	24840001 	addiu	a0,a0,1
  message[num_bytes] = '\0';
}

// Write a character array using UART3
void NU32_WriteUART3(const char * string) {
  while (*string != '\0') {
9d009974:	80850000 	lb	a1,0(a0)
9d009978:	14a0fff8 	bnez	a1,9d00995c <NU32_WriteUART3+0x10>
9d00997c:	00000000 	nop
9d009980:	03e00008 	jr	ra
9d009984:	00000000 	nop

Disassembly of section .text.fp32mul:

9d009988 <__mulsf3>:
9d009988:	00043dc2 30e700ff 00054dc2 312900ff     .=.....0.M....)1
9d009998:	3c0a8000 00043200 00ca3025 00054200     ...<.2..%0...B..
9d0099a8:	010a4025 00856026 014c5024 24ecffff     %@..&`..$PL....$
9d0099b8:	2d8100fe 10200021 00000000              ...-!. .....

9d0099c4 <Clab1>:
9d0099c4:	252cffff 	addiu	t4,t1,-1
9d0099c8:	2d8100fe 	sltiu	at,t4,254
9d0099cc:	10200036 	beqz	at,9d009aa8 <CspecB>
9d0099d0:	00000000 	nop

9d0099d4 <Clab2>:
9d0099d4:	00c80019 	multu	a2,t0
9d0099d8:	00005812 	mflo	t3
9d0099dc:	11600002 	beqz	t3,9d0099e8 <i17>
9d0099e0:	00003010 	mfhi	a2
9d0099e4:	34c60001 	ori	a2,a2,0x1

9d0099e8 <i17>:
9d0099e8:	04c00003 	bltz	a2,9d0099f8 <i18>
9d0099ec:	00000000 	nop
9d0099f0:	00063040 	sll	a2,a2,0x1
9d0099f4:	24e7ffff 	addiu	a3,a3,-1

9d0099f8 <i18>:
9d0099f8:	252cff82 	addiu	t4,t1,-126
9d0099fc:	00ec3821 	addu	a3,a3,t4
9d009a00:	24ecffff 	addiu	t4,a3,-1
9d009a04:	2d8100fe 	sltiu	at,t4,254
9d009a08:	1020003a 	beqz	at,9d009af4 <Coveund>
9d009a0c:	00000000 	nop

9d009a10 <Clab8>:
9d009a10:	24c60080 	addiu	a2,a2,128
9d009a14:	2ccc0080 	sltiu	t4,a2,128
9d009a18:	00ec3821 	addu	a3,a3,t4
9d009a1c:	00066202 	srl	t4,a2,0x8
9d009a20:	318c0001 	andi	t4,t4,0x1
9d009a24:	00cc3023 	subu	a2,a2,t4
9d009a28:	00063040 	sll	a2,a2,0x1
9d009a2c:	00063242 	srl	a2,a2,0x9
9d009a30:	000765c0 	sll	t4,a3,0x17
9d009a34:	00cc3025 	or	a2,a2,t4
9d009a38:	00ca1025 	or	v0,a2,t2

9d009a3c <C999>:
9d009a3c:	03e00008 	jr	ra
9d009a40:	00000000 	nop

9d009a44 <CspecA>:
9d009a44:	14e0000d 	bnez	a3,9d009a7c <i19>
9d009a48:	00000000 	nop
9d009a4c:	00c63021 	addu	a2,a2,a2
9d009a50:	10c00005 	beqz	a2,9d009a68 <i20>
9d009a54:	00000000 	nop
9d009a58:	70cb5820 	clz	t3,a2
9d009a5c:	00eb3823 	subu	a3,a3,t3
9d009a60:	1000ffd8 	b	9d0099c4 <Clab1>
9d009a64:	01663004 	sllv	a2,a2,t3

9d009a68 <i20>:
9d009a68:	240100ff 	li	at,255
9d009a6c:	1121001f 	beq	t1,at,9d009aec <Cnan>
9d009a70:	00000000 	nop
9d009a74:	10000015 	b	9d009acc <Czer>
9d009a78:	00000000 	nop

9d009a7c <i19>:
9d009a7c:	00c66021 	addu	t4,a2,a2
9d009a80:	1580001a 	bnez	t4,9d009aec <Cnan>
9d009a84:	00000000 	nop
9d009a88:	15200004 	bnez	t1,9d009a9c <i21>
9d009a8c:	00000000 	nop
9d009a90:	01086021 	addu	t4,t0,t0
9d009a94:	11800015 	beqz	t4,9d009aec <Cnan>
9d009a98:	00000000 	nop

9d009a9c <i21>:
9d009a9c:	240100ff 	li	at,255
9d009aa0:	1521000f 	bne	t1,at,9d009ae0 <Cinf>
9d009aa4:	00000000 	nop

9d009aa8 <CspecB>:
9d009aa8:	1520000a 	bnez	t1,9d009ad4 <i22>
9d009aac:	00000000 	nop
9d009ab0:	01084021 	addu	t0,t0,t0
9d009ab4:	11000005 	beqz	t0,9d009acc <Czer>
9d009ab8:	00000000 	nop
9d009abc:	710b5820 	clz	t3,t0
9d009ac0:	012b4823 	subu	t1,t1,t3
9d009ac4:	1000ffc3 	b	9d0099d4 <Clab2>
9d009ac8:	01684004 	sllv	t0,t0,t3

9d009acc <Czer>:
9d009acc:	1000ffdb 	b	9d009a3c <C999>
9d009ad0:	000a1025 	or	v0,zero,t2

9d009ad4 <i22>:
9d009ad4:	01086021 	addu	t4,t0,t0
9d009ad8:	15800004 	bnez	t4,9d009aec <Cnan>
9d009adc:	00000000 	nop

9d009ae0 <Cinf>:
9d009ae0:	3c017f80 	lui	at,0x7f80
9d009ae4:	1000ffd5 	b	9d009a3c <C999>
9d009ae8:	01411025 	or	v0,t2,at

9d009aec <Cnan>:
9d009aec:	1000ffd3 	b	9d009a3c <C999>
9d009af0:	3c02ffc0 	lui	v0,0xffc0

9d009af4 <Coveund>:
9d009af4:	1ce0fffa 	bgtz	a3,9d009ae0 <Cinf>
9d009af8:	00000000 	nop
9d009afc:	240b0001 	li	t3,1
9d009b00:	01675823 	subu	t3,t3,a3
9d009b04:	2d610020 	sltiu	at,t3,32
9d009b08:	1020fff0 	beqz	at,9d009acc <Czer>
9d009b0c:	00000000 	nop
9d009b10:	240c0020 	li	t4,32
9d009b14:	018b6023 	subu	t4,t4,t3
9d009b18:	01863804 	sllv	a3,a2,t4
9d009b1c:	10e00002 	beqz	a3,9d009b28 <i25>
9d009b20:	01663006 	srlv	a2,a2,t3
9d009b24:	34c60002 	ori	a2,a2,0x2

9d009b28 <i25>:
9d009b28:	24070000 	li	a3,0
9d009b2c:	24cc0080 	addiu	t4,a2,128
9d009b30:	0581ffb7 	bgez	t4,9d009a10 <Clab8>
9d009b34:	00000000 	nop
9d009b38:	1000ffb5 	b	9d009a10 <Clab8>
9d009b3c:	24070001 	li	a3,1
9d009b40:	00000000 	nop

Disassembly of section .text.__ldexp:

9d009b44 <__ldexp>:
9d009b44:	27bdffe0 	addiu	sp,sp,-32
9d009b48:	afbf001c 	sw	ra,28(sp)
9d009b4c:	afb20018 	sw	s2,24(sp)
9d009b50:	afb10014 	sw	s1,20(sp)
9d009b54:	afb00010 	sw	s0,16(sp)
9d009b58:	7ca75500 	ext	a3,a1,0x14,0xb
9d009b5c:	24e2ffff 	addiu	v0,a3,-1
9d009b60:	7ca89800 	ext	t0,a1,0x0,0x14
9d009b64:	2c4907fe 	sltiu	t1,v0,2046
9d009b68:	00c08821 	move	s1,a2
9d009b6c:	000587c2 	srl	s0,a1,0x1f
9d009b70:	00801021 	move	v0,a0
9d009b74:	11200041 	beqz	t1,9d009c7c <__ldexp+0x138>
9d009b78:	01001821 	move	v1,t0
9d009b7c:	24e7fc01 	addiu	a3,a3,-1023
9d009b80:	3c040010 	lui	a0,0x10
9d009b84:	01041825 	or	v1,t0,a0
9d009b88:	00f13821 	addu	a3,a3,s1
9d009b8c:	00022f42 	srl	a1,v0,0x1d
9d009b90:	000318c0 	sll	v1,v1,0x3
9d009b94:	24e403ff 	addiu	a0,a3,1023
9d009b98:	00a31825 	or	v1,a1,v1
9d009b9c:	18800025 	blez	a0,9d009c34 <__ldexp+0xf0>
9d009ba0:	000210c0 	sll	v0,v0,0x3
9d009ba4:	30450007 	andi	a1,v0,0x7
9d009ba8:	14a00015 	bnez	a1,9d009c00 <__ldexp+0xbc>
9d009bac:	7c4500c0 	ext	a1,v0,0x3,0x1
9d009bb0:	00033740 	sll	a2,v1,0x1d
9d009bb4:	000210c2 	srl	v0,v0,0x3
9d009bb8:	288507ff 	slti	a1,a0,2047
9d009bbc:	00c21025 	or	v0,a2,v0
9d009bc0:	10a00036 	beqz	a1,9d009c9c <__ldexp+0x158>
9d009bc4:	000318c2 	srl	v1,v1,0x3
9d009bc8:	7c650500 	ext	a1,v1,0x14,0x1
9d009bcc:	50a00002 	beqzl	a1,9d009bd8 <__ldexp+0x94>
9d009bd0:	00002021 	move	a0,zero
9d009bd4:	7c639800 	ext	v1,v1,0x0,0x14
9d009bd8:	001082c0 	sll	s0,s0,0xb
9d009bdc:	00902025 	or	a0,a0,s0
9d009be0:	00042500 	sll	a0,a0,0x14
9d009be4:	00831825 	or	v1,a0,v1
9d009be8:	8fbf001c 	lw	ra,28(sp)
9d009bec:	8fb20018 	lw	s2,24(sp)
9d009bf0:	8fb10014 	lw	s1,20(sp)
9d009bf4:	8fb00010 	lw	s0,16(sp)
9d009bf8:	03e00008 	jr	ra
9d009bfc:	27bd0020 	addiu	sp,sp,32
9d009c00:	24a50003 	addiu	a1,a1,3
9d009c04:	00452821 	addu	a1,v0,a1
9d009c08:	00a2102b 	sltu	v0,a1,v0
9d009c0c:	00431821 	addu	v1,v0,v1
9d009c10:	7c660600 	ext	a2,v1,0x18,0x1
9d009c14:	10c0ffe6 	beqz	a2,9d009bb0 <__ldexp+0x6c>
9d009c18:	00a01021 	move	v0,a1
9d009c1c:	00032fc0 	sll	a1,v1,0x1f
9d009c20:	00021042 	srl	v0,v0,0x1
9d009c24:	00a21025 	or	v0,a1,v0
9d009c28:	00031842 	srl	v1,v1,0x1
9d009c2c:	0b4026ec 	j	9d009bb0 <__ldexp+0x6c>
9d009c30:	24840001 	addiu	a0,a0,1
9d009c34:	2406fc02 	li	a2,-1022
9d009c38:	00c73023 	subu	a2,a2,a3
9d009c3c:	28c40038 	slti	a0,a2,56
9d009c40:	5080001b 	beqzl	a0,9d009cb0 <__ldexp+0x16c>
9d009c44:	00001021 	move	v0,zero
9d009c48:	00062023 	negu	a0,a2
9d009c4c:	30850020 	andi	a1,a0,0x20
9d009c50:	14a00003 	bnez	a1,9d009c60 <__ldexp+0x11c>
9d009c54:	00828804 	sllv	s1,v0,a0
9d009c58:	00832004 	sllv	a0,v1,a0
9d009c5c:	00828825 	or	s1,a0,v0
9d009c60:	00402021 	move	a0,v0
9d009c64:	0f402fcc 	jal	9d00bf30 <__lshrdi3>
9d009c68:	00602821 	move	a1,v1
9d009c6c:	0011882b 	sltu	s1,zero,s1
9d009c70:	02221025 	or	v0,s1,v0
9d009c74:	0b4026e9 	j	9d009ba4 <__ldexp+0x60>
9d009c78:	24040001 	li	a0,1
9d009c7c:	54e00005 	bnezl	a3,9d009c94 <__ldexp+0x150>
9d009c80:	00801021 	move	v0,a0
9d009c84:	01043025 	or	a2,t0,a0
9d009c88:	14c0000c 	bnez	a2,9d009cbc <__ldexp+0x178>
9d009c8c:	00000000 	nop
9d009c90:	00801021 	move	v0,a0
9d009c94:	0b4026fa 	j	9d009be8 <__ldexp+0xa4>
9d009c98:	00a01821 	move	v1,a1
9d009c9c:	00101ac0 	sll	v1,s0,0xb
9d009ca0:	346307ff 	ori	v1,v1,0x7ff
9d009ca4:	00031d00 	sll	v1,v1,0x14
9d009ca8:	0b4026fa 	j	9d009be8 <__ldexp+0xa4>
9d009cac:	00001021 	move	v0,zero
9d009cb0:	00001821 	move	v1,zero
9d009cb4:	0b4026f6 	j	9d009bd8 <__ldexp+0x94>
9d009cb8:	00002021 	move	a0,zero
9d009cbc:	15000003 	bnez	t0,9d009ccc <__ldexp+0x188>
9d009cc0:	71129020 	clz	s2,t0
9d009cc4:	70929020 	clz	s2,a0
9d009cc8:	26520020 	addiu	s2,s2,32
9d009ccc:	2646fff5 	addiu	a2,s2,-11
9d009cd0:	10c0ffad 	beqz	a2,9d009b88 <__ldexp+0x44>
9d009cd4:	2407fc02 	li	a3,-1022
9d009cd8:	0f402fdc 	jal	9d00bf70 <__ashldi3>
9d009cdc:	01002821 	move	a1,t0
9d009ce0:	2407fc0d 	li	a3,-1011
9d009ce4:	0b4026e2 	j	9d009b88 <__ldexp+0x44>
9d009ce8:	00f23823 	subu	a3,a3,s2

Disassembly of section .text._sbrk_init:

9d009cec <_sbrk_init>:
9d009cec:	27bdffd8 	addiu	sp,sp,-40
9d009cf0:	afbf0024 	sw	ra,36(sp)
9d009cf4:	afb40020 	sw	s4,32(sp)
9d009cf8:	afb3001c 	sw	s3,28(sp)
9d009cfc:	afb20018 	sw	s2,24(sp)
9d009d00:	afb10014 	sw	s1,20(sp)
9d009d04:	afb00010 	sw	s0,16(sp)
9d009d08:	3c10a000 	lui	s0,0xa000
9d009d0c:	8e0247ac 	lw	v0,18348(s0)
9d009d10:	10400009 	beqz	v0,9d009d38 <_sbrk_init+0x4c>
9d009d14:	3c12a000 	lui	s2,0xa000
9d009d18:	8fbf0024 	lw	ra,36(sp)
9d009d1c:	8fb40020 	lw	s4,32(sp)
9d009d20:	8fb3001c 	lw	s3,28(sp)
9d009d24:	8fb20018 	lw	s2,24(sp)
9d009d28:	8fb10014 	lw	s1,20(sp)
9d009d2c:	8fb00010 	lw	s0,16(sp)
9d009d30:	03e00008 	jr	ra
9d009d34:	27bd0028 	addiu	sp,sp,40
9d009d38:	8e4347b4 	lw	v1,18356(s2)
9d009d3c:	5060003d 	beqzl	v1,9d009e34 <_sbrk_init+0x148>
9d009d40:	3c03a000 	lui	v1,0xa000
9d009d44:	3c13a000 	lui	s3,0xa000
9d009d48:	8e6247b0 	lw	v0,18352(s3)
9d009d4c:	5040003b 	beqzl	v0,9d009e3c <_sbrk_init+0x150>
9d009d50:	3c040000 	lui	a0,0x0
9d009d54:	00038f82 	srl	s1,v1,0x1e
9d009d58:	0002a782 	srl	s4,v0,0x1e
9d009d5c:	7c65e000 	ext	a1,v1,0x0,0x1d
9d009d60:	3a310002 	xori	s1,s1,0x2
9d009d64:	7c44e000 	ext	a0,v0,0x0,0x1d
9d009d68:	3a940002 	xori	s4,s4,0x2
9d009d6c:	00b1180a 	movz	v1,a1,s1
9d009d70:	00608821 	move	s1,v1
9d009d74:	0094100a 	movz	v0,a0,s4
9d009d78:	0f403036 	jal	9d00c0d8 <_stub_sbd_memlayout>
9d009d7c:	0040a021 	move	s4,v0
9d009d80:	8c430000 	lw	v1,0(v0)
9d009d84:	8c440004 	lw	a0,4(v0)
9d009d88:	0223102b 	sltu	v0,s1,v1
9d009d8c:	10400024 	beqz	v0,9d009e20 <_sbrk_init+0x134>
9d009d90:	00642021 	addu	a0,v1,a0
9d009d94:	3c02a000 	lui	v0,0xa000
9d009d98:	24420054 	addiu	v0,v0,84
9d009d9c:	7c42e000 	ext	v0,v0,0x0,0x1d
9d009da0:	0062102b 	sltu	v0,v1,v0
9d009da4:	1440ffdd 	bnez	v0,9d009d1c <_sbrk_init+0x30>
9d009da8:	8fbf0024 	lw	ra,36(sp)
9d009dac:	0283102b 	sltu	v0,s4,v1
9d009db0:	14400005 	bnez	v0,9d009dc8 <_sbrk_init+0xdc>
9d009db4:	0064102b 	sltu	v0,v1,a0
9d009db8:	0284102b 	sltu	v0,s4,a0
9d009dbc:	54400004 	bnezl	v0,9d009dd0 <_sbrk_init+0xe4>
9d009dc0:	02802021 	move	a0,s4
9d009dc4:	0064102b 	sltu	v0,v1,a0
9d009dc8:	1040ffd4 	beqz	v0,9d009d1c <_sbrk_init+0x30>
9d009dcc:	8fbf0024 	lw	ra,36(sp)
9d009dd0:	3c02a000 	lui	v0,0xa000
9d009dd4:	24420054 	addiu	v0,v0,84
9d009dd8:	00021742 	srl	v0,v0,0x1d
9d009ddc:	24050005 	li	a1,5
9d009de0:	1445001b 	bne	v0,a1,9d009e50 <_sbrk_init+0x164>
9d009de4:	24050004 	li	a1,4
9d009de8:	3c02a000 	lui	v0,0xa000
9d009dec:	00621825 	or	v1,v1,v0
9d009df0:	00822025 	or	a0,a0,v0
9d009df4:	ae4347b4 	sw	v1,18356(s2)
9d009df8:	ae6447b0 	sw	a0,18352(s3)
9d009dfc:	ae0347ac 	sw	v1,18348(s0)
9d009e00:	8fbf0024 	lw	ra,36(sp)
9d009e04:	8fb40020 	lw	s4,32(sp)
9d009e08:	8fb3001c 	lw	s3,28(sp)
9d009e0c:	8fb20018 	lw	s2,24(sp)
9d009e10:	8fb10014 	lw	s1,20(sp)
9d009e14:	8fb00010 	lw	s0,16(sp)
9d009e18:	03e00008 	jr	ra
9d009e1c:	27bd0028 	addiu	sp,sp,40
9d009e20:	0224102b 	sltu	v0,s1,a0
9d009e24:	1040ffdc 	beqz	v0,9d009d98 <_sbrk_init+0xac>
9d009e28:	3c02a000 	lui	v0,0xa000
9d009e2c:	0b40276b 	j	9d009dac <_sbrk_init+0xc0>
9d009e30:	02201821 	move	v1,s1
9d009e34:	0b402751 	j	9d009d44 <_sbrk_init+0x58>
9d009e38:	246347e8 	addiu	v1,v1,18408
9d009e3c:	24840000 	addiu	a0,a0,0
9d009e40:	3c02a000 	lui	v0,0xa000
9d009e44:	244247e8 	addiu	v0,v0,18408
9d009e48:	0b402755 	j	9d009d54 <_sbrk_init+0x68>
9d009e4c:	00441021 	addu	v0,v0,a0
9d009e50:	14450007 	bne	v0,a1,9d009e70 <_sbrk_init+0x184>
9d009e54:	3c028000 	lui	v0,0x8000
9d009e58:	00621825 	or	v1,v1,v0
9d009e5c:	00821025 	or	v0,a0,v0
9d009e60:	ae4347b4 	sw	v1,18356(s2)
9d009e64:	ae6247b0 	sw	v0,18352(s3)
9d009e68:	0b402780 	j	9d009e00 <_sbrk_init+0x114>
9d009e6c:	ae0347ac 	sw	v1,18348(s0)
9d009e70:	ae4447b4 	sw	a0,18356(s2)
9d009e74:	00801821 	move	v1,a0
9d009e78:	0b402780 	j	9d009e00 <_sbrk_init+0x114>
9d009e7c:	ae0347ac 	sw	v1,18348(s0)

Disassembly of section .text:

9d009e80 <encoder_command>:
#include "encoder.h"
#include <xc.h>

static int encoder_command(int read) { 
                                       
  SPI4BUF = read;                 
9d009e80:	3c02bf80 	lui	v0,0xbf80
9d009e84:	ac445c20 	sw	a0,23584(v0)
  while (!SPI4STATbits.SPIRBF) { 
9d009e88:	3c03bf80 	lui	v1,0xbf80
9d009e8c:	8c625c10 	lw	v0,23568(v1)
9d009e90:	30420001 	andi	v0,v0,0x1
9d009e94:	1040fffd 	beqz	v0,9d009e8c <encoder_command+0xc>
9d009e98:	3c02bf80 	lui	v0,0xbf80
  ; 
  }                                 
  SPI4BUF;                             
9d009e9c:	8c435c20 	lw	v1,23584(v0)
  SPI4BUF = 5;                         
9d009ea0:	24030005 	li	v1,5
9d009ea4:	ac435c20 	sw	v1,23584(v0)
  while (!SPI4STATbits.SPIRBF) { 
9d009ea8:	3c03bf80 	lui	v1,0xbf80
9d009eac:	8c625c10 	lw	v0,23568(v1)
9d009eb0:	30420001 	andi	v0,v0,0x1
9d009eb4:	1040fffd 	beqz	v0,9d009eac <encoder_command+0x2c>
9d009eb8:	3c02bf80 	lui	v0,0xbf80
  ; 
  }
  return SPI4BUF;
9d009ebc:	8c425c20 	lw	v0,23584(v0)
}
9d009ec0:	03e00008 	jr	ra
9d009ec4:	00000000 	nop

9d009ec8 <encoder_ticks>:


int encoder_ticks(void) {
9d009ec8:	27bdffe8 	addiu	sp,sp,-24
9d009ecc:	afbf0014 	sw	ra,20(sp)
  encoder_command(1); 
9d009ed0:	0f4027a0 	jal	9d009e80 <encoder_command>
9d009ed4:	24040001 	li	a0,1

9d009ed8 <.LVL1>:
  return encoder_command(1);
9d009ed8:	0f4027a0 	jal	9d009e80 <encoder_command>
9d009edc:	24040001 	li	a0,1

9d009ee0 <.LVL2>:
}
9d009ee0:	8fbf0014 	lw	ra,20(sp)
9d009ee4:	03e00008 	jr	ra
9d009ee8:	27bd0018 	addiu	sp,sp,24

9d009eec <encoder_angle>:

int encoder_angle(void) {
9d009eec:	27bdffe8 	addiu	sp,sp,-24
9d009ef0:	afbf0014 	sw	ra,20(sp)
  return ((float)encoder_ticks()-32768.0)*360.0/(448.0*4.0);
9d009ef4:	0f4027b2 	jal	9d009ec8 <encoder_ticks>
9d009ef8:	00000000 	nop

9d009efc <.LVL3>:
9d009efc:	0f402ed3 	jal	9d00bb4c <__floatsisf>
9d009f00:	00402021 	move	a0,v0
9d009f04:	00402021 	move	a0,v0
9d009f08:	3c029d01 	lui	v0,0x9d01
9d009f0c:	0f4024c7 	jal	9d00931c <__subsf3>
9d009f10:	8c45c2f0 	lw	a1,-15632(v0)
9d009f14:	00402021 	move	a0,v0
9d009f18:	3c029d01 	lui	v0,0x9d01
9d009f1c:	0f402662 	jal	9d009988 <.LFE4>
9d009f20:	8c45c2f4 	lw	a1,-15628(v0)
9d009f24:	00402021 	move	a0,v0
9d009f28:	3c029d01 	lui	v0,0x9d01
9d009f2c:	0f402565 	jal	9d009594 <__divsf3>
9d009f30:	8c45c2f8 	lw	a1,-15624(v0)
9d009f34:	0f402d60 	jal	9d00b580 <__fixsfsi>
9d009f38:	00402021 	move	a0,v0
}
9d009f3c:	8fbf0014 	lw	ra,20(sp)
9d009f40:	03e00008 	jr	ra
9d009f44:	27bd0018 	addiu	sp,sp,24

9d009f48 <encoder_reset>:

void encoder_reset(void) {
9d009f48:	27bdffe8 	addiu	sp,sp,-24
9d009f4c:	afbf0014 	sw	ra,20(sp)
  encoder_command(0); 
9d009f50:	0f4027a0 	jal	9d009e80 <encoder_command>
9d009f54:	00002021 	move	a0,zero

9d009f58 <.LVL9>:
  encoder_command(0);
9d009f58:	0f4027a0 	jal	9d009e80 <encoder_command>
9d009f5c:	00002021 	move	a0,zero

9d009f60 <.LVL10>:
}
9d009f60:	8fbf0014 	lw	ra,20(sp)
9d009f64:	03e00008 	jr	ra
9d009f68:	27bd0018 	addiu	sp,sp,24

9d009f6c <encoder_init>:

void encoder_init(void) {
 
  SPI4CON = 0;              
9d009f6c:	3c02bf80 	lui	v0,0xbf80
9d009f70:	ac405c00 	sw	zero,23552(v0)
  SPI4BUF;                 
9d009f74:	3c02bf80 	lui	v0,0xbf80
9d009f78:	8c425c20 	lw	v0,23584(v0)
  SPI4BRG = 0x4;            
9d009f7c:	24030004 	li	v1,4
9d009f80:	3c02bf80 	lui	v0,0xbf80
9d009f84:	ac435c30 	sw	v1,23600(v0)
  SPI4STATbits.SPIROV = 0;  
9d009f88:	3c02bf80 	lui	v0,0xbf80
9d009f8c:	8c435c10 	lw	v1,23568(v0)
9d009f90:	7c033184 	ins	v1,zero,0x6,0x1
9d009f94:	ac435c10 	sw	v1,23568(v0)
  SPI4CONbits.MSTEN = 1;    
9d009f98:	3c02bf80 	lui	v0,0xbf80
9d009f9c:	8c445c00 	lw	a0,23552(v0)
9d009fa0:	24030001 	li	v1,1
9d009fa4:	7c642944 	ins	a0,v1,0x5,0x1
9d009fa8:	ac445c00 	sw	a0,23552(v0)
  SPI4CONbits.MSSEN = 1;    
9d009fac:	8c445c00 	lw	a0,23552(v0)
9d009fb0:	7c64e704 	ins	a0,v1,0x1c,0x1
9d009fb4:	ac445c00 	sw	a0,23552(v0)
  SPI4CONbits.MODE16 = 1;  
9d009fb8:	8c445c00 	lw	a0,23552(v0)
9d009fbc:	7c645284 	ins	a0,v1,0xa,0x1
9d009fc0:	ac445c00 	sw	a0,23552(v0)
  SPI4CONbits.MODE32 = 0;
9d009fc4:	8c445c00 	lw	a0,23552(v0)
9d009fc8:	7c045ac4 	ins	a0,zero,0xb,0x1
9d009fcc:	ac445c00 	sw	a0,23552(v0)
  SPI4CONbits.SMP = 1;      
9d009fd0:	8c445c00 	lw	a0,23552(v0)
9d009fd4:	7c644a44 	ins	a0,v1,0x9,0x1
9d009fd8:	ac445c00 	sw	a0,23552(v0)
  SPI4CONbits.ON = 1;      
9d009fdc:	8c445c00 	lw	a0,23552(v0)
9d009fe0:	7c647bc4 	ins	a0,v1,0xf,0x1
9d009fe4:	ac445c00 	sw	a0,23552(v0)
9d009fe8:	03e00008 	jr	ra
9d009fec:	00000000 	nop

Disassembly of section .text._outcnvrt:

9d009ff0 <_outcnvrt>:
9d009ff0:	27bdffd8 	addiu	sp,sp,-40
9d009ff4:	afbf0024 	sw	ra,36(sp)
9d009ff8:	afb40020 	sw	s4,32(sp)
9d009ffc:	afb3001c 	sw	s3,28(sp)
9d00a000:	afb20018 	sw	s2,24(sp)
9d00a004:	afb10014 	sw	s1,20(sp)
9d00a008:	afb00010 	sw	s0,16(sp)
9d00a00c:	97a20038 	lhu	v0,56(sp)
9d00a010:	00809821 	move	s3,a0
9d00a014:	00a0a021 	move	s4,a1
9d00a018:	30420008 	andi	v0,v0,0x8
9d00a01c:	00c08021 	move	s0,a2
9d00a020:	10400014 	beqz	v0,9d00a074 <_outcnvrt+0x84>
9d00a024:	00e08821 	move	s1,a3
9d00a028:	00a02021 	move	a0,a1
9d00a02c:	00c02821 	move	a1,a2
9d00a030:	0f402e53 	jal	9d00b94c <__sputn>
9d00a034:	02603021 	move	a2,s3
9d00a038:	2403ffff 	li	v1,-1
9d00a03c:	10430003 	beq	v0,v1,9d00a04c <_outcnvrt+0x5c>
9d00a040:	0211902a 	slt	s2,s0,s1
9d00a044:	1640001c 	bnez	s2,9d00a0b8 <_outcnvrt+0xc8>
9d00a048:	02602021 	move	a0,s3
9d00a04c:	02201021 	move	v0,s1
9d00a050:	0212100a 	movz	v0,s0,s2
9d00a054:	8fbf0024 	lw	ra,36(sp)
9d00a058:	8fb40020 	lw	s4,32(sp)
9d00a05c:	8fb3001c 	lw	s3,28(sp)
9d00a060:	8fb20018 	lw	s2,24(sp)
9d00a064:	8fb10014 	lw	s1,20(sp)
9d00a068:	8fb00010 	lw	s0,16(sp)
9d00a06c:	03e00008 	jr	ra
9d00a070:	27bd0028 	addiu	sp,sp,40
9d00a074:	00c7902a 	slt	s2,a2,a3
9d00a078:	1640001d 	bnez	s2,9d00a0f0 <_outcnvrt+0x100>
9d00a07c:	00e62823 	subu	a1,a3,a2
9d00a080:	02802021 	move	a0,s4
9d00a084:	02002821 	move	a1,s0
9d00a088:	0f402e53 	jal	9d00b94c <__sputn>
9d00a08c:	02603021 	move	a2,s3
9d00a090:	02201021 	move	v0,s1
9d00a094:	0212100a 	movz	v0,s0,s2
9d00a098:	8fbf0024 	lw	ra,36(sp)
9d00a09c:	8fb40020 	lw	s4,32(sp)
9d00a0a0:	8fb3001c 	lw	s3,28(sp)
9d00a0a4:	8fb20018 	lw	s2,24(sp)
9d00a0a8:	8fb10014 	lw	s1,20(sp)
9d00a0ac:	8fb00010 	lw	s0,16(sp)
9d00a0b0:	03e00008 	jr	ra
9d00a0b4:	27bd0028 	addiu	sp,sp,40
9d00a0b8:	02302823 	subu	a1,s1,s0
9d00a0bc:	3c069d01 	lui	a2,0x9d01
9d00a0c0:	0f402cc7 	jal	9d00b31c <repl>
9d00a0c4:	24c6bc28 	addiu	a2,a2,-17368
9d00a0c8:	02201021 	move	v0,s1
9d00a0cc:	0212100a 	movz	v0,s0,s2
9d00a0d0:	8fbf0024 	lw	ra,36(sp)
9d00a0d4:	8fb40020 	lw	s4,32(sp)
9d00a0d8:	8fb3001c 	lw	s3,28(sp)
9d00a0dc:	8fb20018 	lw	s2,24(sp)
9d00a0e0:	8fb10014 	lw	s1,20(sp)
9d00a0e4:	8fb00010 	lw	s0,16(sp)
9d00a0e8:	03e00008 	jr	ra
9d00a0ec:	27bd0028 	addiu	sp,sp,40
9d00a0f0:	3c069d01 	lui	a2,0x9d01
9d00a0f4:	0f402cc7 	jal	9d00b31c <repl>
9d00a0f8:	24c6bc28 	addiu	a2,a2,-17368
9d00a0fc:	2403ffff 	li	v1,-1
9d00a100:	1443ffdf 	bne	v0,v1,9d00a080 <_outcnvrt+0x90>
9d00a104:	02201021 	move	v0,s1
9d00a108:	0212100a 	movz	v0,s0,s2
9d00a10c:	8fbf0024 	lw	ra,36(sp)
9d00a110:	8fb40020 	lw	s4,32(sp)
9d00a114:	8fb3001c 	lw	s3,28(sp)
9d00a118:	8fb20018 	lw	s2,24(sp)
9d00a11c:	8fb10014 	lw	s1,20(sp)
9d00a120:	8fb00010 	lw	s0,16(sp)
9d00a124:	03e00008 	jr	ra
9d00a128:	27bd0028 	addiu	sp,sp,40

Disassembly of section .text.ungetc:

9d00a12c <ungetc>:
9d00a12c:	27bdffe0 	addiu	sp,sp,-32
9d00a130:	afbf001c 	sw	ra,28(sp)
9d00a134:	afb20018 	sw	s2,24(sp)
9d00a138:	afb10014 	sw	s1,20(sp)
9d00a13c:	afb00010 	sw	s0,16(sp)
9d00a140:	2412ffff 	li	s2,-1
9d00a144:	10920028 	beq	a0,s2,9d00a1e8 <ungetc+0xbc>
9d00a148:	00808821 	move	s1,a0
9d00a14c:	00a08021 	move	s0,a1
9d00a150:	8ca20018 	lw	v0,24(a1)
9d00a154:	00a02021 	move	a0,a1
9d00a158:	8c420010 	lw	v0,16(v0)
9d00a15c:	0040f809 	jalr	v0
9d00a160:	24050002 	li	a1,2
9d00a164:	10400021 	beqz	v0,9d00a1ec <ungetc+0xc0>
9d00a168:	2402ffff 	li	v0,-1
9d00a16c:	8e020000 	lw	v0,0(s0)
9d00a170:	10520037 	beq	v0,s2,9d00a250 <ungetc+0x124>
9d00a174:	00000000 	nop
9d00a178:	8e02000c 	lw	v0,12(s0)
9d00a17c:	50400017 	beqzl	v0,9d00a1dc <ungetc+0xb0>
9d00a180:	8e030004 	lw	v1,4(s0)
9d00a184:	8e020004 	lw	v0,4(s0)
9d00a188:	8e030008 	lw	v1,8(s0)
9d00a18c:	0062182b 	sltu	v1,v1,v0
9d00a190:	1060001c 	beqz	v1,9d00a204 <ungetc+0xd8>
9d00a194:	8e030000 	lw	v1,0(s0)
9d00a198:	2442ffff 	addiu	v0,v0,-1
9d00a19c:	ae020004 	sw	v0,4(s0)
9d00a1a0:	24630001 	addiu	v1,v1,1
9d00a1a4:	ae030000 	sw	v1,0(s0)
9d00a1a8:	90430000 	lbu	v1,0(v0)
9d00a1ac:	54710001 	bnel	v1,s1,9d00a1b4 <ungetc+0x88>
9d00a1b0:	a0510000 	sb	s1,0(v0)
9d00a1b4:	96030010 	lhu	v1,16(s0)
9d00a1b8:	02201021 	move	v0,s1
9d00a1bc:	3063ffdf 	andi	v1,v1,0xffdf
9d00a1c0:	a6030010 	sh	v1,16(s0)
9d00a1c4:	8fbf001c 	lw	ra,28(sp)
9d00a1c8:	8fb20018 	lw	s2,24(sp)
9d00a1cc:	8fb10014 	lw	s1,20(sp)
9d00a1d0:	8fb00010 	lw	s0,16(sp)
9d00a1d4:	03e00008 	jr	ra
9d00a1d8:	27bd0020 	addiu	sp,sp,32
9d00a1dc:	2402ffff 	li	v0,-1
9d00a1e0:	50620011 	beql	v1,v0,9d00a228 <ungetc+0xfc>
9d00a1e4:	96030010 	lhu	v1,16(s0)
9d00a1e8:	2402ffff 	li	v0,-1
9d00a1ec:	8fbf001c 	lw	ra,28(sp)
9d00a1f0:	8fb20018 	lw	s2,24(sp)
9d00a1f4:	8fb10014 	lw	s1,20(sp)
9d00a1f8:	8fb00010 	lw	s0,16(sp)
9d00a1fc:	03e00008 	jr	ra
9d00a200:	27bd0020 	addiu	sp,sp,32
9d00a204:	5060ffe7 	beqzl	v1,9d00a1a4 <ungetc+0x78>
9d00a208:	24630001 	addiu	v1,v1,1
9d00a20c:	02201021 	move	v0,s1
9d00a210:	8fbf001c 	lw	ra,28(sp)
9d00a214:	8fb20018 	lw	s2,24(sp)
9d00a218:	8fb10014 	lw	s1,20(sp)
9d00a21c:	8fb00010 	lw	s0,16(sp)
9d00a220:	03e00008 	jr	ra
9d00a224:	27bd0020 	addiu	sp,sp,32
9d00a228:	ae110004 	sw	s1,4(s0)
9d00a22c:	02201021 	move	v0,s1
9d00a230:	3063ffdf 	andi	v1,v1,0xffdf
9d00a234:	a6030010 	sh	v1,16(s0)
9d00a238:	8fbf001c 	lw	ra,28(sp)
9d00a23c:	8fb20018 	lw	s2,24(sp)
9d00a240:	8fb10014 	lw	s1,20(sp)
9d00a244:	8fb00010 	lw	s0,16(sp)
9d00a248:	03e00008 	jr	ra
9d00a24c:	27bd0020 	addiu	sp,sp,32
9d00a250:	0f402d15 	jal	9d00b454 <_i_init>
9d00a254:	02002021 	move	a0,s0
9d00a258:	0b40285f 	j	9d00a17c <ungetc+0x50>
9d00a25c:	8e02000c 	lw	v0,12(s0)

Disassembly of section .text.putget.2773:

9d00a260 <putget.2773>:
9d00a260:	27bdffe0 	addiu	sp,sp,-32
9d00a264:	afbf001c 	sw	ra,28(sp)
9d00a268:	afb10018 	sw	s1,24(sp)
9d00a26c:	afb00014 	sw	s0,20(sp)
9d00a270:	01e08021 	move	s0,t7
9d00a274:	8de50014 	lw	a1,20(t7)
9d00a278:	8de20010 	lw	v0,16(t7)
9d00a27c:	10a20019 	beq	a1,v0,9d00a2e4 <putget.2773+0x84>
9d00a280:	00808821 	move	s1,a0
9d00a284:	8de20008 	lw	v0,8(t7)
9d00a288:	24a30001 	addiu	v1,a1,1
9d00a28c:	00452821 	addu	a1,v0,a1
9d00a290:	ae030014 	sw	v1,20(s0)
9d00a294:	1220000d 	beqz	s1,9d00a2cc <putget.2773+0x6c>
9d00a298:	a0b10000 	sb	s1,0(a1)
9d00a29c:	8e020004 	lw	v0,4(s0)
9d00a2a0:	1040000a 	beqz	v0,9d00a2cc <putget.2773+0x6c>
9d00a2a4:	2411ffff 	li	s1,-1
9d00a2a8:	0f402ea1 	jal	9d00ba84 <gsgetc>
9d00a2ac:	8e040000 	lw	a0,0(s0)
9d00a2b0:	00408821 	move	s1,v0
9d00a2b4:	2402ffff 	li	v0,-1
9d00a2b8:	12220005 	beq	s1,v0,9d00a2d0 <putget.2773+0x70>
9d00a2bc:	02201021 	move	v0,s1
9d00a2c0:	8e020004 	lw	v0,4(s0)
9d00a2c4:	2442ffff 	addiu	v0,v0,-1
9d00a2c8:	ae020004 	sw	v0,4(s0)
9d00a2cc:	02201021 	move	v0,s1
9d00a2d0:	8fbf001c 	lw	ra,28(sp)
9d00a2d4:	8fb10018 	lw	s1,24(sp)
9d00a2d8:	8fb00014 	lw	s0,20(sp)
9d00a2dc:	03e00008 	jr	ra
9d00a2e0:	27bd0020 	addiu	sp,sp,32
9d00a2e4:	8de4000c 	lw	a0,12(t7)
9d00a2e8:	24a50080 	addiu	a1,a1,128
9d00a2ec:	10800007 	beqz	a0,9d00a30c <putget.2773+0xac>
9d00a2f0:	ade50010 	sw	a1,16(t7)
9d00a2f4:	0f4015bc 	jal	9d0056f0 <realloc>
9d00a2f8:	00000000 	nop
9d00a2fc:	ae02000c 	sw	v0,12(s0)
9d00a300:	8e050014 	lw	a1,20(s0)
9d00a304:	0b4028a2 	j	9d00a288 <putget.2773+0x28>
9d00a308:	ae020008 	sw	v0,8(s0)
9d00a30c:	0f401234 	jal	9d0048d0 <malloc>
9d00a310:	00a02021 	move	a0,a1
9d00a314:	8e030008 	lw	v1,8(s0)
9d00a318:	ae02000c 	sw	v0,12(s0)
9d00a31c:	24680080 	addiu	t0,v1,128
9d00a320:	88670003 	lwl	a3,3(v1)
9d00a324:	88660007 	lwl	a2,7(v1)
9d00a328:	8865000b 	lwl	a1,11(v1)
9d00a32c:	8864000f 	lwl	a0,15(v1)
9d00a330:	98670000 	lwr	a3,0(v1)
9d00a334:	98660004 	lwr	a2,4(v1)
9d00a338:	98650008 	lwr	a1,8(v1)
9d00a33c:	9864000c 	lwr	a0,12(v1)
9d00a340:	24630010 	addiu	v1,v1,16
9d00a344:	ac470000 	sw	a3,0(v0)
9d00a348:	ac460004 	sw	a2,4(v0)
9d00a34c:	ac450008 	sw	a1,8(v0)
9d00a350:	ac44000c 	sw	a0,12(v0)
9d00a354:	1468fff2 	bne	v1,t0,9d00a320 <putget.2773+0xc0>
9d00a358:	24420010 	addiu	v0,v0,16
9d00a35c:	8e02000c 	lw	v0,12(s0)
9d00a360:	8e050014 	lw	a1,20(s0)
9d00a364:	0b4028a2 	j	9d00a288 <putget.2773+0x28>
9d00a368:	ae020008 	sw	v0,8(s0)

Disassembly of section .text:

9d00a36c <currentcontrol_init>:
#include "NU32.h"          // constants, functions for startup and UART
#include "isense.h"
#include "currentcontrol.h"

void currentcontrol_init(void) {
  TRISDbits.TRISD5 = 0;
9d00a36c:	3c02bf88 	lui	v0,0xbf88
9d00a370:	944360c0 	lhu	v1,24768(v0)
9d00a374:	7c032944 	ins	v1,zero,0x5,0x1
9d00a378:	a44360c0 	sh	v1,24768(v0)

  // TIMER 3
  T3CONbits.TCKPS = 0b000;     // Timer3 prescaler N=1 (1:1)
9d00a37c:	3c04bf80 	lui	a0,0xbf80
9d00a380:	94820a00 	lhu	v0,2560(a0)
9d00a384:	7c023104 	ins	v0,zero,0x4,0x3
9d00a388:	a4820a00 	sh	v0,2560(a0)
  PR3 = 3999;              // period = (PR3+1) * N * 12.5 ns = 50 us, 20 kHz
9d00a38c:	24030f9f 	li	v1,3999
9d00a390:	3c02bf80 	lui	v0,0xbf80
9d00a394:	ac430a20 	sw	v1,2592(v0)
  TMR3 = 0;                // initial TMR3 count is 0
9d00a398:	3c02bf80 	lui	v0,0xbf80
9d00a39c:	ac400a10 	sw	zero,2576(v0)
  OC1CONbits.OCTSEL = 1;
9d00a3a0:	3c03bf80 	lui	v1,0xbf80
9d00a3a4:	94653000 	lhu	a1,12288(v1)
9d00a3a8:	24020001 	li	v0,1
9d00a3ac:	7c4518c4 	ins	a1,v0,0x3,0x1
9d00a3b0:	a4653000 	sh	a1,12288(v1)
  OC1CONbits.OCM = 0b110;  // PWM mode without fault pin; other OC1CON bits are defaults
9d00a3b4:	94653000 	lhu	a1,12288(v1)
9d00a3b8:	24060006 	li	a2,6
9d00a3bc:	7cc51004 	ins	a1,a2,0x0,0x3
9d00a3c0:	a4653000 	sh	a1,12288(v1)
  OC1RS = 4000;             // duty cycle = OC1RS/(PR3+1) = 75%
9d00a3c4:	24050fa0 	li	a1,4000
9d00a3c8:	3c06bf80 	lui	a2,0xbf80
9d00a3cc:	acc53020 	sw	a1,12320(a2)
  OC1R = 4000;              // initialize before turning OC1 on; afterward it is read-only
9d00a3d0:	3c06bf80 	lui	a2,0xbf80
9d00a3d4:	acc53010 	sw	a1,12304(a2)
  T3CONbits.ON = 1;        // turn on Timer3
9d00a3d8:	94850a00 	lhu	a1,2560(a0)
9d00a3dc:	7c457bc4 	ins	a1,v0,0xf,0x1
9d00a3e0:	a4850a00 	sh	a1,2560(a0)
  OC1CONbits.ON = 1;       // turn on OC1
9d00a3e4:	94643000 	lhu	a0,12288(v1)
9d00a3e8:	7c447bc4 	ins	a0,v0,0xf,0x1
9d00a3ec:	a4643000 	sh	a0,12288(v1)

  // TIMER 2
  T2CONbits.TCKPS = 0b000;            // Timer2 prescaler N=1 (1:1)
9d00a3f0:	3c03bf80 	lui	v1,0xbf80
9d00a3f4:	94640800 	lhu	a0,2048(v1)
9d00a3f8:	7c043104 	ins	a0,zero,0x4,0x3
9d00a3fc:	a4640800 	sh	a0,2048(v1)
  PR2 = 15999;            // period = (PR2+1) * N * 12.5 ns = 20 us, 5 kHz
9d00a400:	24053e7f 	li	a1,15999
9d00a404:	3c04bf80 	lui	a0,0xbf80
9d00a408:	ac850820 	sw	a1,2080(a0)
  TMR2 = 0;
9d00a40c:	3c04bf80 	lui	a0,0xbf80
9d00a410:	ac800810 	sw	zero,2064(a0)
  T2CONbits.ON = 1;
9d00a414:	94640800 	lhu	a0,2048(v1)
9d00a418:	7c447bc4 	ins	a0,v0,0xf,0x1
9d00a41c:	a4640800 	sh	a0,2048(v1)
  IPC2bits.T2IP = 5;            // step 4: interrupt priority 5
9d00a420:	3c03bf88 	lui	v1,0xbf88
9d00a424:	8c6410b0 	lw	a0,4272(v1)
9d00a428:	24050005 	li	a1,5
9d00a42c:	7ca42084 	ins	a0,a1,0x2,0x3
9d00a430:	ac6410b0 	sw	a0,4272(v1)
  IPC2bits.T2IS = 0;            // step 4: interrupt subpriority 0
9d00a434:	8c6410b0 	lw	a0,4272(v1)
9d00a438:	7c040804 	ins	a0,zero,0x0,0x2
9d00a43c:	ac6410b0 	sw	a0,4272(v1)
  IFS0bits.T2IF = 0;            // step 5: clear the flag
9d00a440:	3c03bf88 	lui	v1,0xbf88
9d00a444:	8c641030 	lw	a0,4144(v1)
9d00a448:	7c044204 	ins	a0,zero,0x8,0x1
9d00a44c:	ac641030 	sw	a0,4144(v1)
  IFS0bits.T2IF = 1;            // step 5: set the flag
9d00a450:	8c641030 	lw	a0,4144(v1)
9d00a454:	7c444204 	ins	a0,v0,0x8,0x1
9d00a458:	ac641030 	sw	a0,4144(v1)
  IEC0bits.T2IE = 1;            // step 6: enable T2
9d00a45c:	3c03bf88 	lui	v1,0xbf88
9d00a460:	8c641060 	lw	a0,4192(v1)
9d00a464:	7c444204 	ins	a0,v0,0x8,0x1
9d00a468:	ac641060 	sw	a0,4192(v1)
9d00a46c:	03e00008 	jr	ra
9d00a470:	00000000 	nop

Disassembly of section .text.malloc_trim:

9d00a474 <malloc_trim>:
9d00a474:	27bdffe0 	addiu	sp,sp,-32
9d00a478:	afbf001c 	sw	ra,28(sp)
9d00a47c:	afb20018 	sw	s2,24(sp)
9d00a480:	afb10014 	sw	s1,20(sp)
9d00a484:	afb00010 	sw	s0,16(sp)
9d00a488:	0f4030f9 	jal	9d00c3e4 <getpagesize>
9d00a48c:	00809021 	move	s2,a0
9d00a490:	3c10a000 	lui	s0,0xa000
9d00a494:	261041fc 	addiu	s0,s0,16892
9d00a498:	8e030008 	lw	v1,8(s0)
9d00a49c:	8c710004 	lw	s1,4(v1)
9d00a4a0:	2403fffc 	li	v1,-4
9d00a4a4:	02238824 	and	s1,s1,v1
9d00a4a8:	02322023 	subu	a0,s1,s2
9d00a4ac:	2484ffef 	addiu	a0,a0,-17
9d00a4b0:	00822021 	addu	a0,a0,v0
9d00a4b4:	0082001b 	divu	zero,a0,v0
9d00a4b8:	004001f4 	teq	v0,zero,0x7
9d00a4bc:	00009012 	mflo	s2
9d00a4c0:	2652ffff 	addiu	s2,s2,-1
9d00a4c4:	72429002 	mul	s2,s2,v0
9d00a4c8:	0242102a 	slt	v0,s2,v0
9d00a4cc:	10400008 	beqz	v0,9d00a4f0 <malloc_trim+0x7c>
9d00a4d0:	00000000 	nop
9d00a4d4:	00001021 	move	v0,zero
9d00a4d8:	8fbf001c 	lw	ra,28(sp)
9d00a4dc:	8fb20018 	lw	s2,24(sp)
9d00a4e0:	8fb10014 	lw	s1,20(sp)
9d00a4e4:	8fb00010 	lw	s0,16(sp)
9d00a4e8:	03e00008 	jr	ra
9d00a4ec:	27bd0020 	addiu	sp,sp,32
9d00a4f0:	0f402f29 	jal	9d00bca4 <sbrk>
9d00a4f4:	00002021 	move	a0,zero
9d00a4f8:	8e030008 	lw	v1,8(s0)
9d00a4fc:	00711821 	addu	v1,v1,s1
9d00a500:	1443fff5 	bne	v0,v1,9d00a4d8 <malloc_trim+0x64>
9d00a504:	00001021 	move	v0,zero
9d00a508:	0f402f29 	jal	9d00bca4 <sbrk>
9d00a50c:	00122023 	negu	a0,s2
9d00a510:	2403ffff 	li	v1,-1
9d00a514:	1043000a 	beq	v0,v1,9d00a540 <malloc_trim+0xcc>
9d00a518:	3c02a000 	lui	v0,0xa000
9d00a51c:	8c444760 	lw	a0,18272(v0)
9d00a520:	8e030008 	lw	v1,8(s0)
9d00a524:	02328823 	subu	s1,s1,s2
9d00a528:	36310001 	ori	s1,s1,0x1
9d00a52c:	00929023 	subu	s2,a0,s2
9d00a530:	ac710004 	sw	s1,4(v1)
9d00a534:	ac524760 	sw	s2,18272(v0)
9d00a538:	0b402936 	j	9d00a4d8 <malloc_trim+0x64>
9d00a53c:	24020001 	li	v0,1
9d00a540:	0f402f29 	jal	9d00bca4 <sbrk>
9d00a544:	00002021 	move	a0,zero
9d00a548:	8e030008 	lw	v1,8(s0)
9d00a54c:	00432023 	subu	a0,v0,v1
9d00a550:	28850010 	slti	a1,a0,16
9d00a554:	54a0ffe0 	bnezl	a1,9d00a4d8 <malloc_trim+0x64>
9d00a558:	00001021 	move	v0,zero
9d00a55c:	3c05a000 	lui	a1,0xa000
9d00a560:	8ca541f4 	lw	a1,16884(a1)
9d00a564:	34840001 	ori	a0,a0,0x1
9d00a568:	00451023 	subu	v0,v0,a1
9d00a56c:	3c05a000 	lui	a1,0xa000
9d00a570:	aca24760 	sw	v0,18272(a1)
9d00a574:	0b402935 	j	9d00a4d4 <malloc_trim+0x60>
9d00a578:	ac640004 	sw	a0,4(v1)

Disassembly of section .rodata:

9d00a57c <_ctype>:
9d00a57c:	20202000 20202020 28282020 20282828     .         ((((( 
9d00a58c:	20202020 20202020 20202020 20202020                     
9d00a59c:	10108020 10101010 10101010 10101010      ...............
9d00a5ac:	04040410 04040404 10040404 10101010     ................
9d00a5bc:	41411010 41414141 01010101 01010101     ..AAAAAA........
9d00a5cc:	01010101 01010101 01010101 10101010     ................
9d00a5dc:	42421010 42424242 02020202 02020202     ..BBBBBB........
9d00a5ec:	02020202 02020202 02020202 10101010     ................
9d00a5fc:	00000020 00000000 00000000 00000000      ...............
	...

Disassembly of section .text.__ldexpf:

9d00a680 <__ldexpf>:
9d00a680:	7c863dc0 	ext	a2,a0,0x17,0x8
9d00a684:	24c8ffff 	addiu	t0,a2,-1
9d00a688:	2d0800fe 	sltiu	t0,t0,254
9d00a68c:	00044fc2 	srl	t1,a0,0x1f
9d00a690:	1100002b 	beqz	t0,9d00a740 <__ldexpf+0xc0>
9d00a694:	7c87b000 	ext	a3,a0,0x0,0x17
9d00a698:	24c6ff81 	addiu	a2,a2,-127
9d00a69c:	3c020080 	lui	v0,0x80
9d00a6a0:	00e21025 	or	v0,a3,v0
9d00a6a4:	00c53021 	addu	a2,a2,a1
9d00a6a8:	24c3007f 	addiu	v1,a2,127
9d00a6ac:	18600018 	blez	v1,9d00a710 <__ldexpf+0x90>
9d00a6b0:	000210c0 	sll	v0,v0,0x3
9d00a6b4:	30440007 	andi	a0,v0,0x7
9d00a6b8:	1480000d 	bnez	a0,9d00a6f0 <__ldexpf+0x70>
9d00a6bc:	7c4400c0 	ext	a0,v0,0x3,0x1
9d00a6c0:	286400ff 	slti	a0,v1,255
9d00a6c4:	10800024 	beqz	a0,9d00a758 <__ldexpf+0xd8>
9d00a6c8:	000210c2 	srl	v0,v0,0x3
9d00a6cc:	7c4405c0 	ext	a0,v0,0x17,0x1
9d00a6d0:	50800002 	beqzl	a0,9d00a6dc <__ldexpf+0x5c>
9d00a6d4:	00001821 	move	v1,zero
9d00a6d8:	7c42b000 	ext	v0,v0,0x0,0x17
9d00a6dc:	00094a00 	sll	t1,t1,0x8
9d00a6e0:	00691825 	or	v1,v1,t1
9d00a6e4:	00031dc0 	sll	v1,v1,0x17
9d00a6e8:	03e00008 	jr	ra
9d00a6ec:	00621025 	or	v0,v1,v0
9d00a6f0:	24420003 	addiu	v0,v0,3
9d00a6f4:	00441021 	addu	v0,v0,a0
9d00a6f8:	000226c2 	srl	a0,v0,0x1b
9d00a6fc:	1080fff1 	beqz	a0,9d00a6c4 <__ldexpf+0x44>
9d00a700:	286400ff 	slti	a0,v1,255
9d00a704:	00021042 	srl	v0,v0,0x1
9d00a708:	0b4029b0 	j	9d00a6c0 <__ldexpf+0x40>
9d00a70c:	24630001 	addiu	v1,v1,1
9d00a710:	2403ff82 	li	v1,-126
9d00a714:	00661823 	subu	v1,v1,a2
9d00a718:	2864001b 	slti	a0,v1,27
9d00a71c:	50800012 	beqzl	a0,9d00a768 <__ldexpf+0xe8>
9d00a720:	00001021 	move	v0,zero
9d00a724:	24c4009e 	addiu	a0,a2,158
9d00a728:	00822004 	sllv	a0,v0,a0
9d00a72c:	00621006 	srlv	v0,v0,v1
9d00a730:	0004182b 	sltu	v1,zero,a0
9d00a734:	00621025 	or	v0,v1,v0
9d00a738:	0b4029ad 	j	9d00a6b4 <__ldexpf+0x34>
9d00a73c:	24030001 	li	v1,1
9d00a740:	14c00003 	bnez	a2,9d00a750 <__ldexpf+0xd0>
9d00a744:	00000000 	nop
9d00a748:	14e00009 	bnez	a3,9d00a770 <__ldexpf+0xf0>
9d00a74c:	70e31820 	clz	v1,a3
9d00a750:	03e00008 	jr	ra
9d00a754:	00801021 	move	v0,a0
9d00a758:	00091200 	sll	v0,t1,0x8
9d00a75c:	344200ff 	ori	v0,v0,0xff
9d00a760:	03e00008 	jr	ra
9d00a764:	000215c0 	sll	v0,v0,0x17
9d00a768:	0b4029b7 	j	9d00a6dc <__ldexpf+0x5c>
9d00a76c:	00001821 	move	v1,zero
9d00a770:	2462fff8 	addiu	v0,v1,-8
9d00a774:	00471004 	sllv	v0,a3,v0
9d00a778:	2406ff8a 	li	a2,-118
9d00a77c:	0b4029a9 	j	9d00a6a4 <__ldexpf+0x24>
9d00a780:	00c33023 	subu	a2,a2,v1

Disassembly of section .text._flsbuf_simple:

9d00a784 <_flsbuf_simple>:
9d00a784:	27bdffd8 	addiu	sp,sp,-40
9d00a788:	afbf0024 	sw	ra,36(sp)
9d00a78c:	afb10020 	sw	s1,32(sp)
9d00a790:	afb0001c 	sw	s0,28(sp)
9d00a794:	00a08021 	move	s0,a1
9d00a798:	8ca2000c 	lw	v0,12(a1)
9d00a79c:	1040002d 	beqz	v0,9d00a854 <_flsbuf_simple+0xd0>
9d00a7a0:	00808821 	move	s1,a0
9d00a7a4:	8ca20000 	lw	v0,0(a1)
9d00a7a8:	24420001 	addiu	v0,v0,1
9d00a7ac:	2403ffff 	li	v1,-1
9d00a7b0:	1043001e 	beq	v0,v1,9d00a82c <_flsbuf_simple+0xa8>
9d00a7b4:	aca20000 	sw	v0,0(a1)
9d00a7b8:	0f402d80 	jal	9d00b600 <_fflush_simple>
9d00a7bc:	02002021 	move	a0,s0
9d00a7c0:	8e040000 	lw	a0,0(s0)
9d00a7c4:	8e020004 	lw	v0,4(s0)
9d00a7c8:	2484ffff 	addiu	a0,a0,-1
9d00a7cc:	24430001 	addiu	v1,v0,1
9d00a7d0:	ae040000 	sw	a0,0(s0)
9d00a7d4:	ae030004 	sw	v1,4(s0)
9d00a7d8:	a0510000 	sb	s1,0(v0)
9d00a7dc:	2402000a 	li	v0,10
9d00a7e0:	52220007 	beql	s1,v0,9d00a800 <_flsbuf_simple+0x7c>
9d00a7e4:	96020010 	lhu	v0,16(s0)
9d00a7e8:	02201021 	move	v0,s1
9d00a7ec:	8fbf0024 	lw	ra,36(sp)
9d00a7f0:	8fb10020 	lw	s1,32(sp)
9d00a7f4:	8fb0001c 	lw	s0,28(sp)
9d00a7f8:	03e00008 	jr	ra
9d00a7fc:	27bd0028 	addiu	sp,sp,40
9d00a800:	30420008 	andi	v0,v0,0x8
9d00a804:	1040fff9 	beqz	v0,9d00a7ec <_flsbuf_simple+0x68>
9d00a808:	02201021 	move	v0,s1
9d00a80c:	0f402d80 	jal	9d00b600 <_fflush_simple>
9d00a810:	02002021 	move	a0,s0
9d00a814:	02201021 	move	v0,s1
9d00a818:	8fbf0024 	lw	ra,36(sp)
9d00a81c:	8fb10020 	lw	s1,32(sp)
9d00a820:	8fb0001c 	lw	s0,28(sp)
9d00a824:	03e00008 	jr	ra
9d00a828:	27bd0028 	addiu	sp,sp,40
9d00a82c:	8ca20008 	lw	v0,8(a1)
9d00a830:	1440ffe1 	bnez	v0,9d00a7b8 <_flsbuf_simple+0x34>
9d00a834:	00000000 	nop
9d00a838:	94a20010 	lhu	v0,16(a1)
9d00a83c:	aca00004 	sw	zero,4(a1)
9d00a840:	aca0000c 	sw	zero,12(a1)
9d00a844:	34420010 	ori	v0,v0,0x10
9d00a848:	aca00000 	sw	zero,0(a1)
9d00a84c:	0b4029ee 	j	9d00a7b8 <_flsbuf_simple+0x34>
9d00a850:	a4a20010 	sh	v0,16(a1)
9d00a854:	27a40010 	addiu	a0,sp,16
9d00a858:	24050001 	li	a1,1
9d00a85c:	0f402f50 	jal	9d00bd40 <.LFE0>
9d00a860:	a3b10010 	sb	s1,16(sp)
9d00a864:	ae000000 	sw	zero,0(s0)
9d00a868:	02201021 	move	v0,s1
9d00a86c:	8fbf0024 	lw	ra,36(sp)
9d00a870:	8fb10020 	lw	s1,32(sp)
9d00a874:	8fb0001c 	lw	s0,28(sp)
9d00a878:	03e00008 	jr	ra
9d00a87c:	27bd0028 	addiu	sp,sp,40

Disassembly of section .text.strchr:

9d00a880 <strchr>:
9d00a880:	30820003 	andi	v0,a0,0x3
9d00a884:	14400034 	bnez	v0,9d00a958 <strchr+0xd8>
9d00a888:	30a600ff 	andi	a2,a1,0xff
9d00a88c:	30a500ff 	andi	a1,a1,0xff
9d00a890:	00054a00 	sll	t1,a1,0x8
9d00a894:	8c820000 	lw	v0,0(a0)
9d00a898:	01252825 	or	a1,t1,a1
9d00a89c:	00054c00 	sll	t1,a1,0x10
9d00a8a0:	01254825 	or	t1,t1,a1
9d00a8a4:	01221826 	xor	v1,t1,v0
9d00a8a8:	3c05fefe 	lui	a1,0xfefe
9d00a8ac:	34a5feff 	ori	a1,a1,0xfeff
9d00a8b0:	00034027 	nor	t0,zero,v1
9d00a8b4:	00651821 	addu	v1,v1,a1
9d00a8b8:	00023827 	nor	a3,zero,v0
9d00a8bc:	00451021 	addu	v0,v0,a1
9d00a8c0:	01031824 	and	v1,t0,v1
9d00a8c4:	00e21024 	and	v0,a3,v0
9d00a8c8:	00621025 	or	v0,v1,v0
9d00a8cc:	3c0a8080 	lui	t2,0x8080
9d00a8d0:	354a8080 	ori	t2,t2,0x8080
9d00a8d4:	004a1024 	and	v0,v0,t2
9d00a8d8:	54400020 	bnezl	v0,9d00a95c <strchr+0xdc>
9d00a8dc:	90820000 	lbu	v0,0(a0)
9d00a8e0:	24840004 	addiu	a0,a0,4
9d00a8e4:	8c820000 	lw	v0,0(a0)
9d00a8e8:	01221826 	xor	v1,t1,v0
9d00a8ec:	00034027 	nor	t0,zero,v1
9d00a8f0:	00651821 	addu	v1,v1,a1
9d00a8f4:	00023827 	nor	a3,zero,v0
9d00a8f8:	00451021 	addu	v0,v0,a1
9d00a8fc:	01031824 	and	v1,t0,v1
9d00a900:	00e21024 	and	v0,a3,v0
9d00a904:	00621025 	or	v0,v1,v0
9d00a908:	004a1024 	and	v0,v0,t2
9d00a90c:	54400013 	bnezl	v0,9d00a95c <strchr+0xdc>
9d00a910:	90820000 	lbu	v0,0(a0)
9d00a914:	24840004 	addiu	a0,a0,4
9d00a918:	8c820000 	lw	v0,0(a0)
9d00a91c:	01221826 	xor	v1,t1,v0
9d00a920:	00034027 	nor	t0,zero,v1
9d00a924:	00651821 	addu	v1,v1,a1
9d00a928:	00023827 	nor	a3,zero,v0
9d00a92c:	00451021 	addu	v0,v0,a1
9d00a930:	01031824 	and	v1,t0,v1
9d00a934:	00e21024 	and	v0,a3,v0
9d00a938:	00621025 	or	v0,v1,v0
9d00a93c:	004a1024 	and	v0,v0,t2
9d00a940:	5040ffe8 	beqzl	v0,9d00a8e4 <strchr+0x64>
9d00a944:	24840004 	addiu	a0,a0,4
9d00a948:	0b402a57 	j	9d00a95c <strchr+0xdc>
9d00a94c:	90820000 	lbu	v0,0(a0)
9d00a950:	10400006 	beqz	v0,9d00a96c <strchr+0xec>
9d00a954:	24840001 	addiu	a0,a0,1
9d00a958:	90820000 	lbu	v0,0(a0)
9d00a95c:	1446fffc 	bne	v0,a2,9d00a950 <strchr+0xd0>
9d00a960:	00000000 	nop
9d00a964:	03e00008 	jr	ra
9d00a968:	00801021 	move	v0,a0
9d00a96c:	03e00008 	jr	ra
9d00a970:	00001021 	move	v0,zero

Disassembly of section .text:

9d00a974 <ADC_isense>:
#include "isense.h"
#include "NU32.h"         

#define SAMPLETIME 10
 
unsigned int ADC_isense(void) { 
9d00a974:	27bdfff8 	addiu	sp,sp,-8
9d00a978:	afbf0004 	sw	ra,4(sp)
                                                                       
    unsigned int elapsed = 0;
    unsigned int finish_time = 0;
    AD1CHSbits.CH0SA = 0;                 
9d00a97c:	3c02bf81 	lui	v0,0xbf81
9d00a980:	8c439040 	lw	v1,-28608(v0)
9d00a984:	7c039c04 	ins	v1,zero,0x10,0x4
9d00a988:	ac439040 	sw	v1,-28608(v0)
    AD1CON1bits.SAMP = 1;                 
9d00a98c:	3c02bf81 	lui	v0,0xbf81
9d00a990:	94439000 	lhu	v1,-28672(v0)
9d00a994:	24040001 	li	a0,1
9d00a998:	7c830844 	ins	v1,a0,0x1,0x1
9d00a99c:	a4439000 	sh	v1,-28672(v0)
    elapsed = _CP0_GET_COUNT();
9d00a9a0:	40034800 	mfc0	v1,c0_count
    finish_time = elapsed + SAMPLETIME;
9d00a9a4:	2463000a 	addiu	v1,v1,10
    while (_CP0_GET_COUNT() < finish_time) 
9d00a9a8:	40024800 	mfc0	v0,c0_count
9d00a9ac:	0043102b 	sltu	v0,v0,v1
9d00a9b0:	1440fffd 	bnez	v0,9d00a9a8 <ADC_isense+0x34>
9d00a9b4:	3c02bf81 	lui	v0,0xbf81
    {
      ;                                   
    }
    AD1CON1bits.SAMP = 0;               
9d00a9b8:	94439000 	lhu	v1,-28672(v0)
9d00a9bc:	7c030844 	ins	v1,zero,0x1,0x1
9d00a9c0:	a4439000 	sh	v1,-28672(v0)
    while (!AD1CON1bits.DONE) 
9d00a9c4:	00401821 	move	v1,v0
9d00a9c8:	8c629000 	lw	v0,-28672(v1)
9d00a9cc:	30420001 	andi	v0,v0,0x1
9d00a9d0:	1040fffd 	beqz	v0,9d00a9c8 <ADC_isense+0x54>
9d00a9d4:	3c02bf81 	lui	v0,0xbf81
    {
      ;                                   
    }
    return ADC1BUF0;                     
9d00a9d8:	8c429070 	lw	v0,-28560(v0)
}
9d00a9dc:	8fbf0004 	lw	ra,4(sp)
9d00a9e0:	03e00008 	jr	ra
9d00a9e4:	27bd0008 	addiu	sp,sp,8

9d00a9e8 <mA_isense>:

float mA_isense(void) {
9d00a9e8:	27bdffe8 	addiu	sp,sp,-24
9d00a9ec:	afbf0014 	sw	ra,20(sp)
  //return (0.1171*ADC_isense()+492.0);
    return (0.01171*ADC_isense()-49.2);
9d00a9f0:	0f402a5d 	jal	9d00a974 <ADC_isense>
9d00a9f4:	00000000 	nop

9d00a9f8 <.LVL5>:
9d00a9f8:	0f402f3d 	jal	9d00bcf4 <.LFE4>
9d00a9fc:	00402021 	move	a0,v0
9d00aa00:	00402021 	move	a0,v0
9d00aa04:	3c029d01 	lui	v0,0x9d01
9d00aa08:	0f402662 	jal	9d009988 <.LFE4>
9d00aa0c:	8c45c2fc 	lw	a1,-15620(v0)
9d00aa10:	00402021 	move	a0,v0
9d00aa14:	3c029d01 	lui	v0,0x9d01
9d00aa18:	0f4024c7 	jal	9d00931c <__subsf3>
9d00aa1c:	8c45c300 	lw	a1,-15616(v0)
}
9d00aa20:	8fbf0014 	lw	ra,20(sp)
9d00aa24:	03e00008 	jr	ra
9d00aa28:	27bd0018 	addiu	sp,sp,24

9d00aa2c <isense_init>:

void isense_init() {
  AD1PCFGbits.PCFG0 = 0;                
9d00aa2c:	3c02bf81 	lui	v0,0xbf81
9d00aa30:	94439060 	lhu	v1,-28576(v0)
9d00aa34:	7c030004 	ins	v1,zero,0x0,0x1
9d00aa38:	a4439060 	sh	v1,-28576(v0)
  AD1CON3bits.ADCS = 2;                                             
9d00aa3c:	24030002 	li	v1,2
9d00aa40:	3c02bf81 	lui	v0,0xbf81
9d00aa44:	a0439020 	sb	v1,-28640(v0)
  AD1CON1bits.ADON = 1;                  
9d00aa48:	3c02bf81 	lui	v0,0xbf81
9d00aa4c:	94439000 	lhu	v1,-28672(v0)
9d00aa50:	24040001 	li	a0,1
9d00aa54:	7c837bc4 	ins	v1,a0,0xf,0x1
9d00aa58:	a4439000 	sh	v1,-28672(v0)
9d00aa5c:	03e00008 	jr	ra
9d00aa60:	00000000 	nop

Disassembly of section .text._mon_getc:

9d00aa64 <_mon_getc>:
9d00aa64:	27bdffe8 	addiu	sp,sp,-24
9d00aa68:	afbf0014 	sw	ra,20(sp)
9d00aa6c:	3c02a000 	lui	v0,0xa000
9d00aa70:	8c420018 	lw	v0,24(v0)
9d00aa74:	1440000a 	bnez	v0,9d00aaa0 <_mon_getc+0x3c>
9d00aa78:	24030002 	li	v1,2
9d00aa7c:	3c020000 	lui	v0,0x0
9d00aa80:	24420000 	addiu	v0,v0,0
9d00aa84:	10400029 	beqz	v0,9d00ab2c <_mon_getc+0xc8>
9d00aa88:	3c020000 	lui	v0,0x0
9d00aa8c:	0c000000 	jal	90000000 <_bmxdkpba_address+0x8ffe0000>
9d00aa90:	00000000 	nop
9d00aa94:	8fbf0014 	lw	ra,20(sp)
9d00aa98:	03e00008 	jr	ra
9d00aa9c:	27bd0018 	addiu	sp,sp,24
9d00aaa0:	1043001c 	beq	v0,v1,9d00ab14 <_mon_getc+0xb0>
9d00aaa4:	3c02bf80 	lui	v0,0xbf80
9d00aaa8:	3c02bf80 	lui	v0,0xbf80
9d00aaac:	8c426000 	lw	v0,24576(v0)
9d00aab0:	3c05bf80 	lui	a1,0xbf80
9d00aab4:	24a56030 	addiu	a1,a1,24624
9d00aab8:	3c04bf80 	lui	a0,0xbf80
9d00aabc:	24846010 	addiu	a0,a0,24592
9d00aac0:	30428000 	andi	v0,v0,0x8000
9d00aac4:	14400003 	bnez	v0,9d00aad4 <_mon_getc+0x70>
9d00aac8:	34038000 	li	v1,0x8000
9d00aacc:	3c02bf80 	lui	v0,0xbf80
9d00aad0:	ac436008 	sw	v1,24584(v0)
9d00aad4:	8c820000 	lw	v0,0(a0)
9d00aad8:	30420001 	andi	v0,v0,0x1
9d00aadc:	14400009 	bnez	v0,9d00ab04 <_mon_getc+0xa0>
9d00aae0:	240200a0 	li	v0,160
9d00aae4:	0b402abd 	j	9d00aaf4 <_mon_getc+0x90>
9d00aae8:	00000000 	nop
9d00aaec:	10400005 	beqz	v0,9d00ab04 <_mon_getc+0xa0>
9d00aaf0:	00000000 	nop
9d00aaf4:	8c830000 	lw	v1,0(a0)
9d00aaf8:	30630001 	andi	v1,v1,0x1
9d00aafc:	1060fffb 	beqz	v1,9d00aaec <_mon_getc+0x88>
9d00ab00:	2442ffff 	addiu	v0,v0,-1
9d00ab04:	8ca20000 	lw	v0,0(a1)
9d00ab08:	8fbf0014 	lw	ra,20(sp)
9d00ab0c:	03e00008 	jr	ra
9d00ab10:	27bd0018 	addiu	sp,sp,24
9d00ab14:	8c426800 	lw	v0,26624(v0)
9d00ab18:	3c05bf80 	lui	a1,0xbf80
9d00ab1c:	24a56830 	addiu	a1,a1,26672
9d00ab20:	3c04bf80 	lui	a0,0xbf80
9d00ab24:	0b402ab0 	j	9d00aac0 <_mon_getc+0x5c>
9d00ab28:	24846810 	addiu	a0,a0,26640
9d00ab2c:	24420000 	addiu	v0,v0,0
9d00ab30:	5040ffde 	beqzl	v0,9d00aaac <_mon_getc+0x48>
9d00ab34:	3c02bf80 	lui	v0,0xbf80
9d00ab38:	0c000000 	jal	90000000 <_bmxdkpba_address+0x8ffe0000>
9d00ab3c:	00000000 	nop
9d00ab40:	0b402aa6 	j	9d00aa98 <_mon_getc+0x34>
9d00ab44:	8fbf0014 	lw	ra,20(sp)

Disassembly of section .text.general_exception:

9d00ab48 <_general_exception_context>:
9d00ab48:	27bdffa8 	addiu	sp,sp,-88
9d00ab4c:	afa10004 	sw	at,4(sp)
9d00ab50:	afa20008 	sw	v0,8(sp)
9d00ab54:	afa3000c 	sw	v1,12(sp)
9d00ab58:	afa40010 	sw	a0,16(sp)
9d00ab5c:	afa50014 	sw	a1,20(sp)
9d00ab60:	afa60018 	sw	a2,24(sp)
9d00ab64:	afa7001c 	sw	a3,28(sp)
9d00ab68:	afa80020 	sw	t0,32(sp)
9d00ab6c:	afa90024 	sw	t1,36(sp)
9d00ab70:	afaa0028 	sw	t2,40(sp)
9d00ab74:	afab002c 	sw	t3,44(sp)
9d00ab78:	afac0030 	sw	t4,48(sp)
9d00ab7c:	afad0034 	sw	t5,52(sp)
9d00ab80:	afae0038 	sw	t6,56(sp)
9d00ab84:	afaf003c 	sw	t7,60(sp)
9d00ab88:	afb80040 	sw	t8,64(sp)
9d00ab8c:	afb90044 	sw	t9,68(sp)
9d00ab90:	afbf0048 	sw	ra,72(sp)
9d00ab94:	00004012 	mflo	t0
9d00ab98:	afa8004c 	sw	t0,76(sp)
9d00ab9c:	00004010 	mfhi	t0
9d00aba0:	afa80050 	sw	t0,80(sp)
9d00aba4:	3c1a9d01 	lui	k0,0x9d01
9d00aba8:	275abdd4 	addiu	k0,k0,-16940
9d00abac:	00000000 	nop
9d00abb0:	40046800 	mfc0	a0,c0_cause
9d00abb4:	40056000 	mfc0	a1,c0_status
9d00abb8:	0340f809 	jalr	k0
9d00abbc:	00000000 	nop
9d00abc0:	8fa80050 	lw	t0,80(sp)
9d00abc4:	01000011 	mthi	t0
9d00abc8:	8fa8004c 	lw	t0,76(sp)
9d00abcc:	01000013 	mtlo	t0
9d00abd0:	8fa10004 	lw	at,4(sp)
9d00abd4:	8fa20008 	lw	v0,8(sp)
9d00abd8:	8fa3000c 	lw	v1,12(sp)
9d00abdc:	8fa40010 	lw	a0,16(sp)
9d00abe0:	8fa50014 	lw	a1,20(sp)
9d00abe4:	8fa60018 	lw	a2,24(sp)
9d00abe8:	8fa7001c 	lw	a3,28(sp)
9d00abec:	8fa80020 	lw	t0,32(sp)
9d00abf0:	8fa90024 	lw	t1,36(sp)
9d00abf4:	8faa0028 	lw	t2,40(sp)
9d00abf8:	8fab002c 	lw	t3,44(sp)
9d00abfc:	8fac0030 	lw	t4,48(sp)
9d00ac00:	8fad0034 	lw	t5,52(sp)
9d00ac04:	8fae0038 	lw	t6,56(sp)
9d00ac08:	8faf003c 	lw	t7,60(sp)
9d00ac0c:	8fb80040 	lw	t8,64(sp)
9d00ac10:	8fb90044 	lw	t9,68(sp)
9d00ac14:	8fbf0048 	lw	ra,72(sp)
9d00ac18:	27bd0058 	addiu	sp,sp,88
9d00ac1c:	000000c0 	ehb
9d00ac20:	42000018 	eret

Disassembly of section .text._mon_putc:

9d00ac24 <_mon_putc>:
9d00ac24:	27bdffe8 	addiu	sp,sp,-24
9d00ac28:	afbf0014 	sw	ra,20(sp)
9d00ac2c:	3c02a000 	lui	v0,0xa000
9d00ac30:	8c420018 	lw	v0,24(v0)
9d00ac34:	1440000a 	bnez	v0,9d00ac60 <_mon_putc+0x3c>
9d00ac38:	7c042420 	seb	a0,a0
9d00ac3c:	3c020000 	lui	v0,0x0
9d00ac40:	24420000 	addiu	v0,v0,0
9d00ac44:	10400025 	beqz	v0,9d00acdc <_mon_putc+0xb8>
9d00ac48:	3c020000 	lui	v0,0x0
9d00ac4c:	0c000000 	jal	90000000 <_bmxdkpba_address+0x8ffe0000>
9d00ac50:	00000000 	nop
9d00ac54:	8fbf0014 	lw	ra,20(sp)
9d00ac58:	03e00008 	jr	ra
9d00ac5c:	27bd0018 	addiu	sp,sp,24
9d00ac60:	24030001 	li	v1,1
9d00ac64:	10430015 	beq	v0,v1,9d00acbc <_mon_putc+0x98>
9d00ac68:	3c05bf80 	lui	a1,0xbf80
9d00ac6c:	3c05bf80 	lui	a1,0xbf80
9d00ac70:	24a56820 	addiu	a1,a1,26656
9d00ac74:	3c02bf80 	lui	v0,0xbf80
9d00ac78:	24426818 	addiu	v0,v0,26648
9d00ac7c:	3c06bf80 	lui	a2,0xbf80
9d00ac80:	24c66808 	addiu	a2,a2,26632
9d00ac84:	3c03bf80 	lui	v1,0xbf80
9d00ac88:	24636810 	addiu	v1,v1,26640
9d00ac8c:	34078000 	li	a3,0x8000
9d00ac90:	acc70000 	sw	a3,0(a2)
9d00ac94:	24060400 	li	a2,1024
9d00ac98:	ac460000 	sw	a2,0(v0)
9d00ac9c:	8c620000 	lw	v0,0(v1)
9d00aca0:	30420100 	andi	v0,v0,0x100
9d00aca4:	1040fffd 	beqz	v0,9d00ac9c <_mon_putc+0x78>
9d00aca8:	00000000 	nop
9d00acac:	aca40000 	sw	a0,0(a1)
9d00acb0:	8fbf0014 	lw	ra,20(sp)
9d00acb4:	03e00008 	jr	ra
9d00acb8:	27bd0018 	addiu	sp,sp,24
9d00acbc:	24a56020 	addiu	a1,a1,24608
9d00acc0:	3c02bf80 	lui	v0,0xbf80
9d00acc4:	24426018 	addiu	v0,v0,24600
9d00acc8:	3c06bf80 	lui	a2,0xbf80
9d00accc:	24c66008 	addiu	a2,a2,24584
9d00acd0:	3c03bf80 	lui	v1,0xbf80
9d00acd4:	0b402b23 	j	9d00ac8c <_mon_putc+0x68>
9d00acd8:	24636010 	addiu	v1,v1,24592
9d00acdc:	24420000 	addiu	v0,v0,0
9d00ace0:	1040ffe3 	beqz	v0,9d00ac70 <_mon_putc+0x4c>
9d00ace4:	3c05bf80 	lui	a1,0xbf80
9d00ace8:	0c000000 	jal	90000000 <_bmxdkpba_address+0x8ffe0000>
9d00acec:	00000000 	nop
9d00acf0:	0b402b16 	j	9d00ac58 <_mon_putc+0x34>
9d00acf4:	8fbf0014 	lw	ra,20(sp)

Disassembly of section .text.libm:

9d00acf8 <fpmodf>:
9d00acf8:	00043dc2 30e700ff 3c088000 00043200     .=.....0...<.2..
9d00ad08:	00c83025 01044024 240100ff 10e10028     %0..$@.....$(...
9d00ad18:	00000000 00064825 00075025 00085825     ....%H..%P..%X..
9d00ad28:	240c009e 01876023 19800006 00000000     ...$#`..........
9d00ad38:	29810020 1020001c 00000000 01894806      ..).. ......H..
9d00ad48:	01894804                                .H..

9d00ad4c <Dlab3>:
9d00ad4c:	00096040 	sll	t4,t1,0x1
9d00ad50:	000c6242 	srl	t4,t4,0x9
9d00ad54:	000a6dc0 	sll	t5,t2,0x17
9d00ad58:	018d6025 	or	t4,t4,t5
9d00ad5c:	018b6825 	or	t5,t4,t3
9d00ad60:	acad0000 	sw	t5,0(a1)
9d00ad64:	00ea6023 	subu	t4,a3,t2
9d00ad68:	2d810020 	sltiu	at,t4,32
9d00ad6c:	14200002 	bnez	at,9d00ad78 <L2>
9d00ad70:	00000000 	nop
9d00ad74:	34090000 	li	t1,0x0

9d00ad78 <L2>:
9d00ad78:	01894806 	srlv	t1,t1,t4
9d00ad7c:	00c93023 	subu	a2,a2,t1
9d00ad80:	10c00008 	beqz	a2,9d00ada4 <Dret2>
9d00ad84:	00000000 	nop
9d00ad88:	70cc6020 	clz	t4,a2
9d00ad8c:	00ec3823 	subu	a3,a3,t4
9d00ad90:	01863004 	sllv	a2,a2,t4

9d00ad94 <Dret>:
9d00ad94:	00063040 	sll	a2,a2,0x1
9d00ad98:	00063242 	srl	a2,a2,0x9
9d00ad9c:	00076dc0 	sll	t5,a3,0x17
9d00ada0:	00cd3025 	or	a2,a2,t5

9d00ada4 <Dret2>:
9d00ada4:	00c81025 	or	v0,a2,t0

9d00ada8 <D999>:
9d00ada8:	03e00008 	jr	ra
9d00adac:	00000000 	nop

9d00adb0 <Dzer>:
9d00adb0:	1000fff8 	b	9d00ad94 <Dret>
9d00adb4:	aca80000 	sw	t0,0(a1)

9d00adb8 <Dinfnan>:
9d00adb8:	3c04ffc0 	lui	a0,0xffc0
9d00adbc:	aca40000 	sw	a0,0(a1)
9d00adc0:	1000fff9 	b	9d00ada8 <D999>
9d00adc4:	00041025 	or	v0,zero,a0
9d00adc8:	00000000 	nop

Disassembly of section .text._sbrk:

9d00adcc <_sbrk>:
9d00adcc:	27bdffe0 	addiu	sp,sp,-32
9d00add0:	afbf001c 	sw	ra,28(sp)
9d00add4:	afb00018 	sw	s0,24(sp)
9d00add8:	3c10a000 	lui	s0,0xa000
9d00addc:	8e0247ac 	lw	v0,18348(s0)
9d00ade0:	10400010 	beqz	v0,9d00ae24 <_sbrk+0x58>
9d00ade4:	00000000 	nop
9d00ade8:	1880001b 	blez	a0,9d00ae58 <_sbrk+0x8c>
9d00adec:	00441821 	addu	v1,v0,a0
9d00adf0:	0062202b 	sltu	a0,v1,v0
9d00adf4:	54800011 	bnezl	a0,9d00ae3c <_sbrk+0x70>
9d00adf8:	2403000c 	li	v1,12
9d00adfc:	3c04a000 	lui	a0,0xa000
9d00ae00:	8c8447b0 	lw	a0,18352(a0)
9d00ae04:	0083202b 	sltu	a0,a0,v1
9d00ae08:	5480000c 	bnezl	a0,9d00ae3c <_sbrk+0x70>
9d00ae0c:	2403000c 	li	v1,12
9d00ae10:	ae0347ac 	sw	v1,18348(s0)
9d00ae14:	8fbf001c 	lw	ra,28(sp)
9d00ae18:	8fb00018 	lw	s0,24(sp)
9d00ae1c:	03e00008 	jr	ra
9d00ae20:	27bd0020 	addiu	sp,sp,32
9d00ae24:	0f40273b 	jal	9d009cec <.LFE23>
9d00ae28:	afa40010 	sw	a0,16(sp)
9d00ae2c:	8e0247ac 	lw	v0,18348(s0)
9d00ae30:	1440ffed 	bnez	v0,9d00ade8 <_sbrk+0x1c>
9d00ae34:	8fa40010 	lw	a0,16(sp)
9d00ae38:	2403000c 	li	v1,12
9d00ae3c:	3c02a000 	lui	v0,0xa000
9d00ae40:	ac430050 	sw	v1,80(v0)
9d00ae44:	2402ffff 	li	v0,-1
9d00ae48:	8fbf001c 	lw	ra,28(sp)
9d00ae4c:	8fb00018 	lw	s0,24(sp)
9d00ae50:	03e00008 	jr	ra
9d00ae54:	27bd0020 	addiu	sp,sp,32
9d00ae58:	0043202b 	sltu	a0,v0,v1
9d00ae5c:	14800005 	bnez	a0,9d00ae74 <_sbrk+0xa8>
9d00ae60:	3c04a000 	lui	a0,0xa000
9d00ae64:	8c8447b4 	lw	a0,18356(a0)
9d00ae68:	0064202b 	sltu	a0,v1,a0
9d00ae6c:	5080ffe9 	beqzl	a0,9d00ae14 <_sbrk+0x48>
9d00ae70:	ae0347ac 	sw	v1,18348(s0)
9d00ae74:	24030016 	li	v1,22
9d00ae78:	3c02a000 	lui	v0,0xa000
9d00ae7c:	ac430050 	sw	v1,80(v0)
9d00ae80:	2402ffff 	li	v0,-1
9d00ae84:	8fbf001c 	lw	ra,28(sp)
9d00ae88:	8fb00018 	lw	s0,24(sp)
9d00ae8c:	03e00008 	jr	ra
9d00ae90:	27bd0020 	addiu	sp,sp,32

Disassembly of section .text:

9d00ae94 <GetMode>:
#include "utilities.h"

static volatile Mode mode = IDLE;

int GetMode(void) {
  return mode;
9d00ae94:	8f82805c 	lw	v0,-32676(gp)
}
9d00ae98:	03e00008 	jr	ra
9d00ae9c:	00000000 	nop

9d00aea0 <get_mode_str>:

char * get_mode_str(void) {
  switch(mode) {
9d00aea0:	8f82805c 	lw	v0,-32676(gp)
9d00aea4:	2c430005 	sltiu	v1,v0,5
9d00aea8:	10600015 	beqz	v1,9d00af00 <get_mode_str+0x60>
9d00aeac:	3c039d01 	lui	v1,0x9d01
9d00aeb0:	00021080 	sll	v0,v0,0x2
9d00aeb4:	2463aec8 	addiu	v1,v1,-20792
9d00aeb8:	00621021 	addu	v0,v1,v0
9d00aebc:	8c420000 	lw	v0,0(v0)
9d00aec0:	00400008 	jr	v0
9d00aec4:	00000000 	nop
9d00aec8:	9d00af08 	0x9d00af08
9d00aecc:	9d00af14 	0x9d00af14
9d00aed0:	9d00aedc 	0x9d00aedc
9d00aed4:	9d00aee8 	0x9d00aee8
9d00aed8:	9d00aef4 	0x9d00aef4
    case PWM: {
      return "PWM";
      break;
    }
    case ITEST: {
      return "ITEST";
9d00aedc:	3c029d01 	lui	v0,0x9d01
9d00aee0:	03e00008 	jr	ra
9d00aee4:	2442c138 	addiu	v0,v0,-16072
      break;
    }
    case HOLD: {
      return "HOLD";
9d00aee8:	3c029d01 	lui	v0,0x9d01
9d00aeec:	03e00008 	jr	ra
9d00aef0:	2442c140 	addiu	v0,v0,-16064
      break;
    }
    case TRACK: {
      return "TRACK";
9d00aef4:	3c029d01 	lui	v0,0x9d01
9d00aef8:	03e00008 	jr	ra
9d00aefc:	2442c148 	addiu	v0,v0,-16056
9d00af00:	03e00008 	jr	ra
9d00af04:	00000000 	nop
}

char * get_mode_str(void) {
  switch(mode) {
    case IDLE: {
      return "IDLE";
9d00af08:	3c029d01 	lui	v0,0x9d01
9d00af0c:	03e00008 	jr	ra
9d00af10:	2442c12c 	addiu	v0,v0,-16084
      break;
    }
    case PWM: {
      return "PWM";
9d00af14:	3c029d01 	lui	v0,0x9d01
    case TRACK: {
      return "TRACK";
      break;
    }
  }
}
9d00af18:	03e00008 	jr	ra
9d00af1c:	2442c134 	addiu	v0,v0,-16076

9d00af20 <SetMode>:

void SetMode(Mode m) {
9d00af20:	27bdfff8 	addiu	sp,sp,-8
9d00af24:	afbf0004 	sw	ra,4(sp)
  __builtin_disable_interrupts();
9d00af28:	41626000 	di	v0
9d00af2c:	000000c0 	ehb
  mode = m;
9d00af30:	af84805c 	sw	a0,-32676(gp)
  __builtin_enable_interrupts();
9d00af34:	41626020 	ei	v0
}
9d00af38:	8fbf0004 	lw	ra,4(sp)
9d00af3c:	03e00008 	jr	ra
9d00af40:	27bd0008 	addiu	sp,sp,8

Disassembly of section .text.fputc:

9d00af44 <fputc>:
9d00af44:	27bdffe0 	addiu	sp,sp,-32
9d00af48:	afbf001c 	sw	ra,28(sp)
9d00af4c:	afb10018 	sw	s1,24(sp)
9d00af50:	afb00014 	sw	s0,20(sp)
9d00af54:	00a08021 	move	s0,a1
9d00af58:	8ca20018 	lw	v0,24(a1)
9d00af5c:	00808821 	move	s1,a0
9d00af60:	24050001 	li	a1,1
9d00af64:	8c420010 	lw	v0,16(v0)
9d00af68:	0040f809 	jalr	v0
9d00af6c:	02002021 	move	a0,s0
9d00af70:	1040000e 	beqz	v0,9d00afac <fputc+0x68>
9d00af74:	2402ffff 	li	v0,-1
9d00af78:	8e020000 	lw	v0,0(s0)
9d00af7c:	2442ffff 	addiu	v0,v0,-1
9d00af80:	04400011 	bltz	v0,9d00afc8 <fputc+0x84>
9d00af84:	ae020000 	sw	v0,0(s0)
9d00af88:	96020010 	lhu	v0,16(s0)
9d00af8c:	30420008 	andi	v0,v0,0x8
9d00af90:	1440000b 	bnez	v0,9d00afc0 <fputc+0x7c>
9d00af94:	2402000a 	li	v0,10
9d00af98:	8e030004 	lw	v1,4(s0)
9d00af9c:	02201021 	move	v0,s1
9d00afa0:	24640001 	addiu	a0,v1,1
9d00afa4:	ae040004 	sw	a0,4(s0)
9d00afa8:	a0710000 	sb	s1,0(v1)
9d00afac:	8fbf001c 	lw	ra,28(sp)
9d00afb0:	8fb10018 	lw	s1,24(sp)
9d00afb4:	8fb00014 	lw	s0,20(sp)
9d00afb8:	03e00008 	jr	ra
9d00afbc:	27bd0020 	addiu	sp,sp,32
9d00afc0:	5622fff6 	bnel	s1,v0,9d00af9c <fputc+0x58>
9d00afc4:	8e030004 	lw	v1,4(s0)
9d00afc8:	8e020018 	lw	v0,24(s0)
9d00afcc:	02202021 	move	a0,s1
9d00afd0:	8c420004 	lw	v0,4(v0)
9d00afd4:	0040f809 	jalr	v0
9d00afd8:	02002821 	move	a1,s0
9d00afdc:	8fbf001c 	lw	ra,28(sp)
9d00afe0:	8fb10018 	lw	s1,24(sp)
9d00afe4:	8fb00014 	lw	s0,20(sp)
9d00afe8:	03e00008 	jr	ra
9d00afec:	27bd0020 	addiu	sp,sp,32

Disassembly of section .text.fptodp:

9d00aff0 <__extendsfdf2>:
9d00aff0:	00043dc2 30e700ff 3c018000 00813024     .=.....0...<$0..
9d00b000:	24e9ffff 2d2100fe 1020000d 00000000     ...$..!-.. .....

9d00b010 <Glab1>:
9d00b010:	24e70380 	addiu	a3,a3,896
9d00b014:	00044a40 	sll	t1,a0,0x9
9d00b018:	00094b02 	srl	t1,t1,0xc
9d00b01c:	00c93025 	or	a2,a2,t1
9d00b020:	00042f40 	sll	a1,a0,0x1d

9d00b024 <Gret>:
9d00b024:	00074d00 	sll	t1,a3,0x14
9d00b028:	00c93025 	or	a2,a2,t1
9d00b02c:	00051025 	or	v0,zero,a1
9d00b030:	00061825 	or	v1,zero,a2

9d00b034 <G999>:
9d00b034:	03e00008 	jr	ra
9d00b038:	00000000 	nop
9d00b03c:	00000000 	nop

9d00b040 <Gspec>:
9d00b040:	24050000 	li	a1,0
9d00b044:	00842021 	addu	a0,a0,a0
9d00b048:	1080fff6 	beqz	a0,9d00b024 <Gret>
9d00b04c:	00000000 	nop
9d00b050:	14e00009 	bnez	a3,9d00b078 <i42>
9d00b054:	00000000 	nop

9d00b058 <b43>:
9d00b058:	24e7ffff 	addiu	a3,a3,-1
9d00b05c:	00842021 	addu	a0,a0,a0
9d00b060:	3c010080 	lui	at,0x80
9d00b064:	0081082b 	sltu	at,a0,at
9d00b068:	1420fffb 	bnez	at,9d00b058 <b43>
9d00b06c:	00000000 	nop
9d00b070:	1000ffe7 	b	9d00b010 <Glab1>
9d00b074:	00000000 	nop

9d00b078 <i42>:
9d00b078:	240707ff 	li	a3,2047
9d00b07c:	3c01ff00 	lui	at,0xff00
9d00b080:	34210001 	ori	at,at,0x1
9d00b084:	0081082b 	sltu	at,a0,at
9d00b088:	1420ffe6 	bnez	at,9d00b024 <Gret>
9d00b08c:	00000000 	nop
9d00b090:	1000ffe4 	b	9d00b024 <Gret>
9d00b094:	3c06fff8 	lui	a2,0xfff8
9d00b098:	00000000 	nop

Disassembly of section .text._fullexit:

9d00b09c <_fullexit>:
9d00b09c:	27bdffe0 	addiu	sp,sp,-32
9d00b0a0:	afbf001c 	sw	ra,28(sp)
9d00b0a4:	afb20018 	sw	s2,24(sp)
9d00b0a8:	afb10014 	sw	s1,20(sp)
9d00b0ac:	afb00010 	sw	s0,16(sp)
9d00b0b0:	3c10a000 	lui	s0,0xa000
9d00b0b4:	3c11a000 	lui	s1,0xa000
9d00b0b8:	00809021 	move	s2,a0
9d00b0bc:	0f4030d3 	jal	9d00c34c <_weak_pthread_mutex_lock>
9d00b0c0:	260447b8 	addiu	a0,s0,18360
9d00b0c4:	8e220014 	lw	v0,20(s1)
9d00b0c8:	260447b8 	addiu	a0,s0,18360
9d00b0cc:	24030001 	li	v1,1
9d00b0d0:	0f4030d7 	jal	9d00c35c <_weak_pthread_mutex_unlock>
9d00b0d4:	ac430038 	sw	v1,56(v0)
9d00b0d8:	8e220014 	lw	v0,20(s1)
9d00b0dc:	8c500010 	lw	s0,16(v0)
9d00b0e0:	5600000a 	bnezl	s0,9d00b10c <_fullexit+0x70>
9d00b0e4:	8e020004 	lw	v0,4(s0)
9d00b0e8:	0b402c4a 	j	9d00b128 <_fullexit+0x8c>
9d00b0ec:	8c420034 	lw	v0,52(v0)
9d00b0f0:	00031880 	sll	v1,v1,0x2
9d00b0f4:	02031821 	addu	v1,s0,v1
9d00b0f8:	8c630000 	lw	v1,0(v1)
9d00b0fc:	2442ffff 	addiu	v0,v0,-1
9d00b100:	0060f809 	jalr	v1
9d00b104:	ae020004 	sw	v0,4(s0)
9d00b108:	8e020004 	lw	v0,4(s0)
9d00b10c:	1c40fff8 	bgtz	v0,9d00b0f0 <_fullexit+0x54>
9d00b110:	24430001 	addiu	v1,v0,1
9d00b114:	8e100000 	lw	s0,0(s0)
9d00b118:	5600fffc 	bnezl	s0,9d00b10c <_fullexit+0x70>
9d00b11c:	8e020004 	lw	v0,4(s0)
9d00b120:	8e220014 	lw	v0,20(s1)
9d00b124:	8c420034 	lw	v0,52(v0)
9d00b128:	10400003 	beqz	v0,9d00b138 <_fullexit+0x9c>
9d00b12c:	00000000 	nop
9d00b130:	0040f809 	jalr	v0
9d00b134:	00000000 	nop
9d00b138:	0f4030fb 	jal	9d00c3ec <.LFE0>
9d00b13c:	02402021 	move	a0,s2

Disassembly of section .text._o_init:

9d00b140 <_o_init>:
9d00b140:	27bdffe8 	addiu	sp,sp,-24
9d00b144:	afbf0014 	sw	ra,20(sp)
9d00b148:	afb00010 	sw	s0,16(sp)
9d00b14c:	00808021 	move	s0,a0
9d00b150:	3c02a000 	lui	v0,0xa000
9d00b154:	8c430014 	lw	v1,20(v0)
9d00b158:	8c820008 	lw	v0,8(a0)
9d00b15c:	3c059d01 	lui	a1,0x9d01
9d00b160:	24a5c07c 	addiu	a1,a1,-16260
9d00b164:	1040001b 	beqz	v0,9d00b1d4 <_o_init+0x94>
9d00b168:	ac650034 	sw	a1,52(v1)
9d00b16c:	8e03000c 	lw	v1,12(s0)
9d00b170:	50600004 	beqzl	v1,9d00b184 <_o_init+0x44>
9d00b174:	96020010 	lhu	v0,16(s0)
9d00b178:	8e020008 	lw	v0,8(s0)
9d00b17c:	ae020004 	sw	v0,4(s0)
9d00b180:	96020010 	lhu	v0,16(s0)
9d00b184:	ae030000 	sw	v1,0(s0)
9d00b188:	34430002 	ori	v1,v0,0x2
9d00b18c:	30441000 	andi	a0,v0,0x1000
9d00b190:	10800006 	beqz	a0,9d00b1ac <_o_init+0x6c>
9d00b194:	a6030010 	sh	v1,16(s0)
9d00b198:	30420008 	andi	v0,v0,0x8
9d00b19c:	14400007 	bnez	v0,9d00b1bc <_o_init+0x7c>
9d00b1a0:	00000000 	nop
9d00b1a4:	3063efff 	andi	v1,v1,0xefff
9d00b1a8:	a6030010 	sh	v1,16(s0)
9d00b1ac:	8fbf0014 	lw	ra,20(sp)
9d00b1b0:	8fb00010 	lw	s0,16(sp)
9d00b1b4:	03e00008 	jr	ra
9d00b1b8:	27bd0018 	addiu	sp,sp,24
9d00b1bc:	0f4030fd 	jal	9d00c3f4 <.LFE0>
9d00b1c0:	86040012 	lh	a0,18(s0)
9d00b1c4:	1440fff7 	bnez	v0,9d00b1a4 <_o_init+0x64>
9d00b1c8:	96030010 	lhu	v1,16(s0)
9d00b1cc:	0b402c69 	j	9d00b1a4 <_o_init+0x64>
9d00b1d0:	3063fff7 	andi	v1,v1,0xfff7
9d00b1d4:	0f402e87 	jal	9d00ba1c <_bufalloc>
9d00b1d8:	00000000 	nop
9d00b1dc:	0b402c5c 	j	9d00b170 <_o_init+0x30>
9d00b1e0:	8e03000c 	lw	v1,12(s0)

Disassembly of section .text:

9d00b1e4 <positioncontrol_init>:
#include "utilities.h"
#include "positioncontrol.h"


void positioncontrol_init(void) {
  TRISDbits.TRISD6 = 0;
9d00b1e4:	3c02bf88 	lui	v0,0xbf88
9d00b1e8:	944360c0 	lhu	v1,24768(v0)
9d00b1ec:	7c033184 	ins	v1,zero,0x6,0x1
9d00b1f0:	a44360c0 	sh	v1,24768(v0)

//Timer4
  T4CONbits.TCKPS = 0b110;            // Timer4 prescaler N=64 (1:64)
9d00b1f4:	3c03bf80 	lui	v1,0xbf80
9d00b1f8:	94620c00 	lhu	v0,3072(v1)
9d00b1fc:	24040006 	li	a0,6
9d00b200:	7c823104 	ins	v0,a0,0x4,0x3
9d00b204:	a4620c00 	sh	v0,3072(v1)
  PR4 = 6249;                  // period = (PR4+1) * N * 12.5 ns = 5 us, 200 Hz
9d00b208:	24041869 	li	a0,6249
9d00b20c:	3c02bf80 	lui	v0,0xbf80
9d00b210:	ac440c20 	sw	a0,3104(v0)
  TMR4 = 0;
9d00b214:	3c02bf80 	lui	v0,0xbf80
9d00b218:	ac400c10 	sw	zero,3088(v0)
  T4CONbits.ON = 1;
9d00b21c:	94640c00 	lhu	a0,3072(v1)
9d00b220:	24020001 	li	v0,1
9d00b224:	7c447bc4 	ins	a0,v0,0xf,0x1
9d00b228:	a4640c00 	sh	a0,3072(v1)
  IPC4bits.T4IP = 2;            // step 4: interrupt priority 2
9d00b22c:	3c03bf88 	lui	v1,0xbf88
9d00b230:	8c6410d0 	lw	a0,4304(v1)
9d00b234:	24050002 	li	a1,2
9d00b238:	7ca42084 	ins	a0,a1,0x2,0x3
9d00b23c:	ac6410d0 	sw	a0,4304(v1)
  IPC4bits.T4IS = 1;            // step 4: interrupt subpriority 1
9d00b240:	8c6410d0 	lw	a0,4304(v1)
9d00b244:	7c440804 	ins	a0,v0,0x0,0x2
9d00b248:	ac6410d0 	sw	a0,4304(v1)
  IFS0bits.T4IF = 0;            // step 5: clear the flag
9d00b24c:	3c03bf88 	lui	v1,0xbf88
9d00b250:	8c641030 	lw	a0,4144(v1)
9d00b254:	7c048404 	ins	a0,zero,0x10,0x1
9d00b258:	ac641030 	sw	a0,4144(v1)
  IFS0bits.T4IF = 1;            // step 5: set the flag
9d00b25c:	8c641030 	lw	a0,4144(v1)
9d00b260:	7c448404 	ins	a0,v0,0x10,0x1
9d00b264:	ac641030 	sw	a0,4144(v1)
  IEC0bits.T4IE = 1;            // step 6: enable T4
9d00b268:	3c03bf88 	lui	v1,0xbf88
9d00b26c:	8c641060 	lw	a0,4192(v1)
9d00b270:	7c448404 	ins	a0,v0,0x10,0x1
9d00b274:	ac641060 	sw	a0,4192(v1)
9d00b278:	03e00008 	jr	ra
9d00b27c:	00000000 	nop

Disassembly of section .text.fpcmp:

9d00b280 <__eqsf2>:
9d00b280:	2408fffe 00043040 00053840 00c74825     ...$@0..@8..%H..
9d00b290:	1120001b 00000000 3c01ff00 34210001     .. ........<..!4
9d00b2a0:	00c1082b 1020001a 00000000 3c01ff00     +..... ........<
9d00b2b0:	34210001 00e1082b 10200015 00000000     ..!4+..... .....
9d00b2c0:	04810002 00063042 00063023              ....B0..#0..

9d00b2cc <i48>:
9d00b2cc:	04a10002 	bgez	a1,9d00b2d8 <i49>
9d00b2d0:	00073842 	srl	a3,a3,0x1
9d00b2d4:	00073823 	negu	a3,a3

9d00b2d8 <i49>:
9d00b2d8:	00c7082a 	slt	at,a2,a3
9d00b2dc:	10200003 	beqz	at,9d00b2ec <i50>
9d00b2e0:	00000000 	nop
9d00b2e4:	10000007 	b	9d00b304 <J999>
9d00b2e8:	2402ffff 	li	v0,-1

9d00b2ec <i50>:
9d00b2ec:	00e6082a 	slt	at,a3,a2
9d00b2f0:	10200003 	beqz	at,9d00b300 <Jequ>
9d00b2f4:	00000000 	nop
9d00b2f8:	10000002 	b	9d00b304 <J999>
9d00b2fc:	24020001 	li	v0,1

9d00b300 <Jequ>:
9d00b300:	24020000 	li	v0,0

9d00b304 <J999>:
9d00b304:	03e00008 	jr	ra
9d00b308:	00000000 	nop
9d00b30c:	00000000 	nop

9d00b310 <Jnan>:
9d00b310:	1000fffc 	b	9d00b304 <J999>
9d00b314:	00081025 	or	v0,zero,t0
9d00b318:	00000000 	nop

Disassembly of section .text.repl:

9d00b31c <repl>:
9d00b31c:	27bdffd8 	addiu	sp,sp,-40
9d00b320:	afbf0024 	sw	ra,36(sp)
9d00b324:	afb40020 	sw	s4,32(sp)
9d00b328:	afb3001c 	sw	s3,28(sp)
9d00b32c:	afb20018 	sw	s2,24(sp)
9d00b330:	afb10014 	sw	s1,20(sp)
9d00b334:	afb00010 	sw	s0,16(sp)
9d00b338:	00a08021 	move	s0,a1
9d00b33c:	0080a021 	move	s4,a0
9d00b340:	00c09821 	move	s3,a2
9d00b344:	24120020 	li	s2,32
9d00b348:	2411ffff 	li	s1,-1
9d00b34c:	12000011 	beqz	s0,9d00b394 <repl+0x78>
9d00b350:	2e020021 	sltiu	v0,s0,33
9d00b354:	02401821 	move	v1,s2
9d00b358:	0202180b 	movn	v1,s0,v0
9d00b35c:	02602021 	move	a0,s3
9d00b360:	00602821 	move	a1,v1
9d00b364:	02803021 	move	a2,s4
9d00b368:	0f402e53 	jal	9d00b94c <__sputn>
9d00b36c:	02038023 	subu	s0,s0,v1
9d00b370:	1451fff6 	bne	v0,s1,9d00b34c <repl+0x30>
9d00b374:	8fbf0024 	lw	ra,36(sp)
9d00b378:	8fb40020 	lw	s4,32(sp)
9d00b37c:	8fb3001c 	lw	s3,28(sp)
9d00b380:	8fb20018 	lw	s2,24(sp)
9d00b384:	8fb10014 	lw	s1,20(sp)
9d00b388:	8fb00010 	lw	s0,16(sp)
9d00b38c:	03e00008 	jr	ra
9d00b390:	27bd0028 	addiu	sp,sp,40
9d00b394:	00001021 	move	v0,zero
9d00b398:	8fbf0024 	lw	ra,36(sp)
9d00b39c:	8fb40020 	lw	s4,32(sp)
9d00b3a0:	8fb3001c 	lw	s3,28(sp)
9d00b3a4:	8fb20018 	lw	s2,24(sp)
9d00b3a8:	8fb10014 	lw	s1,20(sp)
9d00b3ac:	8fb00010 	lw	s0,16(sp)
9d00b3b0:	03e00008 	jr	ra
9d00b3b4:	27bd0028 	addiu	sp,sp,40

Disassembly of section .text._eat_white:

9d00b3b8 <_eat_white>:
9d00b3b8:	27bdffe0 	addiu	sp,sp,-32
9d00b3bc:	afbf001c 	sw	ra,28(sp)
9d00b3c0:	afb20018 	sw	s2,24(sp)
9d00b3c4:	afb10014 	sw	s1,20(sp)
9d00b3c8:	afb00010 	sw	s0,16(sp)
9d00b3cc:	00808021 	move	s0,a0
9d00b3d0:	2411ffff 	li	s1,-1
9d00b3d4:	3c129d01 	lui	s2,0x9d01
9d00b3d8:	0b402cfc 	j	9d00b3f0 <_eat_white+0x38>
9d00b3dc:	2652a57d 	addiu	s2,s2,-23171
9d00b3e0:	80630000 	lb	v1,0(v1)
9d00b3e4:	30630088 	andi	v1,v1,0x88
9d00b3e8:	50600010 	beqzl	v1,9d00b42c <_eat_white+0x74>
9d00b3ec:	8e030010 	lw	v1,16(s0)
9d00b3f0:	0f402ea1 	jal	9d00ba84 <gsgetc>
9d00b3f4:	02002021 	move	a0,s0
9d00b3f8:	1451fff9 	bne	v0,s1,9d00b3e0 <_eat_white+0x28>
9d00b3fc:	00521821 	addu	v1,v0,s2
9d00b400:	8e030010 	lw	v1,16(s0)
9d00b404:	ae110004 	sw	s1,4(s0)
9d00b408:	2402ffff 	li	v0,-1
9d00b40c:	2463ffff 	addiu	v1,v1,-1
9d00b410:	ae030010 	sw	v1,16(s0)
9d00b414:	8fbf001c 	lw	ra,28(sp)
9d00b418:	8fb20018 	lw	s2,24(sp)
9d00b41c:	8fb10014 	lw	s1,20(sp)
9d00b420:	8fb00010 	lw	s0,16(sp)
9d00b424:	03e00008 	jr	ra
9d00b428:	27bd0020 	addiu	sp,sp,32
9d00b42c:	ae020004 	sw	v0,4(s0)
9d00b430:	00001021 	move	v0,zero
9d00b434:	2463ffff 	addiu	v1,v1,-1
9d00b438:	ae030010 	sw	v1,16(s0)
9d00b43c:	8fbf001c 	lw	ra,28(sp)
9d00b440:	8fb20018 	lw	s2,24(sp)
9d00b444:	8fb10014 	lw	s1,20(sp)
9d00b448:	8fb00010 	lw	s0,16(sp)
9d00b44c:	03e00008 	jr	ra
9d00b450:	27bd0020 	addiu	sp,sp,32

Disassembly of section .text._i_init:

9d00b454 <_i_init>:
9d00b454:	27bdffe8 	addiu	sp,sp,-24
9d00b458:	afbf0014 	sw	ra,20(sp)
9d00b45c:	afb00010 	sw	s0,16(sp)
9d00b460:	8c820008 	lw	v0,8(a0)
9d00b464:	1040001d 	beqz	v0,9d00b4dc <_i_init+0x88>
9d00b468:	00808021 	move	s0,a0
9d00b46c:	8e02000c 	lw	v0,12(s0)
9d00b470:	54400012 	bnezl	v0,9d00b4bc <_i_init+0x68>
9d00b474:	8e020008 	lw	v0,8(s0)
9d00b478:	2402ffff 	li	v0,-1
9d00b47c:	ae020004 	sw	v0,4(s0)
9d00b480:	96020010 	lhu	v0,16(s0)
9d00b484:	ae000000 	sw	zero,0(s0)
9d00b488:	34430001 	ori	v1,v0,0x1
9d00b48c:	30441000 	andi	a0,v0,0x1000
9d00b490:	10800006 	beqz	a0,9d00b4ac <_i_init+0x58>
9d00b494:	a6030010 	sh	v1,16(s0)
9d00b498:	30420008 	andi	v0,v0,0x8
9d00b49c:	14400009 	bnez	v0,9d00b4c4 <_i_init+0x70>
9d00b4a0:	00000000 	nop
9d00b4a4:	3063efff 	andi	v1,v1,0xefff
9d00b4a8:	a6030010 	sh	v1,16(s0)
9d00b4ac:	8fbf0014 	lw	ra,20(sp)
9d00b4b0:	8fb00010 	lw	s0,16(sp)
9d00b4b4:	03e00008 	jr	ra
9d00b4b8:	27bd0018 	addiu	sp,sp,24
9d00b4bc:	0b402d20 	j	9d00b480 <_i_init+0x2c>
9d00b4c0:	ae020004 	sw	v0,4(s0)
9d00b4c4:	0f4030fd 	jal	9d00c3f4 <.LFE0>
9d00b4c8:	86040012 	lh	a0,18(s0)
9d00b4cc:	1440fff5 	bnez	v0,9d00b4a4 <_i_init+0x50>
9d00b4d0:	96030010 	lhu	v1,16(s0)
9d00b4d4:	0b402d29 	j	9d00b4a4 <_i_init+0x50>
9d00b4d8:	3063fff7 	andi	v1,v1,0xfff7
9d00b4dc:	0f402e87 	jal	9d00ba1c <_bufalloc>
9d00b4e0:	00000000 	nop
9d00b4e4:	0b402d1c 	j	9d00b470 <_i_init+0x1c>
9d00b4e8:	8e02000c 	lw	v0,12(s0)

Disassembly of section .text.strlen:

9d00b4ec <strlen>:
9d00b4ec:	30830003 	andi	v1,a0,0x3
9d00b4f0:	1460001e 	bnez	v1,9d00b56c <strlen+0x80>
9d00b4f4:	00801021 	move	v0,a0
9d00b4f8:	8c820000 	lw	v0,0(a0)
9d00b4fc:	3c07fefe 	lui	a3,0xfefe
9d00b500:	34e7feff 	ori	a3,a3,0xfeff
9d00b504:	00471821 	addu	v1,v0,a3
9d00b508:	00021027 	nor	v0,zero,v0
9d00b50c:	3c068080 	lui	a2,0x8080
9d00b510:	34c68080 	ori	a2,a2,0x8080
9d00b514:	00621824 	and	v1,v1,v0
9d00b518:	00661824 	and	v1,v1,a2
9d00b51c:	14600013 	bnez	v1,9d00b56c <strlen+0x80>
9d00b520:	00801021 	move	v0,a0
9d00b524:	24420004 	addiu	v0,v0,4
9d00b528:	8c430000 	lw	v1,0(v0)
9d00b52c:	00672821 	addu	a1,v1,a3
9d00b530:	00031827 	nor	v1,zero,v1
9d00b534:	00a31824 	and	v1,a1,v1
9d00b538:	00661824 	and	v1,v1,a2
9d00b53c:	5460000c 	bnezl	v1,9d00b570 <strlen+0x84>
9d00b540:	80430000 	lb	v1,0(v0)
9d00b544:	24420004 	addiu	v0,v0,4
9d00b548:	8c430000 	lw	v1,0(v0)
9d00b54c:	00672821 	addu	a1,v1,a3
9d00b550:	00031827 	nor	v1,zero,v1
9d00b554:	00a31824 	and	v1,a1,v1
9d00b558:	00661824 	and	v1,v1,a2
9d00b55c:	5060fff2 	beqzl	v1,9d00b528 <strlen+0x3c>
9d00b560:	24420004 	addiu	v0,v0,4
9d00b564:	0b402d5c 	j	9d00b570 <strlen+0x84>
9d00b568:	80430000 	lb	v1,0(v0)
9d00b56c:	80430000 	lb	v1,0(v0)
9d00b570:	5460fffe 	bnezl	v1,9d00b56c <strlen+0x80>
9d00b574:	24420001 	addiu	v0,v0,1
9d00b578:	03e00008 	jr	ra
9d00b57c:	00441023 	subu	v0,v0,a0

Disassembly of section .text.fptoli:

9d00b580 <__fixsfsi>:
9d00b580:	00042a00 3c018000 00a12825 00043dc2     .*.....<%(...=..
9d00b590:	30e700ff 2406009e 00c73023 18c0000d     ...0...$#0......
9d00b5a0:	00000000 28c10020 14200003 00000000     .... ..(.. .....
9d00b5b0:	10000005 24020000                       .......$

9d00b5b8 <i42>:
9d00b5b8:	04810002 	bgez	a0,9d00b5c4 <i43>
9d00b5bc:	00c52806 	srlv	a1,a1,a2
9d00b5c0:	00052823 	negu	a1,a1

9d00b5c4 <i43>:
9d00b5c4:	00051025 	or	v0,zero,a1

9d00b5c8 <G999>:
9d00b5c8:	03e00008 	jr	ra
9d00b5cc:	00000000 	nop
9d00b5d0:	00000000 	nop

9d00b5d4 <Gspec>:
9d00b5d4:	3c017f80 	lui	at,0x7f80
9d00b5d8:	34210001 	ori	at,at,0x1
9d00b5dc:	0081082b 	sltu	at,a0,at
9d00b5e0:	14200003 	bnez	at,9d00b5f0 <i44>
9d00b5e4:	00000000 	nop
9d00b5e8:	1000fff7 	b	9d00b5c8 <G999>
9d00b5ec:	3c028000 	lui	v0,0x8000

9d00b5f0 <i44>:
9d00b5f0:	3c027fff 	lui	v0,0x7fff
9d00b5f4:	1000fff4 	b	9d00b5c8 <G999>
9d00b5f8:	3442ffff 	ori	v0,v0,0xffff
9d00b5fc:	00000000 	nop

Disassembly of section .text._fflush_simple:

9d00b600 <_fflush_simple>:
9d00b600:	27bdffe8 	addiu	sp,sp,-24
9d00b604:	afbf0014 	sw	ra,20(sp)
9d00b608:	afb00010 	sw	s0,16(sp)
9d00b60c:	94820010 	lhu	v0,16(a0)
9d00b610:	30420002 	andi	v0,v0,0x2
9d00b614:	10400013 	beqz	v0,9d00b664 <_fflush_simple+0x64>
9d00b618:	00808021 	move	s0,a0
9d00b61c:	8c850000 	lw	a1,0(a0)
9d00b620:	04a0000c 	bltz	a1,9d00b654 <_fflush_simple+0x54>
9d00b624:	00001021 	move	v0,zero
9d00b628:	8c82000c 	lw	v0,12(a0)
9d00b62c:	50a20006 	beql	a1,v0,9d00b648 <_fflush_simple+0x48>
9d00b630:	8e030008 	lw	v1,8(s0)
9d00b634:	8c840008 	lw	a0,8(a0)
9d00b638:	0f402f50 	jal	9d00bd40 <.LFE0>
9d00b63c:	00452823 	subu	a1,v0,a1
9d00b640:	8e02000c 	lw	v0,12(s0)
9d00b644:	8e030008 	lw	v1,8(s0)
9d00b648:	ae020000 	sw	v0,0(s0)
9d00b64c:	ae030004 	sw	v1,4(s0)
9d00b650:	00001021 	move	v0,zero
9d00b654:	8fbf0014 	lw	ra,20(sp)
9d00b658:	8fb00010 	lw	s0,16(sp)
9d00b65c:	03e00008 	jr	ra
9d00b660:	27bd0018 	addiu	sp,sp,24
9d00b664:	2402ffff 	li	v0,-1
9d00b668:	ac820004 	sw	v0,4(a0)
9d00b66c:	00001021 	move	v0,zero
9d00b670:	8fbf0014 	lw	ra,20(sp)
9d00b674:	8fb00010 	lw	s0,16(sp)
9d00b678:	03e00008 	jr	ra
9d00b67c:	27bd0018 	addiu	sp,sp,24

Disassembly of section .text._fwrite_simple:

9d00b680 <_fwrite_simple>:
9d00b680:	27bdffd8 	addiu	sp,sp,-40
9d00b684:	afbf0024 	sw	ra,36(sp)
9d00b688:	afb10020 	sw	s1,32(sp)
9d00b68c:	afb0001c 	sw	s0,28(sp)
9d00b690:	70c58002 	mul	s0,a2,a1
9d00b694:	12000007 	beqz	s0,9d00b6b4 <_fwrite_simple+0x34>
9d00b698:	00001021 	move	v0,zero
9d00b69c:	94e30010 	lhu	v1,16(a3)
9d00b6a0:	30630001 	andi	v1,v1,0x1
9d00b6a4:	10600008 	beqz	v1,9d00b6c8 <_fwrite_simple+0x48>
9d00b6a8:	3c03a000 	lui	v1,0xa000
9d00b6ac:	24040009 	li	a0,9
9d00b6b0:	ac640050 	sw	a0,80(v1)
9d00b6b4:	8fbf0024 	lw	ra,36(sp)
9d00b6b8:	8fb10020 	lw	s1,32(sp)
9d00b6bc:	8fb0001c 	lw	s0,28(sp)
9d00b6c0:	03e00008 	jr	ra
9d00b6c4:	27bd0028 	addiu	sp,sp,40
9d00b6c8:	00808821 	move	s1,a0
9d00b6cc:	00e02021 	move	a0,a3
9d00b6d0:	0f402d80 	jal	9d00b600 <_fflush_simple>
9d00b6d4:	afa60010 	sw	a2,16(sp)
9d00b6d8:	02202021 	move	a0,s1
9d00b6dc:	0f402f50 	jal	9d00bd40 <.LFE0>
9d00b6e0:	02002821 	move	a1,s0
9d00b6e4:	8fa60010 	lw	a2,16(sp)
9d00b6e8:	00c01021 	move	v0,a2
9d00b6ec:	8fbf0024 	lw	ra,36(sp)
9d00b6f0:	8fb10020 	lw	s1,32(sp)
9d00b6f4:	8fb0001c 	lw	s0,28(sp)
9d00b6f8:	03e00008 	jr	ra
9d00b6fc:	27bd0028 	addiu	sp,sp,40

Disassembly of section .text.fptoul:

9d00b700 <__fixunssfsi>:
9d00b700:	00042a00 3c018000 00a12825 00043dc2     .*.....<%(...=..
9d00b710:	30e700ff 2406009e 00c73023 04c0000d     ...0...$#0......
9d00b720:	00000000 28c10020 14200003 00000000     .... ..(.. .....
9d00b730:	10000005 24020000                       .......$

9d00b738 <i45>:
9d00b738:	04810002 	bgez	a0,9d00b744 <i46>
9d00b73c:	00c52806 	srlv	a1,a1,a2
9d00b740:	00052823 	negu	a1,a1

9d00b744 <i46>:
9d00b744:	00051025 	or	v0,zero,a1

9d00b748 <I999>:
9d00b748:	03e00008 	jr	ra
9d00b74c:	00000000 	nop
9d00b750:	00000000 	nop

9d00b754 <Ispec>:
9d00b754:	3c017f80 	lui	at,0x7f80
9d00b758:	34210001 	ori	at,at,0x1
9d00b75c:	0081082b 	sltu	at,a0,at
9d00b760:	14200003 	bnez	at,9d00b770 <i47>
9d00b764:	00000000 	nop
9d00b768:	1000fff7 	b	9d00b748 <I999>
9d00b76c:	3c028000 	lui	v0,0x8000

9d00b770 <i47>:
9d00b770:	1000fff5 	b	9d00b748 <I999>
9d00b774:	2402ffff 	li	v0,-1
9d00b778:	00000000 	nop

Disassembly of section .text.fgetc:

9d00b77c <fgetc>:
9d00b77c:	27bdffe8 	addiu	sp,sp,-24
9d00b780:	afbf0014 	sw	ra,20(sp)
9d00b784:	afb00010 	sw	s0,16(sp)
9d00b788:	00808021 	move	s0,a0
9d00b78c:	8c820018 	lw	v0,24(a0)
9d00b790:	8c420010 	lw	v0,16(v0)
9d00b794:	0040f809 	jalr	v0
9d00b798:	24050002 	li	a1,2
9d00b79c:	10400009 	beqz	v0,9d00b7c4 <fgetc+0x48>
9d00b7a0:	2402ffff 	li	v0,-1
9d00b7a4:	8e020000 	lw	v0,0(s0)
9d00b7a8:	2442ffff 	addiu	v0,v0,-1
9d00b7ac:	04400009 	bltz	v0,9d00b7d4 <fgetc+0x58>
9d00b7b0:	ae020000 	sw	v0,0(s0)
9d00b7b4:	8e020004 	lw	v0,4(s0)
9d00b7b8:	24430001 	addiu	v1,v0,1
9d00b7bc:	ae030004 	sw	v1,4(s0)
9d00b7c0:	90420000 	lbu	v0,0(v0)
9d00b7c4:	8fbf0014 	lw	ra,20(sp)
9d00b7c8:	8fb00010 	lw	s0,16(sp)
9d00b7cc:	03e00008 	jr	ra
9d00b7d0:	27bd0018 	addiu	sp,sp,24
9d00b7d4:	8e020018 	lw	v0,24(s0)
9d00b7d8:	8c420000 	lw	v0,0(v0)
9d00b7dc:	0040f809 	jalr	v0
9d00b7e0:	02002021 	move	a0,s0
9d00b7e4:	8fbf0014 	lw	ra,20(sp)
9d00b7e8:	8fb00010 	lw	s0,16(sp)
9d00b7ec:	03e00008 	jr	ra
9d00b7f0:	27bd0018 	addiu	sp,sp,24

Disassembly of section .text.litodp:

9d00b7f4 <__floatsidf>:
9d00b7f4:	24050000 00054825 00053825 00043025     ...$%H..%8..%0..
9d00b804:	10c0000c 00000000 04c10006 00000000     ................
9d00b814:	3c098000 0005502b 00052823 00063023     ...<+P..#(..#0..
9d00b824:	00ca3023                                #0..

9d00b828 <i40>:
9d00b828:	2407041e 	li	a3,1054
9d00b82c:	70c84020 	clz	t0,a2
9d00b830:	00e83823 	subu	a3,a3,t0
9d00b834:	01063004 	sllv	a2,a2,t0

9d00b838 <i39>:
9d00b838:	000542c2 	srl	t0,a1,0xb
9d00b83c:	00065540 	sll	t2,a2,0x15
9d00b840:	010a4025 	or	t0,t0,t2
9d00b844:	00065040 	sll	t2,a2,0x1
9d00b848:	000a5302 	srl	t2,t2,0xc
9d00b84c:	012a4825 	or	t1,t1,t2
9d00b850:	00075500 	sll	t2,a3,0x14
9d00b854:	012a4825 	or	t1,t1,t2
9d00b858:	00081025 	or	v0,zero,t0
9d00b85c:	00091825 	or	v1,zero,t1

9d00b860 <E999>:
9d00b860:	03e00008 	jr	ra
9d00b864:	00000000 	nop
9d00b868:	00000000 	nop

Disassembly of section .text._sscanf_cdfFnopuxX:

9d00b86c <_sscanf_cdfFnopuxX>:
9d00b86c:	27bdffc0 	addiu	sp,sp,-64
9d00b870:	afbf003c 	sw	ra,60(sp)
9d00b874:	afb00038 	sw	s0,56(sp)
9d00b878:	00808021 	move	s0,a0
9d00b87c:	afa60048 	sw	a2,72(sp)
9d00b880:	afa7004c 	sw	a3,76(sp)
9d00b884:	2402ffff 	li	v0,-1
9d00b888:	a7a20022 	sh	v0,34(sp)
9d00b88c:	24020081 	li	v0,129
9d00b890:	a7a20020 	sh	v0,32(sp)
9d00b894:	0f402d3b 	jal	9d00b4ec <strlen>
9d00b898:	afa50030 	sw	a1,48(sp)
9d00b89c:	27a30048 	addiu	v1,sp,72
9d00b8a0:	27a40010 	addiu	a0,sp,16
9d00b8a4:	8fa50030 	lw	a1,48(sp)
9d00b8a8:	00603021 	move	a2,v1
9d00b8ac:	afa20010 	sw	v0,16(sp)
9d00b8b0:	afa2001c 	sw	v0,28(sp)
9d00b8b4:	afb00018 	sw	s0,24(sp)
9d00b8b8:	afb00014 	sw	s0,20(sp)
9d00b8bc:	3c029d01 	lui	v0,0x9d01
9d00b8c0:	2442c2c8 	addiu	v0,v0,-15672
9d00b8c4:	afa20028 	sw	v0,40(sp)
9d00b8c8:	0f400c7d 	jal	9d0031f4 <.LFE4>
9d00b8cc:	afa3002c 	sw	v1,44(sp)
9d00b8d0:	8fbf003c 	lw	ra,60(sp)
9d00b8d4:	8fb00038 	lw	s0,56(sp)
9d00b8d8:	03e00008 	jr	ra
9d00b8dc:	27bd0040 	addiu	sp,sp,64

Disassembly of section .text._sprintf_cdfFnopsuxX:

9d00b8e0 <_sprintf_cdfFnopsuxX>:
9d00b8e0:	27bdffc8 	addiu	sp,sp,-56
9d00b8e4:	afbf0034 	sw	ra,52(sp)
9d00b8e8:	27a20040 	addiu	v0,sp,64
9d00b8ec:	00801821 	move	v1,a0
9d00b8f0:	afa60040 	sw	a2,64(sp)
9d00b8f4:	27a40010 	addiu	a0,sp,16
9d00b8f8:	00403021 	move	a2,v0
9d00b8fc:	afa70044 	sw	a3,68(sp)
9d00b900:	2407ffff 	li	a3,-1
9d00b904:	a7a70022 	sh	a3,34(sp)
9d00b908:	24070082 	li	a3,130
9d00b90c:	a7a70020 	sh	a3,32(sp)
9d00b910:	3c077fff 	lui	a3,0x7fff
9d00b914:	34e7fffe 	ori	a3,a3,0xfffe
9d00b918:	afa70010 	sw	a3,16(sp)
9d00b91c:	afa30018 	sw	v1,24(sp)
9d00b920:	afa30014 	sw	v1,20(sp)
9d00b924:	3c039d01 	lui	v1,0x9d01
9d00b928:	2463c2c8 	addiu	v1,v1,-15672
9d00b92c:	afa30028 	sw	v1,40(sp)
9d00b930:	0f400f84 	jal	9d003e10 <_do_print_cdfFnopsuxX>
9d00b934:	afa2002c 	sw	v0,44(sp)
9d00b938:	8fa30014 	lw	v1,20(sp)
9d00b93c:	a0600000 	sb	zero,0(v1)
9d00b940:	8fbf0034 	lw	ra,52(sp)
9d00b944:	03e00008 	jr	ra
9d00b948:	27bd0038 	addiu	sp,sp,56

Disassembly of section .text.__sputn:

9d00b94c <__sputn>:
9d00b94c:	27bdffd8 	addiu	sp,sp,-40
9d00b950:	afbf0024 	sw	ra,36(sp)
9d00b954:	afb30020 	sw	s3,32(sp)
9d00b958:	afb2001c 	sw	s2,28(sp)
9d00b95c:	afb10018 	sw	s1,24(sp)
9d00b960:	afb00014 	sw	s0,20(sp)
9d00b964:	00808021 	move	s0,a0
9d00b968:	00c09021 	move	s2,a2
9d00b96c:	00858821 	addu	s1,a0,a1
9d00b970:	0b402e63 	j	9d00b98c <__sputn+0x40>
9d00b974:	2413ffff 	li	s3,-1
9d00b978:	26100001 	addiu	s0,s0,1
9d00b97c:	0f402bd1 	jal	9d00af44 <.LFE2>
9d00b980:	8204ffff 	lb	a0,-1(s0)
9d00b984:	10530005 	beq	v0,s3,9d00b99c <__sputn+0x50>
9d00b988:	8fbf0024 	lw	ra,36(sp)
9d00b98c:	1611fffa 	bne	s0,s1,9d00b978 <__sputn+0x2c>
9d00b990:	02402821 	move	a1,s2
9d00b994:	00001021 	move	v0,zero
9d00b998:	8fbf0024 	lw	ra,36(sp)
9d00b99c:	8fb30020 	lw	s3,32(sp)
9d00b9a0:	8fb2001c 	lw	s2,28(sp)
9d00b9a4:	8fb10018 	lw	s1,24(sp)
9d00b9a8:	8fb00014 	lw	s0,20(sp)
9d00b9ac:	03e00008 	jr	ra
9d00b9b0:	27bd0028 	addiu	sp,sp,40

Disassembly of section .text.memmove:

9d00b9b4 <memmove>:
9d00b9b4:	27bdffe8 	addiu	sp,sp,-24
9d00b9b8:	0085102b 	sltu	v0,a0,a1
9d00b9bc:	14400012 	bnez	v0,9d00ba08 <memmove+0x54>
9d00b9c0:	afbf0014 	sw	ra,20(sp)
9d00b9c4:	00a61021 	addu	v0,a1,a2
9d00b9c8:	0082102b 	sltu	v0,a0,v0
9d00b9cc:	1040000e 	beqz	v0,9d00ba08 <memmove+0x54>
9d00b9d0:	24c2ffff 	addiu	v0,a2,-1
9d00b9d4:	00821821 	addu	v1,a0,v0
9d00b9d8:	00a22821 	addu	a1,a1,v0
9d00b9dc:	10c00006 	beqz	a2,9d00b9f8 <memmove+0x44>
9d00b9e0:	00663823 	subu	a3,v1,a2
9d00b9e4:	24a5ffff 	addiu	a1,a1,-1
9d00b9e8:	90a60001 	lbu	a2,1(a1)
9d00b9ec:	2463ffff 	addiu	v1,v1,-1
9d00b9f0:	1467fffc 	bne	v1,a3,9d00b9e4 <memmove+0x30>
9d00b9f4:	a0660001 	sb	a2,1(v1)
9d00b9f8:	00801021 	move	v0,a0
9d00b9fc:	8fbf0014 	lw	ra,20(sp)
9d00ba00:	03e00008 	jr	ra
9d00ba04:	27bd0018 	addiu	sp,sp,24
9d00ba08:	0f40302b 	jal	9d00c0ac <memcpy>
9d00ba0c:	00000000 	nop
9d00ba10:	8fbf0014 	lw	ra,20(sp)
9d00ba14:	03e00008 	jr	ra
9d00ba18:	27bd0018 	addiu	sp,sp,24

Disassembly of section .text._bufalloc:

9d00ba1c <_bufalloc>:
9d00ba1c:	27bdffe8 	addiu	sp,sp,-24
9d00ba20:	afbf0014 	sw	ra,20(sp)
9d00ba24:	afb00010 	sw	s0,16(sp)
9d00ba28:	00808021 	move	s0,a0
9d00ba2c:	8c84000c 	lw	a0,12(a0)
9d00ba30:	5880000e 	blezl	a0,9d00ba6c <_bufalloc+0x50>
9d00ba34:	ae00000c 	sw	zero,12(s0)
9d00ba38:	0f401234 	jal	9d0048d0 <malloc>
9d00ba3c:	00000000 	nop
9d00ba40:	10400009 	beqz	v0,9d00ba68 <_bufalloc+0x4c>
9d00ba44:	ae020008 	sw	v0,8(s0)
9d00ba48:	96030010 	lhu	v1,16(s0)
9d00ba4c:	ae020004 	sw	v0,4(s0)
9d00ba50:	34620010 	ori	v0,v1,0x10
9d00ba54:	a6020010 	sh	v0,16(s0)
9d00ba58:	8fbf0014 	lw	ra,20(sp)
9d00ba5c:	8fb00010 	lw	s0,16(sp)
9d00ba60:	03e00008 	jr	ra
9d00ba64:	27bd0018 	addiu	sp,sp,24
9d00ba68:	ae00000c 	sw	zero,12(s0)
9d00ba6c:	2402ffff 	li	v0,-1
9d00ba70:	ae020004 	sw	v0,4(s0)
9d00ba74:	8fbf0014 	lw	ra,20(sp)
9d00ba78:	8fb00010 	lw	s0,16(sp)
9d00ba7c:	03e00008 	jr	ra
9d00ba80:	27bd0018 	addiu	sp,sp,24

Disassembly of section .text.gsgetc:

9d00ba84 <gsgetc>:
9d00ba84:	27bdffe0 	addiu	sp,sp,-32
9d00ba88:	afbf001c 	sw	ra,28(sp)
9d00ba8c:	afb10018 	sw	s1,24(sp)
9d00ba90:	afb00014 	sw	s0,20(sp)
9d00ba94:	8c820004 	lw	v0,4(a0)
9d00ba98:	2411ffff 	li	s1,-1
9d00ba9c:	1051000a 	beq	v0,s1,9d00bac8 <gsgetc+0x44>
9d00baa0:	00808021 	move	s0,a0
9d00baa4:	ac910004 	sw	s1,4(a0)
9d00baa8:	8e030010 	lw	v1,16(s0)
9d00baac:	24630001 	addiu	v1,v1,1
9d00bab0:	ae030010 	sw	v1,16(s0)
9d00bab4:	8fbf001c 	lw	ra,28(sp)
9d00bab8:	8fb10018 	lw	s1,24(sp)
9d00babc:	8fb00014 	lw	s0,20(sp)
9d00bac0:	03e00008 	jr	ra
9d00bac4:	27bd0020 	addiu	sp,sp,32
9d00bac8:	0f402ddf 	jal	9d00b77c <fgetc>
9d00bacc:	8c840000 	lw	a0,0(a0)
9d00bad0:	1451fff5 	bne	v0,s1,9d00baa8 <gsgetc+0x24>
9d00bad4:	8fbf001c 	lw	ra,28(sp)
9d00bad8:	8fb10018 	lw	s1,24(sp)
9d00badc:	8fb00014 	lw	s0,20(sp)
9d00bae0:	03e00008 	jr	ra
9d00bae4:	27bd0020 	addiu	sp,sp,32

Disassembly of section .text._buffree:

9d00bae8 <_buffree>:
9d00bae8:	27bdffe8 	addiu	sp,sp,-24
9d00baec:	afbf0014 	sw	ra,20(sp)
9d00baf0:	afb00010 	sw	s0,16(sp)
9d00baf4:	00808021 	move	s0,a0
9d00baf8:	8c840008 	lw	a0,8(a0)
9d00bafc:	10800010 	beqz	a0,9d00bb40 <_buffree+0x58>
9d00bb00:	8fbf0014 	lw	ra,20(sp)
9d00bb04:	96020010 	lhu	v0,16(s0)
9d00bb08:	30420010 	andi	v0,v0,0x10
9d00bb0c:	5040000d 	beqzl	v0,9d00bb44 <_buffree+0x5c>
9d00bb10:	8fb00010 	lw	s0,16(sp)
9d00bb14:	0f4022e7 	jal	9d008b9c <free>
9d00bb18:	00000000 	nop
9d00bb1c:	96020010 	lhu	v0,16(s0)
9d00bb20:	ae000008 	sw	zero,8(s0)
9d00bb24:	3042ffe7 	andi	v0,v0,0xffe7
9d00bb28:	ae00000c 	sw	zero,12(s0)
9d00bb2c:	ae000000 	sw	zero,0(s0)
9d00bb30:	2403ffff 	li	v1,-1
9d00bb34:	ae030004 	sw	v1,4(s0)
9d00bb38:	a6020010 	sh	v0,16(s0)
9d00bb3c:	8fbf0014 	lw	ra,20(sp)
9d00bb40:	8fb00010 	lw	s0,16(sp)
9d00bb44:	03e00008 	jr	ra
9d00bb48:	27bd0018 	addiu	sp,sp,24

Disassembly of section .text.sitofp:

9d00bb4c <__floatsisf>:
9d00bb4c:	3c018000 10800012 00813024 04810002     ...<....$0......
9d00bb5c:	00000000 00042023                       ....# ..

9d00bb64 <i40>:
9d00bb64:	2405009e 	li	a1,158
9d00bb68:	70873820 	clz	a3,a0
9d00bb6c:	00a72823 	subu	a1,a1,a3
9d00bb70:	00e42004 	sllv	a0,a0,a3
9d00bb74:	24840080 	addiu	a0,a0,128
9d00bb78:	2c880080 	sltiu	t0,a0,128
9d00bb7c:	00a82821 	addu	a1,a1,t0
9d00bb80:	00044203 	sra	t0,a0,0x8
9d00bb84:	31080001 	andi	t0,t0,0x1
9d00bb88:	00882023 	subu	a0,a0,t0
9d00bb8c:	00042040 	sll	a0,a0,0x1
9d00bb90:	00042242 	srl	a0,a0,0x9
9d00bb94:	000545c0 	sll	t0,a1,0x17
9d00bb98:	00882025 	or	a0,a0,t0

9d00bb9c <i39>:
9d00bb9c:	00861025 	or	v0,a0,a2

9d00bba0 <E999>:
9d00bba0:	03e00008 	jr	ra
9d00bba4:	00000000 	nop
9d00bba8:	00000000 	nop

Disassembly of section .text.main_entry:

9d00bbac <_main_entry>:
9d00bbac:	3c040000 	lui	a0,0x0
9d00bbb0:	27bdffe8 	addiu	sp,sp,-24
9d00bbb4:	24840000 	addiu	a0,a0,0
9d00bbb8:	10800003 	beqz	a0,9d00bbc8 <_main_entry+0x1c>
9d00bbbc:	afbf0014 	sw	ra,20(sp)
9d00bbc0:	0080f809 	jalr	a0
9d00bbc4:	00000000 	nop
9d00bbc8:	30840000 	andi	a0,a0,0x0
9d00bbcc:	30a50000 	andi	a1,a1,0x0
9d00bbd0:	3c089d00 	lui	t0,0x9d00
9d00bbd4:	25082a48 	addiu	t0,t0,10824
9d00bbd8:	0100f809 	jalr	t0
9d00bbdc:	00000000 	nop

9d00bbe0 <__crt0_exit>:
9d00bbe0:	3c020000 24420000 10400003 00000000     ...<..B$..@.....
9d00bbf0:	0040f809 00000000 1000fff9 00000000     ..@.............

Disassembly of section .rodata:

9d00bc00 <.rodata>:
9d00bc00:	6c756e28 	0x6c756e28
9d00bc04:	0000296c 	0x296c
9d00bc08:	30303030 	andi	s0,at,0x3030
9d00bc0c:	30303030 	andi	s0,at,0x3030
9d00bc10:	30303030 	andi	s0,at,0x3030
9d00bc14:	30303030 	andi	s0,at,0x3030
9d00bc18:	30303030 	andi	s0,at,0x3030
9d00bc1c:	30303030 	andi	s0,at,0x3030
9d00bc20:	30303030 	andi	s0,at,0x3030
9d00bc24:	30303030 	andi	s0,at,0x3030
9d00bc28:	20202020 	addi	zero,at,8224
9d00bc2c:	20202020 	addi	zero,at,8224
9d00bc30:	20202020 	addi	zero,at,8224
9d00bc34:	20202020 	addi	zero,at,8224
9d00bc38:	20202020 	addi	zero,at,8224
9d00bc3c:	20202020 	addi	zero,at,8224
9d00bc40:	20202020 	addi	zero,at,8224
9d00bc44:	20202020 	addi	zero,at,8224
9d00bc48:	41200000 	0x41200000
9d00bc4c:	3c23d70a 	0x3c23d70a
9d00bc50:	40800000 	mtc0	zero,c0_index
9d00bc54:	0a0d6425 	j	98359094 <_bmxdkpba_address+0x98339094>
9d00bc58:	00000000 	nop
9d00bc5c:	0a0d6625 	j	98359894 <_bmxdkpba_address+0x98339894>
9d00bc60:	00000000 	nop
9d00bc64:	00006425 	0x6425
9d00bc68:	00006625 	0x6625
9d00bc6c:	25206425 	addiu	zero,t1,25637
9d00bc70:	64252064 	0x64252064
9d00bc74:	00000a0d 	break	0x0,0x28
9d00bc78:	25206625 	addiu	zero,t1,26149
9d00bc7c:	000a0d66 	0xa0d66
9d00bc80:	0a0d7325 	j	9835cc94 <_bmxdkpba_address+0x9833cc94>
9d00bc84:	00000000 	nop
9d00bc88:	c2c80000 	ll	t0,0(s6)
9d00bc8c:	42c80000 	c0	0xc80000
9d00bc90:	447a0000 	mfhc1	k0,$f0
9d00bc94:	40533333 	0x40533333
9d00bc98:	43480000 	c0	0x1480000
9d00bc9c:	43960000 	c0	0x1960000
9d00bca0:	c3960000 	ll	s6,0(gp)

Disassembly of section .text.sbrk:

9d00bca4 <sbrk>:
9d00bca4:	27bdffe0 	addiu	sp,sp,-32
9d00bca8:	afbf001c 	sw	ra,28(sp)
9d00bcac:	afb10018 	sw	s1,24(sp)
9d00bcb0:	afb00014 	sw	s0,20(sp)
9d00bcb4:	0f402b73 	jal	9d00adcc <_sbrk>
9d00bcb8:	00808821 	move	s1,a0
9d00bcbc:	1a200007 	blez	s1,9d00bcdc <sbrk+0x38>
9d00bcc0:	00408021 	move	s0,v0
9d00bcc4:	2402ffff 	li	v0,-1
9d00bcc8:	12020004 	beq	s0,v0,9d00bcdc <sbrk+0x38>
9d00bccc:	02002021 	move	a0,s0
9d00bcd0:	00002821 	move	a1,zero
9d00bcd4:	0f403041 	jal	9d00c104 <.LFE1>
9d00bcd8:	02203021 	move	a2,s1
9d00bcdc:	02001021 	move	v0,s0
9d00bce0:	8fbf001c 	lw	ra,28(sp)
9d00bce4:	8fb10018 	lw	s1,24(sp)
9d00bce8:	8fb00014 	lw	s0,20(sp)
9d00bcec:	03e00008 	jr	ra
9d00bcf0:	27bd0020 	addiu	sp,sp,32

Disassembly of section .text:

9d00bcf4 <__floatunsisf>:
9d00bcf4:	27bdffe8 	addiu	sp,sp,-24
9d00bcf8:	afbf0014 	sw	ra,20(sp)
9d00bcfc:	04800006 	bltz	a0,9d00bd18 <__floatunsisf+0x24>
9d00bd00:	00801021 	move	v0,a0
9d00bd04:	0f402ed3 	jal	9d00bb4c <__floatsisf>
9d00bd08:	00000000 	nop
9d00bd0c:	8fbf0014 	lw	ra,20(sp)
9d00bd10:	03e00008 	jr	ra
9d00bd14:	27bd0018 	addiu	sp,sp,24
9d00bd18:	00042042 	srl	a0,a0,0x1
9d00bd1c:	30420001 	andi	v0,v0,0x1
9d00bd20:	0f402ed3 	jal	9d00bb4c <__floatsisf>
9d00bd24:	00822025 	or	a0,a0,v0
9d00bd28:	00402021 	move	a0,v0
9d00bd2c:	0f4024c9 	jal	9d009324 <__addsf3>
9d00bd30:	00402821 	move	a1,v0
9d00bd34:	8fbf0014 	lw	ra,20(sp)
9d00bd38:	03e00008 	jr	ra
9d00bd3c:	27bd0018 	addiu	sp,sp,24

Disassembly of section .text._mon_write:

9d00bd40 <_mon_write>:
9d00bd40:	27bdffe0 	addiu	sp,sp,-32
9d00bd44:	afbf001c 	sw	ra,28(sp)
9d00bd48:	afb10018 	sw	s1,24(sp)
9d00bd4c:	afb00014 	sw	s0,20(sp)
9d00bd50:	10800009 	beqz	a0,9d00bd78 <_mon_write+0x38>
9d00bd54:	00808021 	move	s0,a0
9d00bd58:	10a00007 	beqz	a1,9d00bd78 <_mon_write+0x38>
9d00bd5c:	00a08821 	move	s1,a1
9d00bd60:	82040000 	lb	a0,0(s0)
9d00bd64:	2631ffff 	addiu	s1,s1,-1
9d00bd68:	0f402b09 	jal	9d00ac24 <_mon_putc>
9d00bd6c:	26100001 	addiu	s0,s0,1
9d00bd70:	5620fffc 	bnezl	s1,9d00bd64 <_mon_write+0x24>
9d00bd74:	82040000 	lb	a0,0(s0)
9d00bd78:	8fbf001c 	lw	ra,28(sp)
9d00bd7c:	8fb10018 	lw	s1,24(sp)
9d00bd80:	8fb00014 	lw	s0,20(sp)
9d00bd84:	03e00008 	jr	ra
9d00bd88:	27bd0020 	addiu	sp,sp,32

Disassembly of section .text._bootstrap_exception_handler:

9d00bd8c <_bootstrap_exception_handler>:
9d00bd8c:	3c020000 	lui	v0,0x0
9d00bd90:	24420000 	addiu	v0,v0,0
9d00bd94:	10400005 	beqz	v0,9d00bdac <_bootstrap_exception_handler+0x20>
9d00bd98:	3c020000 	lui	v0,0x0
9d00bd9c:	24420000 	addiu	v0,v0,0
9d00bda0:	10400003 	beqz	v0,9d00bdb0 <_bootstrap_exception_handler+0x24>
9d00bda4:	3c029d01 	lui	v0,0x9d01
9d00bda8:	7000003f 	sdbbp
9d00bdac:	3c029d01 	lui	v0,0x9d01
9d00bdb0:	2442beac 	addiu	v0,v0,-16724
9d00bdb4:	10400005 	beqz	v0,9d00bdcc <_bootstrap_exception_handler+0x40>
9d00bdb8:	00000000 	nop
9d00bdbc:	27bdffe8 	addiu	sp,sp,-24
9d00bdc0:	afbf0014 	sw	ra,20(sp)
9d00bdc4:	0040f809 	jalr	v0
9d00bdc8:	00000000 	nop
9d00bdcc:	0b402f73 	j	9d00bdcc <_bootstrap_exception_handler+0x40>
9d00bdd0:	00000000 	nop

Disassembly of section .text._general_exception_handler:

9d00bdd4 <_general_exception_handler>:
9d00bdd4:	3c020000 	lui	v0,0x0
9d00bdd8:	24420000 	addiu	v0,v0,0
9d00bddc:	10400005 	beqz	v0,9d00bdf4 <_general_exception_handler+0x20>
9d00bde0:	3c020000 	lui	v0,0x0
9d00bde4:	24420000 	addiu	v0,v0,0
9d00bde8:	10400003 	beqz	v0,9d00bdf8 <_general_exception_handler+0x24>
9d00bdec:	3c029d01 	lui	v0,0x9d01
9d00bdf0:	7000003f 	sdbbp
9d00bdf4:	3c029d01 	lui	v0,0x9d01
9d00bdf8:	2442beac 	addiu	v0,v0,-16724
9d00bdfc:	10400005 	beqz	v0,9d00be14 <_general_exception_handler+0x40>
9d00be00:	00000000 	nop
9d00be04:	27bdffe8 	addiu	sp,sp,-24
9d00be08:	afbf0014 	sw	ra,20(sp)
9d00be0c:	0040f809 	jalr	v0
9d00be10:	00000000 	nop
9d00be14:	0b402f85 	j	9d00be14 <_general_exception_handler+0x40>
9d00be18:	00000000 	nop

Disassembly of section .vector_default:

9d00be1c <_DefaultInterrupt>:
9d00be1c:	3c020000 	lui	v0,0x0
9d00be20:	24420000 	addiu	v0,v0,0
9d00be24:	10400007 	beqz	v0,9d00be44 <_DefaultInterrupt+0x28>
9d00be28:	3c020000 	lui	v0,0x0
9d00be2c:	24420000 	addiu	v0,v0,0
9d00be30:	50400005 	beqzl	v0,9d00be48 <_DefaultInterrupt+0x2c>
9d00be34:	3c029d01 	lui	v0,0x9d01
9d00be38:	7000003f 	sdbbp
9d00be3c:	03e00008 	jr	ra
9d00be40:	00000000 	nop
9d00be44:	3c029d01 	lui	v0,0x9d01
9d00be48:	2442beac 	addiu	v0,v0,-16724
9d00be4c:	10400003 	beqz	v0,9d00be5c <_DefaultInterrupt+0x40>
9d00be50:	00000000 	nop
9d00be54:	0040f809 	jalr	v0
9d00be58:	00000000 	nop
9d00be5c:	03e00008 	jr	ra
9d00be60:	00000000 	nop

Disassembly of section .rodata:

9d00be64 <f5pow>:
9d00be64:	00000000 40140000 00000000 40390000     .......@......9@
9d00be74:	00000000 40838800 00000000 4117d784     .......@.......A
9d00be84:	37e08000 4241c379 b5056e17 4493b8b5     ...7y.AB.n.....D
9d00be94:	e93ff9f5 49384f03 f9301d32 52827748     ..?..O8I2.0.Hw.R
9d00bea4:	7f73bf3c 65154fdd                       <.s..O.e

Disassembly of section .text:

9d00beac <__pic32_software_reset>:
9d00beac:	41606000 	di
9d00beb0:	000000c0 	ehb
9d00beb4:	3c03aa99 	lui	v1,0xaa99
9d00beb8:	3c02bf81 	lui	v0,0xbf81
9d00bebc:	24636655 	addiu	v1,v1,26197
9d00bec0:	ac40f230 	sw	zero,-3536(v0)
9d00bec4:	ac43f230 	sw	v1,-3536(v0)
9d00bec8:	3c035566 	lui	v1,0x5566
9d00becc:	346399aa 	ori	v1,v1,0x99aa
9d00bed0:	ac43f230 	sw	v1,-3536(v0)
9d00bed4:	3c02bf81 	lui	v0,0xbf81
9d00bed8:	24030001 	li	v1,1
9d00bedc:	ac43f618 	sw	v1,-2536(v0)
9d00bee0:	3c02bf81 	lui	v0,0xbf81
9d00bee4:	8c42f610 	lw	v0,-2544(v0)
9d00bee8:	0b402fad 	j	9d00beb4 <__pic32_software_reset+0x8>
9d00beec:	00000000 	nop

Disassembly of section .text._io_exit:

9d00bef0 <.text._io_exit>:
9d00bef0:	27bdffe8 	addiu	sp,sp,-24
9d00bef4:	afbf0014 	sw	ra,20(sp)
9d00bef8:	afb00010 	sw	s0,16(sp)
9d00befc:	3c10a000 	lui	s0,0xa000
9d00bf00:	0f4030d3 	jal	9d00c34c <_weak_pthread_mutex_lock>
9d00bf04:	260447b8 	addiu	a0,s0,18360
9d00bf08:	3c02a000 	lui	v0,0xa000
9d00bf0c:	8c420014 	lw	v0,20(v0)
9d00bf10:	260447b8 	addiu	a0,s0,18360
9d00bf14:	24030001 	li	v1,1
9d00bf18:	0f4030d7 	jal	9d00c35c <_weak_pthread_mutex_unlock>
9d00bf1c:	ac430038 	sw	v1,56(v0)
9d00bf20:	8fbf0014 	lw	ra,20(sp)
9d00bf24:	8fb00010 	lw	s0,16(sp)
9d00bf28:	03e00008 	jr	ra
9d00bf2c:	27bd0018 	addiu	sp,sp,24

Disassembly of section .text:

9d00bf30 <__lshrdi3>:
9d00bf30:	10c00009 	beqz	a2,9d00bf58 <__lshrdi3+0x28>
9d00bf34:	00801021 	move	v0,a0
9d00bf38:	24020020 	li	v0,32
9d00bf3c:	00461023 	subu	v0,v0,a2
9d00bf40:	18400007 	blez	v0,9d00bf60 <__lshrdi3+0x30>
9d00bf44:	00c42006 	srlv	a0,a0,a2
9d00bf48:	00451004 	sllv	v0,a1,v0
9d00bf4c:	00c51806 	srlv	v1,a1,a2
9d00bf50:	03e00008 	jr	ra
9d00bf54:	00441025 	or	v0,v0,a0
9d00bf58:	03e00008 	jr	ra
9d00bf5c:	00a01821 	move	v1,a1
9d00bf60:	00021023 	negu	v0,v0
9d00bf64:	00001821 	move	v1,zero
9d00bf68:	03e00008 	jr	ra
9d00bf6c:	00451006 	srlv	v0,a1,v0

9d00bf70 <__ashldi3>:
9d00bf70:	10c00009 	beqz	a2,9d00bf98 <__ashldi3+0x28>
9d00bf74:	00801021 	move	v0,a0
9d00bf78:	24030020 	li	v1,32
9d00bf7c:	00661823 	subu	v1,v1,a2
9d00bf80:	18600007 	blez	v1,9d00bfa0 <__ashldi3+0x30>
9d00bf84:	00c52804 	sllv	a1,a1,a2
9d00bf88:	00641806 	srlv	v1,a0,v1
9d00bf8c:	00c41004 	sllv	v0,a0,a2
9d00bf90:	03e00008 	jr	ra
9d00bf94:	00651825 	or	v1,v1,a1
9d00bf98:	03e00008 	jr	ra
9d00bf9c:	00a01821 	move	v1,a1
9d00bfa0:	00031823 	negu	v1,v1
9d00bfa4:	00001021 	move	v0,zero
9d00bfa8:	03e00008 	jr	ra
9d00bfac:	00641804 	sllv	v1,a0,v1

Disassembly of section .text._weak_pthread_once:

9d00bfb0 <_weak_pthread_once>:
9d00bfb0:	8c820000 	lw	v0,0(a0)
9d00bfb4:	10400003 	beqz	v0,9d00bfc4 <_weak_pthread_once+0x14>
9d00bfb8:	00001021 	move	v0,zero
9d00bfbc:	03e00008 	jr	ra
9d00bfc0:	00000000 	nop
9d00bfc4:	27bdffe8 	addiu	sp,sp,-24
9d00bfc8:	afbf0014 	sw	ra,20(sp)
9d00bfcc:	24020002 	li	v0,2
9d00bfd0:	00a0f809 	jalr	a1
9d00bfd4:	ac820000 	sw	v0,0(a0)
9d00bfd8:	00001021 	move	v0,zero
9d00bfdc:	8fbf0014 	lw	ra,20(sp)
9d00bfe0:	03e00008 	jr	ra
9d00bfe4:	27bd0018 	addiu	sp,sp,24

Disassembly of section .text._filbuf_simple:

9d00bfe8 <_filbuf_simple>:
9d00bfe8:	8c820004 	lw	v0,4(a0)
9d00bfec:	2403ffff 	li	v1,-1
9d00bff0:	10430003 	beq	v0,v1,9d00c000 <_filbuf_simple+0x18>
9d00bff4:	ac800000 	sw	zero,0(a0)
9d00bff8:	03e00008 	jr	ra
9d00bffc:	ac830004 	sw	v1,4(a0)
9d00c000:	27bdffe8 	addiu	sp,sp,-24
9d00c004:	afbf0014 	sw	ra,20(sp)
9d00c008:	0f402a99 	jal	9d00aa64 <.LFE4>
9d00c00c:	24040001 	li	a0,1
9d00c010:	8fbf0014 	lw	ra,20(sp)
9d00c014:	03e00008 	jr	ra
9d00c018:	27bd0018 	addiu	sp,sp,24

Disassembly of section .text._fsync_simple:

9d00c01c <_fsync_simple>:
9d00c01c:	94830010 	lhu	v1,16(a0)
9d00c020:	00a32824 	and	a1,a1,v1
9d00c024:	10a00007 	beqz	a1,9d00c044 <_fsync_simple+0x28>
9d00c028:	24020001 	li	v0,1
9d00c02c:	34630040 	ori	v1,v1,0x40
9d00c030:	a4830010 	sh	v1,16(a0)
9d00c034:	24030009 	li	v1,9
9d00c038:	3c02a000 	lui	v0,0xa000
9d00c03c:	ac430050 	sw	v1,80(v0)
9d00c040:	00001021 	move	v0,zero
9d00c044:	03e00008 	jr	ra
9d00c048:	00000000 	nop

Disassembly of section .rodata:

9d00c04c <.rodata>:
9d00c04c:	33323130 	andi	s2,t9,0x3130
9d00c050:	37363534 	ori	s6,t9,0x3534
9d00c054:	00000000 	nop
9d00c058:	33323130 	andi	s2,t9,0x3130
9d00c05c:	37363534 	ori	s6,t9,0x3534
9d00c060:	42413938 	c0	0x413938
9d00c064:	46454443 	c1	0x454443
9d00c068:	64636261 	0x64636261
9d00c06c:	00006665 	0x6665
9d00c070:	33323130 	andi	s2,t9,0x3130
9d00c074:	37363534 	ori	s6,t9,0x3534
9d00c078:	00003938 	0x3938

Disassembly of section .text._cleanup:

9d00c07c <_cleanup>:
9d00c07c:	3c02a000 	lui	v0,0xa000
9d00c080:	8c4247dc 	lw	v0,18396(v0)
9d00c084:	10400007 	beqz	v0,9d00c0a4 <_cleanup+0x28>
9d00c088:	00000000 	nop
9d00c08c:	27bdffe8 	addiu	sp,sp,-24
9d00c090:	afbf0014 	sw	ra,20(sp)
9d00c094:	0040f809 	jalr	v0
9d00c098:	00000000 	nop
9d00c09c:	8fbf0014 	lw	ra,20(sp)
9d00c0a0:	27bd0018 	addiu	sp,sp,24
9d00c0a4:	03e00008 	jr	ra
9d00c0a8:	00000000 	nop

Disassembly of section .text.memcpy:

9d00c0ac <memcpy>:
9d00c0ac:	00801021 	move	v0,a0
9d00c0b0:	00863821 	addu	a3,a0,a2
9d00c0b4:	10c00006 	beqz	a2,9d00c0d0 <memcpy+0x24>
9d00c0b8:	00801821 	move	v1,a0
9d00c0bc:	24a50001 	addiu	a1,a1,1
9d00c0c0:	90a6ffff 	lbu	a2,-1(a1)
9d00c0c4:	24630001 	addiu	v1,v1,1
9d00c0c8:	1467fffc 	bne	v1,a3,9d00c0bc <memcpy+0x10>
9d00c0cc:	a066ffff 	sb	a2,-1(v1)
9d00c0d0:	03e00008 	jr	ra
9d00c0d4:	00000000 	nop

Disassembly of section .text._stub_sbd_memlayout:

9d00c0d8 <_stub_sbd_memlayout>:
9d00c0d8:	3c03a000 	lui	v1,0xa000
9d00c0dc:	24624794 	addiu	v0,v1,18324
9d00c0e0:	24040001 	li	a0,1
9d00c0e4:	ac440008 	sw	a0,8(v0)
9d00c0e8:	3c04a000 	lui	a0,0xa000
9d00c0ec:	248447e8 	addiu	a0,a0,18408
9d00c0f0:	ac644794 	sw	a0,18324(v1)
9d00c0f4:	3c030000 	lui	v1,0x0
9d00c0f8:	24630000 	addiu	v1,v1,0
9d00c0fc:	03e00008 	jr	ra
9d00c100:	ac430004 	sw	v1,4(v0)

Disassembly of section .text.memset:

9d00c104 <memset>:
9d00c104:	10c00007 	beqz	a2,9d00c124 <memset+0x20>
9d00c108:	00801021 	move	v0,a0
9d00c10c:	30a500ff 	andi	a1,a1,0xff
9d00c110:	00863021 	addu	a2,a0,a2
9d00c114:	00801821 	move	v1,a0
9d00c118:	24630001 	addiu	v1,v1,1
9d00c11c:	1466fffe 	bne	v1,a2,9d00c118 <memset+0x14>
9d00c120:	a065ffff 	sb	a1,-1(v1)
9d00c124:	03e00008 	jr	ra
9d00c128:	00000000 	nop

Disassembly of section .rodata:

9d00c12c <.rodata>:
9d00c12c:	454c4449 	bc1any4f	$fcc3,9d01d254 <.LFE0+0x10e58>
9d00c130:	00000000 	nop
9d00c134:	004d5750 	0x4d5750
9d00c138:	53455449 	beql	k0,a1,9d021260 <.LFE0+0x14e64>
9d00c13c:	00000054 	0x54
9d00c140:	444c4f48 	0x444c4f48
9d00c144:	00000000 	nop
9d00c148:	43415254 	c0	0x1415254
9d00c14c:	0000004b 	0x4b

Disassembly of section .text.putchar:

9d00c150 <putchar>:
9d00c150:	27bdffe8 	addiu	sp,sp,-24
9d00c154:	afbf0014 	sw	ra,20(sp)
9d00c158:	3c02a000 	lui	v0,0xa000
9d00c15c:	8c420014 	lw	v0,20(v0)
9d00c160:	0f402bd1 	jal	9d00af44 <.LFE2>
9d00c164:	8c450004 	lw	a1,4(v0)
9d00c168:	8fbf0014 	lw	ra,20(sp)
9d00c16c:	03e00008 	jr	ra
9d00c170:	27bd0018 	addiu	sp,sp,24

Disassembly of section .text.getchar:

9d00c174 <getchar>:
9d00c174:	27bdffe8 	addiu	sp,sp,-24
9d00c178:	afbf0014 	sw	ra,20(sp)
9d00c17c:	3c02a000 	lui	v0,0xa000
9d00c180:	8c420014 	lw	v0,20(v0)
9d00c184:	0f402ddf 	jal	9d00b77c <fgetc>
9d00c188:	8c440000 	lw	a0,0(v0)
9d00c18c:	8fbf0014 	lw	ra,20(sp)
9d00c190:	03e00008 	jr	ra
9d00c194:	27bd0018 	addiu	sp,sp,24

Disassembly of section .text._vfprintf_cdfFnopsuxX:

9d00c198 <_vfprintf_cdfFnopsuxX>:
9d00c198:	27bdffe8 	addiu	sp,sp,-24
9d00c19c:	afbf0014 	sw	ra,20(sp)
9d00c1a0:	0f400f84 	jal	9d003e10 <_do_print_cdfFnopsuxX>
9d00c1a4:	00000000 	nop
9d00c1a8:	8fbf0014 	lw	ra,20(sp)
9d00c1ac:	03e00008 	jr	ra
9d00c1b0:	27bd0018 	addiu	sp,sp,24

Disassembly of section .text.putc:

9d00c1b4 <putc>:
9d00c1b4:	27bdffe8 	addiu	sp,sp,-24
9d00c1b8:	afbf0014 	sw	ra,20(sp)
9d00c1bc:	0f402bd1 	jal	9d00af44 <.LFE2>
9d00c1c0:	00000000 	nop
9d00c1c4:	8fbf0014 	lw	ra,20(sp)
9d00c1c8:	03e00008 	jr	ra
9d00c1cc:	27bd0018 	addiu	sp,sp,24

Disassembly of section .text.vfscanf:

9d00c1d0 <vfscanf>:
9d00c1d0:	27bdffe8 	addiu	sp,sp,-24
9d00c1d4:	afbf0014 	sw	ra,20(sp)
9d00c1d8:	0f400c7d 	jal	9d0031f4 <.LFE4>
9d00c1dc:	00000000 	nop
9d00c1e0:	8fbf0014 	lw	ra,20(sp)
9d00c1e4:	03e00008 	jr	ra
9d00c1e8:	27bd0018 	addiu	sp,sp,24

Disassembly of section .text.strtod:

9d00c1ec <strtod>:
9d00c1ec:	27bdffe8 	addiu	sp,sp,-24
9d00c1f0:	afbf0014 	sw	ra,20(sp)
9d00c1f4:	0f401e0c 	jal	9d007830 <__strtod>
9d00c1f8:	00000000 	nop
9d00c1fc:	8fbf0014 	lw	ra,20(sp)
9d00c200:	03e00008 	jr	ra
9d00c204:	27bd0018 	addiu	sp,sp,24

Disassembly of section .text.strtof:

9d00c208 <strtof>:
9d00c208:	27bdffe8 	addiu	sp,sp,-24
9d00c20c:	afbf0014 	sw	ra,20(sp)
9d00c210:	0f401fe2 	jal	9d007f88 <__strtof>
9d00c214:	00000000 	nop
9d00c218:	8fbf0014 	lw	ra,20(sp)
9d00c21c:	03e00008 	jr	ra
9d00c220:	27bd0018 	addiu	sp,sp,24

Disassembly of section .text.getc:

9d00c224 <getc>:
9d00c224:	27bdffe8 	addiu	sp,sp,-24
9d00c228:	afbf0014 	sw	ra,20(sp)
9d00c22c:	0f402ddf 	jal	9d00b77c <fgetc>
9d00c230:	00000000 	nop
9d00c234:	8fbf0014 	lw	ra,20(sp)
9d00c238:	03e00008 	jr	ra
9d00c23c:	27bd0018 	addiu	sp,sp,24

Disassembly of section .text.negdf2:

9d00c240 <__negdf2>:
9d00c240:	3c018000 00a12826 00041025 00051825     ...<&(..%...%...

9d00c250 <M999>:
9d00c250:	03e00008 	jr	ra
9d00c254:	00000000 	nop
9d00c258:	00000000 	nop

Disassembly of section .text:

9d00c25c <_nmi_handler>:
9d00c25c:	401a6000 	mfc0	k0,c0_status
9d00c260:	3c1bffbf 	lui	k1,0xffbf
9d00c264:	377bffff 	ori	k1,k1,0xffff
9d00c268:	035bd024 	and	k0,k0,k1
9d00c26c:	409a6000 	mtc0	k0,c0_status
9d00c270:	42000018 	eret

Disassembly of section .rodata:

9d00c274 <f5pow>:
9d00c274:	40a00000 41c80000 441c4000 48bebc20     ...@...A.@.D ..H
9d00c284:	520e1bca 649dc5ae                       ...R...d

Disassembly of section .text._io_exit:

9d00c28c <_io_exit>:
9d00c28c:	3c02a000 	lui	v0,0xa000
9d00c290:	8c420014 	lw	v0,20(v0)
9d00c294:	24030001 	li	v1,1
9d00c298:	03e00008 	jr	ra
9d00c29c:	ac430038 	sw	v1,56(v0)

Disassembly of section .rodata:

9d00c2a0 <_io_funcs>:
9d00c2a0:	9d00bfe8 9d00a784 9d00b600 9d00b680     ................
9d00c2b0:	9d00c01c                                ....

Disassembly of section .text._io_exit:

9d00c2b4 <.text._io_exit>:
9d00c2b4:	3c02a000 	lui	v0,0xa000
9d00c2b8:	8c420014 	lw	v0,20(v0)
9d00c2bc:	24030001 	li	v1,1
9d00c2c0:	03e00008 	jr	ra
9d00c2c4:	ac430038 	sw	v1,56(v0)

Disassembly of section .rodata:

9d00c2c8 <_io_strfuncs>:
9d00c2c8:	9d00c314 9d00c31c 9d00c324 9d00c32c     ........$...,...
9d00c2d8:	9d00c334                                4...

Disassembly of section .text.negsf2:

9d00c2dc <__negsf2>:
9d00c2dc:	3c018000 00811026                       ...<&...

9d00c2e4 <L999>:
9d00c2e4:	03e00008 	jr	ra
9d00c2e8:	00000000 	nop
9d00c2ec:	00000000 	nop

Disassembly of section .rodata:

9d00c2f0 <.rodata>:
9d00c2f0:	47000000 	c1	0x1000000
9d00c2f4:	43b40000 	c0	0x1b40000
9d00c2f8:	44e00000 	mthc1	zero,$f0
9d00c2fc:	3c3fdb4d 	0x3c3fdb4d
9d00c300:	4244cccd 	c0	0x44cccd

Disassembly of section .text._on_reset:

9d00c304 <_on_reset>:
9d00c304:	03e00008 	jr	ra
9d00c308:	00000000 	nop

Disassembly of section .text._on_bootstrap:

9d00c30c <_on_bootstrap>:
9d00c30c:	03e00008 	jr	ra
9d00c310:	00000000 	nop

Disassembly of section .text._filbuf_string:

9d00c314 <_filbuf_string>:
9d00c314:	03e00008 	jr	ra
9d00c318:	2402ffff 	li	v0,-1

Disassembly of section .text._flsbuf_string:

9d00c31c <_flsbuf_string>:
9d00c31c:	03e00008 	jr	ra
9d00c320:	00801021 	move	v0,a0

Disassembly of section .text._fflush_string:

9d00c324 <_fflush_string>:
9d00c324:	03e00008 	jr	ra
9d00c328:	00001021 	move	v0,zero

Disassembly of section .text._fwrite_string:

9d00c32c <_fwrite_string>:
9d00c32c:	03e00008 	jr	ra
9d00c330:	00001021 	move	v0,zero

Disassembly of section .text._fsync_string:

9d00c334 <_fsync_string>:
9d00c334:	03e00008 	jr	ra
9d00c338:	24020001 	li	v0,1

Disassembly of section .text._weak_pthread_mutex_init:

9d00c33c <_weak_pthread_mutex_init>:
9d00c33c:	03e00008 	jr	ra
9d00c340:	00001021 	move	v0,zero

Disassembly of section .text._weak_pthread_mutex_destroy:

9d00c344 <_weak_pthread_mutex_destroy>:
9d00c344:	03e00008 	jr	ra
9d00c348:	00001021 	move	v0,zero

Disassembly of section .text._weak_pthread_mutex_lock:

9d00c34c <_weak_pthread_mutex_lock>:
9d00c34c:	03e00008 	jr	ra
9d00c350:	00001021 	move	v0,zero

Disassembly of section .text._weak_pthread_mutex_trylock:

9d00c354 <_weak_pthread_mutex_trylock>:
9d00c354:	03e00008 	jr	ra
9d00c358:	00001021 	move	v0,zero

Disassembly of section .text._weak_pthread_mutex_unlock:

9d00c35c <_weak_pthread_mutex_unlock>:
9d00c35c:	03e00008 	jr	ra
9d00c360:	00001021 	move	v0,zero

Disassembly of section .text._weak_pthread_mutex_setname_np:

9d00c364 <_weak_pthread_mutex_setname_np>:
9d00c364:	03e00008 	jr	ra
9d00c368:	00001021 	move	v0,zero

Disassembly of section .text._weak_pthread_mutexattr_init:

9d00c36c <_weak_pthread_mutexattr_init>:
9d00c36c:	03e00008 	jr	ra
9d00c370:	00001021 	move	v0,zero

Disassembly of section .text._weak_pthread_mutexattr_destroy:

9d00c374 <_weak_pthread_mutexattr_destroy>:
9d00c374:	03e00008 	jr	ra
9d00c378:	00001021 	move	v0,zero

Disassembly of section .text._weak_pthread_mutexattr_setname_np:

9d00c37c <_weak_pthread_mutexattr_setname_np>:
9d00c37c:	03e00008 	jr	ra
9d00c380:	00001021 	move	v0,zero

Disassembly of section .text._weak_pthread_mutexattr_settype_np:

9d00c384 <_weak_pthread_mutexattr_settype_np>:
9d00c384:	03e00008 	jr	ra
9d00c388:	00001021 	move	v0,zero

Disassembly of section .text._weak_pthread_sysconf_np:

9d00c38c <_weak_pthread_sysconf_np>:
9d00c38c:	03e00008 	jr	ra
9d00c390:	2402ffff 	li	v0,-1

Disassembly of section .text._weak_pthread_sigdisable_np:

9d00c394 <_weak_pthread_sigdisable_np>:
9d00c394:	03e00008 	jr	ra
9d00c398:	00000000 	nop

Disassembly of section .text._weak_pthread_sigrestore_np:

9d00c39c <_weak_pthread_sigrestore_np>:
9d00c39c:	03e00008 	jr	ra
9d00c3a0:	00000000 	nop

Disassembly of section .text._weak__pthread_cleanup_push:

9d00c3a4 <_weak__pthread_cleanup_push>:
9d00c3a4:	03e00008 	jr	ra
9d00c3a8:	00000000 	nop

Disassembly of section .text._weak__pthread_cleanup_pop:

9d00c3ac <_weak__pthread_cleanup_pop>:
9d00c3ac:	03e00008 	jr	ra
9d00c3b0:	00000000 	nop

Disassembly of section .text._weak__pthread_cleanup_push_defer:

9d00c3b4 <_weak__pthread_cleanup_push_defer>:
9d00c3b4:	03e00008 	jr	ra
9d00c3b8:	00000000 	nop

Disassembly of section .text._weak__pthread_cleanup_pop_restore:

9d00c3bc <_weak__pthread_cleanup_pop_restore>:
9d00c3bc:	03e00008 	jr	ra
9d00c3c0:	00000000 	nop

Disassembly of section .text._weak_pthread_key_create:

9d00c3c4 <_weak_pthread_key_create>:
9d00c3c4:	03e00008 	jr	ra
9d00c3c8:	2402ffff 	li	v0,-1

Disassembly of section .text._weak_pthread_setspecific:

9d00c3cc <_weak_pthread_setspecific>:
9d00c3cc:	03e00008 	jr	ra
9d00c3d0:	2402ffff 	li	v0,-1

Disassembly of section .text._weak_pthread_getspecific:

9d00c3d4 <_weak_pthread_getspecific>:
9d00c3d4:	03e00008 	jr	ra
9d00c3d8:	00001021 	move	v0,zero

Disassembly of section .text._weak__libc_private_storage:

9d00c3dc <_weak__libc_private_storage>:
9d00c3dc:	03e00008 	jr	ra
9d00c3e0:	00a01021 	move	v0,a1

Disassembly of section .text.getpagesize:

9d00c3e4 <getpagesize>:
9d00c3e4:	03e00008 	jr	ra
9d00c3e8:	24020080 	li	v0,128

Disassembly of section .text._exit:

9d00c3ec <_exit>:
9d00c3ec:	0b4030fb 	j	9d00c3ec <_exit>
9d00c3f0:	00000000 	nop

Disassembly of section .text.isatty:

9d00c3f4 <isatty>:
9d00c3f4:	03e00008 	jr	ra
9d00c3f8:	00001021 	move	v0,zero
