
out.elf:     file format elf32-tradlittlemips


Disassembly of section .config_BFC02FF0:

bfc02ff0 <__config_BFC02FF0>:
bfc02ff0:	ff ff fe fa                                         ....

Disassembly of section .config_BFC02FF4:

bfc02ff4 <__config_BFC02FF4>:
bfc02ff4:	d9 79 f8 ff                                         .y..

Disassembly of section .config_BFC02FF8:

bfc02ff8 <__config_BFC02FF8>:
bfc02ff8:	db ce 6c ff                                         ..l.

Disassembly of section .config_BFC02FFC:

bfc02ffc <__config_BFC02FFC>:
bfc02ffc:	ff ff ff 7e                                         ...~

Disassembly of section .reset:

bd001970 <_reset>:
bd001970:	0f40065e 	jal	bd001978 <_startup>
bd001974:	00000000 	nop

bd001978 <_startup>:
bd001978:	401a6000 	mfc0	k0,c0_status
bd00197c:	7f5a04c0 	ext	k0,k0,0x13,0x1
bd001980:	13400005 	beqz	k0,bd001998 <_no_nmi>
bd001984:	00000000 	nop
bd001988:	3c1a9d01 	lui	k0,0x9d01
bd00198c:	275aa3e4 	addiu	k0,k0,-23580
bd001990:	03400008 	jr	k0
bd001994:	00000000 	nop

bd001998 <_no_nmi>:
bd001998:	3c1da002 	lui	sp,0xa002
bd00199c:	27bdfff8 	addiu	sp,sp,-8
bd0019a0:	3c1ca000 	lui	gp,0xa000
bd0019a4:	279c7ff0 	addiu	gp,gp,32752
bd0019a8:	40096002 	mfc0	t1,c0_srsctl
bd0019ac:	01205820 	add	t3,t1,zero
bd0019b0:	7d2a1e80 	ext	t2,t1,0x1a,0x4
bd0019b4:	7d494984 	ins	t1,t2,0x6,0x4
bd0019b8:	40896002 	mtc0	t1,c0_srsctl
bd0019bc:	000000c0 	ehb
bd0019c0:	41dce000 	wrpgpr	gp,gp
bd0019c4:	408b6002 	mtc0	t3,c0_srsctl
bd0019c8:	000000c0 	ehb
bd0019cc:	3c089d01 	lui	t0,0x9d01
bd0019d0:	2508a48c 	addiu	t0,t0,-23412
bd0019d4:	0100f809 	jalr	t0
bd0019d8:	00000000 	nop
bd0019dc:	3c08a000 	lui	t0,0xa000
bd0019e0:	25080008 	addiu	t0,t0,8
bd0019e4:	3c09a000 	lui	t1,0xa000
bd0019e8:	25290024 	addiu	t1,t1,36
bd0019ec:	10000006 	b	bd001a08 <_bss_check>
bd0019f0:	00000000 	nop

bd0019f4 <_bss_init>:
bd0019f4:	ad000000 	sw	zero,0(t0)
bd0019f8:	ad000004 	sw	zero,4(t0)
bd0019fc:	ad000008 	sw	zero,8(t0)
bd001a00:	ad00000c 	sw	zero,12(t0)
bd001a04:	25080010 	addiu	t0,t0,16

bd001a08 <_bss_check>:
bd001a08:	0109082b 	sltu	at,t0,t1
bd001a0c:	1420fff9 	bnez	at,bd0019f4 <_bss_init>
bd001a10:	00000000 	nop

bd001a14 <_dinit_init>:
bd001a14:	3c089d00 	lui	t0,0x9d00
bd001a18:	25083ce8 	addiu	t0,t0,15592
bd001a1c:	8d090000 	lw	t1,0(t0)
bd001a20:	11200018 	beqz	t1,bd001a84 <_dinit_end+0x18>
bd001a24:	25080004 	addiu	t0,t0,4
bd001a28:	8d0a0000 	lw	t2,0(t0)
bd001a2c:	25080004 	addiu	t0,t0,4
bd001a30:	8d0b0000 	lw	t3,0(t0)
bd001a34:	11600009 	beqz	t3,bd001a5c <_dinit_clear>
bd001a38:	25080004 	addiu	t0,t0,4

bd001a3c <_dinit_copy>:
bd001a3c:	910c0000 	lbu	t4,0(t0)
bd001a40:	254affff 	addiu	t2,t2,-1
bd001a44:	25080001 	addiu	t0,t0,1
bd001a48:	a12c0000 	sb	t4,0(t1)
bd001a4c:	1540fffb 	bnez	t2,bd001a3c <_dinit_copy>
bd001a50:	25290001 	addiu	t1,t1,1
bd001a54:	10000005 	b	bd001a6c <_dinit_end>
bd001a58:	00000000 	nop

bd001a5c <_dinit_clear>:
bd001a5c:	a1200000 	sb	zero,0(t1)
bd001a60:	254affff 	addiu	t2,t2,-1
bd001a64:	1540fffd 	bnez	t2,bd001a5c <_dinit_clear>
bd001a68:	25290001 	addiu	t1,t1,1

bd001a6c <_dinit_end>:
bd001a6c:	25080003 	addiu	t0,t0,3
bd001a70:	240afffc 	li	t2,-4
bd001a74:	01484024 	and	t0,t2,t0
bd001a78:	8d090000 	lw	t1,0(t0)
bd001a7c:	1520ffe7 	bnez	t1,bd001a1c <_dinit_init+0x8>
bd001a80:	00000000 	nop
bd001a84:	3c090000 	lui	t1,0x0
bd001a88:	25290000 	addiu	t1,t1,0
bd001a8c:	11200010 	beqz	t1,bd001ad0 <_ramfunc_done>
bd001a90:	00000000 	nop
bd001a94:	3c090002 	lui	t1,0x2
bd001a98:	25290000 	addiu	t1,t1,0
bd001a9c:	3c0abf88 	lui	t2,0xbf88
bd001aa0:	254a2010 	addiu	t2,t2,8208
bd001aa4:	ad490000 	sw	t1,0(t2)
bd001aa8:	3c090002 	lui	t1,0x2
bd001aac:	25290000 	addiu	t1,t1,0
bd001ab0:	3c0abf88 	lui	t2,0xbf88
bd001ab4:	254a2020 	addiu	t2,t2,8224
bd001ab8:	ad490000 	sw	t1,0(t2)
bd001abc:	3c090002 	lui	t1,0x2
bd001ac0:	25290000 	addiu	t1,t1,0
bd001ac4:	3c0abf88 	lui	t2,0xbf88
bd001ac8:	254a2030 	addiu	t2,t2,8240
bd001acc:	ad490000 	sw	t1,0(t2)

bd001ad0 <_ramfunc_done>:
bd001ad0:	40804800 	mtc0	zero,c0_count
bd001ad4:	240affff 	li	t2,-1
bd001ad8:	408a5800 	mtc0	t2,c0_compare
bd001adc:	3c080040 	lui	t0,0x40
bd001ae0:	400a6000 	mfc0	t2,c0_status
bd001ae4:	010a5025 	or	t2,t0,t2
bd001ae8:	408a6000 	mtc0	t2,c0_status
bd001aec:	3c099d00 	lui	t1,0x9d00
bd001af0:	25290000 	addiu	t1,t1,0
bd001af4:	000000c0 	ehb
bd001af8:	40897801 	mtc0	t1,c0_ebase
bd001afc:	3c090000 	lui	t1,0x0
bd001b00:	25290001 	addiu	t1,t1,1
bd001b04:	240a0000 	li	t2,0
bd001b08:	7d2a4944 	ins	t2,t1,0x5,0x5
bd001b0c:	408a6001 	mtc0	t2,c0_intctl
bd001b10:	3c090080 	lui	t1,0x80
bd001b14:	40896800 	mtc0	t1,c0_cause
bd001b18:	40088000 	mfc0	t0,c0_config
bd001b1c:	7d090580 	ext	t1,t0,0x16,0x1
bd001b20:	00094c40 	sll	t1,t1,0x11
bd001b24:	40086000 	mfc0	t0,c0_status
bd001b28:	3c010058 	lui	at,0x58
bd001b2c:	01014024 	and	t0,t0,at
bd001b30:	01284025 	or	t0,t1,t0
bd001b34:	40886000 	mtc0	t0,c0_status
bd001b38:	000000c0 	ehb
bd001b3c:	3c089d01 	lui	t0,0x9d01
bd001b40:	2508a494 	addiu	t0,t0,-23404
bd001b44:	0100f809 	jalr	t0
bd001b48:	00000000 	nop
bd001b4c:	40086000 	mfc0	t0,c0_status
bd001b50:	3c01ffbf 	lui	at,0xffbf
bd001b54:	3421ffff 	ori	at,at,0xffff
bd001b58:	01014024 	and	t0,t0,at
bd001b5c:	40886000 	mtc0	t0,c0_status
bd001b60:	30840000 	andi	a0,a0,0x0
bd001b64:	30a50000 	andi	a1,a1,0x0
bd001b68:	3c089d01 	lui	t0,0x9d01
bd001b6c:	25089e20 	addiu	t0,t0,-25056
bd001b70:	01000008 	jr	t0
bd001b74:	00000000 	nop

Disassembly of section .bev_excpt:

bd001cf0 <_bev_exception>:
bd001cf0:	3c1a9d01 	lui	k0,0x9d01
bd001cf4:	275a9f10 	addiu	k0,k0,-24816
bd001cf8:	03400008 	jr	k0
bd001cfc:	00000000 	nop

Disassembly of section .app_excpt:

9d000180 <_gen_exception>:
9d000180:	3c1a9d01 	lui	k0,0x9d01
9d000184:	275a91cc 	addiu	k0,k0,-28212
9d000188:	03400008 	jr	k0
9d00018c:	00000000 	nop

Disassembly of section .vector_0:

9d000200 <__vector_dispatch_0>:
9d000200:	0b4027e8 	j	9d009fa0 <.LFE0>
9d000204:	00000000 	nop

Disassembly of section .vector_1:

9d000220 <__vector_dispatch_1>:
9d000220:	0b4027e8 	j	9d009fa0 <.LFE0>
9d000224:	00000000 	nop

Disassembly of section .vector_2:

9d000240 <__vector_dispatch_2>:
9d000240:	0b4027e8 	j	9d009fa0 <.LFE0>
9d000244:	00000000 	nop

Disassembly of section .vector_3:

9d000260 <__vector_dispatch_3>:
9d000260:	0b4027e8 	j	9d009fa0 <.LFE0>
9d000264:	00000000 	nop

Disassembly of section .vector_4:

9d000280 <__vector_dispatch_4>:
9d000280:	0b4027e8 	j	9d009fa0 <.LFE0>
9d000284:	00000000 	nop

Disassembly of section .vector_5:

9d0002a0 <__vector_dispatch_5>:
9d0002a0:	0b4027e8 	j	9d009fa0 <.LFE0>
9d0002a4:	00000000 	nop

Disassembly of section .vector_6:

9d0002c0 <__vector_dispatch_6>:
9d0002c0:	0b4027e8 	j	9d009fa0 <.LFE0>
9d0002c4:	00000000 	nop

Disassembly of section .vector_7:

9d0002e0 <__vector_dispatch_7>:
9d0002e0:	0b4027e8 	j	9d009fa0 <.LFE0>
9d0002e4:	00000000 	nop

Disassembly of section .vector_8:

9d000300 <__vector_dispatch_8>:
9d000300:	0b40192a 	j	9d0064a8 <Controller>
9d000304:	00000000 	nop

Disassembly of section .vector_9:

9d000320 <__vector_dispatch_9>:
9d000320:	0b4027e8 	j	9d009fa0 <.LFE0>
9d000324:	00000000 	nop

Disassembly of section .vector_10:

9d000340 <__vector_dispatch_10>:
9d000340:	0b4027e8 	j	9d009fa0 <.LFE0>
9d000344:	00000000 	nop

Disassembly of section .vector_11:

9d000360 <__vector_dispatch_11>:
9d000360:	0b4027e8 	j	9d009fa0 <.LFE0>
9d000364:	00000000 	nop

Disassembly of section .vector_12:

9d000380 <__vector_dispatch_12>:
9d000380:	0b4027e8 	j	9d009fa0 <.LFE0>
9d000384:	00000000 	nop

Disassembly of section .vector_13:

9d0003a0 <__vector_dispatch_13>:
9d0003a0:	0b4027e8 	j	9d009fa0 <.LFE0>
9d0003a4:	00000000 	nop

Disassembly of section .vector_14:

9d0003c0 <__vector_dispatch_14>:
9d0003c0:	0b4027e8 	j	9d009fa0 <.LFE0>
9d0003c4:	00000000 	nop

Disassembly of section .vector_15:

9d0003e0 <__vector_dispatch_15>:
9d0003e0:	0b4027e8 	j	9d009fa0 <.LFE0>
9d0003e4:	00000000 	nop

Disassembly of section .vector_16:

9d000400 <__vector_dispatch_16>:
9d000400:	0b4027e8 	j	9d009fa0 <.LFE0>
9d000404:	00000000 	nop

Disassembly of section .vector_17:

9d000420 <__vector_dispatch_17>:
9d000420:	0b4027e8 	j	9d009fa0 <.LFE0>
9d000424:	00000000 	nop

Disassembly of section .vector_18:

9d000440 <__vector_dispatch_18>:
9d000440:	0b4027e8 	j	9d009fa0 <.LFE0>
9d000444:	00000000 	nop

Disassembly of section .vector_19:

9d000460 <__vector_dispatch_19>:
9d000460:	0b4027e8 	j	9d009fa0 <.LFE0>
9d000464:	00000000 	nop

Disassembly of section .vector_20:

9d000480 <__vector_dispatch_20>:
9d000480:	0b4027e8 	j	9d009fa0 <.LFE0>
9d000484:	00000000 	nop

Disassembly of section .vector_21:

9d0004a0 <__vector_dispatch_21>:
9d0004a0:	0b4027e8 	j	9d009fa0 <.LFE0>
9d0004a4:	00000000 	nop

Disassembly of section .vector_22:

9d0004c0 <__vector_dispatch_22>:
9d0004c0:	0b4027e8 	j	9d009fa0 <.LFE0>
9d0004c4:	00000000 	nop

Disassembly of section .vector_23:

9d0004e0 <__vector_dispatch_23>:
9d0004e0:	0b4027e8 	j	9d009fa0 <.LFE0>
9d0004e4:	00000000 	nop

Disassembly of section .vector_24:

9d000500 <__vector_dispatch_24>:
9d000500:	0b4027e8 	j	9d009fa0 <.LFE0>
9d000504:	00000000 	nop

Disassembly of section .vector_25:

9d000520 <__vector_dispatch_25>:
9d000520:	0b4027e8 	j	9d009fa0 <.LFE0>
9d000524:	00000000 	nop

Disassembly of section .vector_26:

9d000540 <__vector_dispatch_26>:
9d000540:	0b4027e8 	j	9d009fa0 <.LFE0>
9d000544:	00000000 	nop

Disassembly of section .vector_27:

9d000560 <__vector_dispatch_27>:
9d000560:	0b4027e8 	j	9d009fa0 <.LFE0>
9d000564:	00000000 	nop

Disassembly of section .vector_28:

9d000580 <__vector_dispatch_28>:
9d000580:	0b4027e8 	j	9d009fa0 <.LFE0>
9d000584:	00000000 	nop

Disassembly of section .vector_29:

9d0005a0 <__vector_dispatch_29>:
9d0005a0:	0b4027e8 	j	9d009fa0 <.LFE0>
9d0005a4:	00000000 	nop

Disassembly of section .vector_30:

9d0005c0 <__vector_dispatch_30>:
9d0005c0:	0b4027e8 	j	9d009fa0 <.LFE0>
9d0005c4:	00000000 	nop

Disassembly of section .vector_31:

9d0005e0 <__vector_dispatch_31>:
9d0005e0:	0b4027e8 	j	9d009fa0 <.LFE0>
9d0005e4:	00000000 	nop

Disassembly of section .vector_32:

9d000600 <__vector_dispatch_32>:
9d000600:	0b4027e8 	j	9d009fa0 <.LFE0>
9d000604:	00000000 	nop

Disassembly of section .vector_33:

9d000620 <__vector_dispatch_33>:
9d000620:	0b4027e8 	j	9d009fa0 <.LFE0>
9d000624:	00000000 	nop

Disassembly of section .vector_34:

9d000640 <__vector_dispatch_34>:
9d000640:	0b4027e8 	j	9d009fa0 <.LFE0>
9d000644:	00000000 	nop

Disassembly of section .vector_35:

9d000660 <__vector_dispatch_35>:
9d000660:	0b4027e8 	j	9d009fa0 <.LFE0>
9d000664:	00000000 	nop

Disassembly of section .vector_36:

9d000680 <__vector_dispatch_36>:
9d000680:	0b4027e8 	j	9d009fa0 <.LFE0>
9d000684:	00000000 	nop

Disassembly of section .vector_37:

9d0006a0 <__vector_dispatch_37>:
9d0006a0:	0b4027e8 	j	9d009fa0 <.LFE0>
9d0006a4:	00000000 	nop

Disassembly of section .vector_38:

9d0006c0 <__vector_dispatch_38>:
9d0006c0:	0b4027e8 	j	9d009fa0 <.LFE0>
9d0006c4:	00000000 	nop

Disassembly of section .vector_39:

9d0006e0 <__vector_dispatch_39>:
9d0006e0:	0b4027e8 	j	9d009fa0 <.LFE0>
9d0006e4:	00000000 	nop

Disassembly of section .vector_40:

9d000700 <__vector_dispatch_40>:
9d000700:	0b4027e8 	j	9d009fa0 <.LFE0>
9d000704:	00000000 	nop

Disassembly of section .vector_41:

9d000720 <__vector_dispatch_41>:
9d000720:	0b4027e8 	j	9d009fa0 <.LFE0>
9d000724:	00000000 	nop

Disassembly of section .vector_42:

9d000740 <__vector_dispatch_42>:
9d000740:	0b4027e8 	j	9d009fa0 <.LFE0>
9d000744:	00000000 	nop

Disassembly of section .vector_43:

9d000760 <__vector_dispatch_43>:
9d000760:	0b4027e8 	j	9d009fa0 <.LFE0>
9d000764:	00000000 	nop

Disassembly of section .vector_44:

9d000780 <__vector_dispatch_44>:
9d000780:	0b4027e8 	j	9d009fa0 <.LFE0>
9d000784:	00000000 	nop

Disassembly of section .vector_45:

9d0007a0 <__vector_dispatch_45>:
9d0007a0:	0b4027e8 	j	9d009fa0 <.LFE0>
9d0007a4:	00000000 	nop

Disassembly of section .vector_46:

9d0007c0 <__vector_dispatch_46>:
9d0007c0:	0b4027e8 	j	9d009fa0 <.LFE0>
9d0007c4:	00000000 	nop

Disassembly of section .vector_47:

9d0007e0 <__vector_dispatch_47>:
9d0007e0:	0b4027e8 	j	9d009fa0 <.LFE0>
9d0007e4:	00000000 	nop

Disassembly of section .vector_48:

9d000800 <__vector_dispatch_48>:
9d000800:	0b4027e8 	j	9d009fa0 <.LFE0>
9d000804:	00000000 	nop

Disassembly of section .vector_49:

9d000820 <__vector_dispatch_49>:
9d000820:	0b4027e8 	j	9d009fa0 <.LFE0>
9d000824:	00000000 	nop

Disassembly of section .vector_50:

9d000840 <__vector_dispatch_50>:
9d000840:	0b4027e8 	j	9d009fa0 <.LFE0>
9d000844:	00000000 	nop

Disassembly of section .vector_51:

9d000860 <__vector_dispatch_51>:
9d000860:	0b4027e8 	j	9d009fa0 <.LFE0>
9d000864:	00000000 	nop

Disassembly of section ._debug_exception:

bfc00480 <__DbgExecReturn>:
bfc00480:	409bf800 	mtc0	k1,c0_desave
bfc00484:	000000c0 	ehb
bfc00488:	3c1b9d01 	lui	k1,0x9d01
bfc0048c:	277ba030 	addiu	k1,k1,-24528
bfc00490:	13600002 	beqz	k1,bfc0049c <__DbgExecReturn+0x1c>
bfc00494:	00000000 	nop
bfc00498:	409bc000 	mtc0	k1,c0_depc
bfc0049c:	401bf800 	mfc0	k1,c0_desave
bfc004a0:	000000c0 	ehb
bfc004a4:	4200001f 	deret
bfc004a8:	00000000 	nop

Disassembly of section .text.do_scan:

9d001e00 <do_scan>:
9d001e00:	27bdff00 	addiu	sp,sp,-256
9d001e04:	afbf00fc 	sw	ra,252(sp)
9d001e08:	afbe00f8 	sw	s8,248(sp)
9d001e0c:	afb700f4 	sw	s7,244(sp)
9d001e10:	afb600f0 	sw	s6,240(sp)
9d001e14:	afb500ec 	sw	s5,236(sp)
9d001e18:	afb400e8 	sw	s4,232(sp)
9d001e1c:	afb300e4 	sw	s3,228(sp)
9d001e20:	afb200e0 	sw	s2,224(sp)
9d001e24:	afb100dc 	sw	s1,220(sp)
9d001e28:	afb000d8 	sw	s0,216(sp)
9d001e2c:	00809821 	move	s3,a0
9d001e30:	8c820018 	lw	v0,24(a0)
9d001e34:	00a08021 	move	s0,a1
9d001e38:	24050002 	li	a1,2
9d001e3c:	8c420010 	lw	v0,16(v0)
9d001e40:	0040f809 	jalr	v0
9d001e44:	00c08821 	move	s1,a2
9d001e48:	104000a2 	beqz	v0,9d0020d4 <do_scan+0x2d4>
9d001e4c:	2402ffff 	li	v0,-1
9d001e50:	afb30098 	sw	s3,152(sp)
9d001e54:	afa2009c 	sw	v0,156(sp)
9d001e58:	afb100a4 	sw	s1,164(sp)
9d001e5c:	afa000ac 	sw	zero,172(sp)
9d001e60:	afa000b0 	sw	zero,176(sp)
9d001e64:	afa000a8 	sw	zero,168(sp)
9d001e68:	02002821 	move	a1,s0
9d001e6c:	0000f021 	move	s8,zero
9d001e70:	3c109d01 	lui	s0,0x9d01
9d001e74:	26108cf1 	addiu	s0,s0,-29455
9d001e78:	3c159d00 	lui	s5,0x9d00
9d001e7c:	24a20001 	addiu	v0,a1,1
9d001e80:	afa200a0 	sw	v0,160(sp)
9d001e84:	80b10000 	lb	s1,0(a1)
9d001e88:	12200012 	beqz	s1,9d001ed4 <do_scan+0xd4>
9d001e8c:	26b51ff8 	addiu	s5,s5,8184
9d001e90:	17c00010 	bnez	s8,9d001ed4 <do_scan+0xd4>
9d001e94:	24020025 	li	v0,37
9d001e98:	12220033 	beq	s1,v0,9d001f68 <do_scan+0x168>
9d001e9c:	02301021 	addu	v0,s1,s0
9d001ea0:	80420000 	lb	v0,0(v0)
9d001ea4:	30420088 	andi	v0,v0,0x88
9d001ea8:	10400021 	beqz	v0,9d001f30 <do_scan+0x130>
9d001eac:	27a40098 	addiu	a0,sp,152
9d001eb0:	0f4025e4 	jal	9d009790 <_eat_white>
9d001eb4:	00000000 	nop
9d001eb8:	0040f021 	move	s8,v0
9d001ebc:	8fa500a0 	lw	a1,160(sp)
9d001ec0:	24a20001 	addiu	v0,a1,1
9d001ec4:	afa200a0 	sw	v0,160(sp)
9d001ec8:	80b10000 	lb	s1,0(a1)
9d001ecc:	1620fff0 	bnez	s1,9d001e90 <do_scan+0x90>
9d001ed0:	00000000 	nop
9d001ed4:	8fa4009c 	lw	a0,156(sp)
9d001ed8:	2402ffff 	li	v0,-1
9d001edc:	10820005 	beq	a0,v0,9d001ef4 <do_scan+0xf4>
9d001ee0:	00000000 	nop
9d001ee4:	96620010 	lhu	v0,16(s3)
9d001ee8:	30420080 	andi	v0,v0,0x80
9d001eec:	1040008d 	beqz	v0,9d002124 <do_scan+0x324>
9d001ef0:	2402ffff 	li	v0,-1
9d001ef4:	13c20075 	beq	s8,v0,9d0020cc <do_scan+0x2cc>
9d001ef8:	8fa200ac 	lw	v0,172(sp)
9d001efc:	8fa200b0 	lw	v0,176(sp)
9d001f00:	8fbf00fc 	lw	ra,252(sp)
9d001f04:	8fbe00f8 	lw	s8,248(sp)
9d001f08:	8fb700f4 	lw	s7,244(sp)
9d001f0c:	8fb600f0 	lw	s6,240(sp)
9d001f10:	8fb500ec 	lw	s5,236(sp)
9d001f14:	8fb400e8 	lw	s4,232(sp)
9d001f18:	8fb300e4 	lw	s3,228(sp)
9d001f1c:	8fb200e0 	lw	s2,224(sp)
9d001f20:	8fb100dc 	lw	s1,220(sp)
9d001f24:	8fb000d8 	lw	s0,216(sp)
9d001f28:	03e00008 	jr	ra
9d001f2c:	27bd0100 	addiu	sp,sp,256
9d001f30:	0f40273e 	jal	9d009cf8 <gsgetc>
9d001f34:	00000000 	nop
9d001f38:	2403ffff 	li	v1,-1
9d001f3c:	504301cf 	beql	v0,v1,9d00267c <do_scan+0x87c>
9d001f40:	241effff 	li	s8,-1
9d001f44:	5222ffde 	beql	s1,v0,9d001ec0 <do_scan+0xc0>
9d001f48:	8fa500a0 	lw	a1,160(sp)
9d001f4c:	afa2009c 	sw	v0,156(sp)
9d001f50:	241e0001 	li	s8,1
9d001f54:	8fa200a8 	lw	v0,168(sp)
9d001f58:	2442ffff 	addiu	v0,v0,-1
9d001f5c:	afa200a8 	sw	v0,168(sp)
9d001f60:	0b4007b0 	j	9d001ec0 <do_scan+0xc0>
9d001f64:	8fa500a0 	lw	a1,160(sp)
9d001f68:	24a20002 	addiu	v0,a1,2
9d001f6c:	afa200a0 	sw	v0,160(sp)
9d001f70:	80b20001 	lb	s2,1(a1)
9d001f74:	125101a2 	beq	s2,s1,9d002600 <do_scan+0x800>
9d001f78:	2402002a 	li	v0,42
9d001f7c:	124200dd 	beq	s2,v0,9d0022f4 <do_scan+0x4f4>
9d001f80:	00008821 	move	s1,zero
9d001f84:	02121021 	addu	v0,s0,s2
9d001f88:	90420000 	lbu	v0,0(v0)
9d001f8c:	30420004 	andi	v0,v0,0x4
9d001f90:	144000c1 	bnez	v0,9d002298 <do_scan+0x498>
9d001f94:	3c167fff 	lui	s6,0x7fff
9d001f98:	36d6ffff 	ori	s6,s6,0xffff
9d001f9c:	24020068 	li	v0,104
9d001fa0:	124200cc 	beq	s2,v0,9d0022d4 <do_scan+0x4d4>
9d001fa4:	afb600d0 	sw	s6,208(sp)
9d001fa8:	2a420069 	slti	v0,s2,105
9d001fac:	144000b2 	bnez	v0,9d002278 <do_scan+0x478>
9d001fb0:	2402006c 	li	v0,108
9d001fb4:	12420054 	beq	s2,v0,9d002108 <do_scan+0x308>
9d001fb8:	8fa300a0 	lw	v1,160(sp)
9d001fbc:	24020071 	li	v0,113
9d001fc0:	16420005 	bne	s2,v0,9d001fd8 <do_scan+0x1d8>
9d001fc4:	8fa200a0 	lw	v0,160(sp)
9d001fc8:	36310800 	ori	s1,s1,0x800
9d001fcc:	24430001 	addiu	v1,v0,1
9d001fd0:	afa300a0 	sw	v1,160(sp)
9d001fd4:	80520000 	lb	s2,0(v0)
9d001fd8:	2652ffbc 	addiu	s2,s2,-68
9d001fdc:	2e420035 	sltiu	v0,s2,53
9d001fe0:	104001bf 	beqz	v0,9d0026e0 <do_scan+0x8e0>
9d001fe4:	00129080 	sll	s2,s2,0x2
9d001fe8:	02b29021 	addu	s2,s5,s2
9d001fec:	8e420000 	lw	v0,0(s2)
9d001ff0:	00400008 	jr	v0
9d001ff4:	00000000 	nop
9d001ff8:	9d002140 	0x9d002140
9d001ffc:	9d002414 	0x9d002414
9d002000:	9d002414 	0x9d002414
9d002004:	9d002414 	0x9d002414
9d002008:	9d0026e0 	0x9d0026e0
9d00200c:	9d0026e0 	0x9d0026e0
9d002010:	9d0026e0 	0x9d0026e0
9d002014:	9d0026e0 	0x9d0026e0
9d002018:	9d0026e0 	0x9d0026e0
9d00201c:	9d0026e0 	0x9d0026e0
9d002020:	9d0026e0 	0x9d0026e0
9d002024:	9d002404 	0x9d002404
9d002028:	9d0026e0 	0x9d0026e0
9d00202c:	9d0026e0 	0x9d0026e0
9d002030:	9d0026e0 	0x9d0026e0
9d002034:	9d0026e0 	0x9d0026e0
9d002038:	9d0026e0 	0x9d0026e0
9d00203c:	9d0023f4 	0x9d0023f4
9d002040:	9d0026e0 	0x9d0026e0
9d002044:	9d0026e0 	0x9d0026e0
9d002048:	9d0023e8 	0x9d0023e8
9d00204c:	9d0026e0 	0x9d0026e0
9d002050:	9d0026e0 	0x9d0026e0
9d002054:	9d002358 	0x9d002358
9d002058:	9d0026e0 	0x9d0026e0
9d00205c:	9d0026e0 	0x9d0026e0
9d002060:	9d0026e0 	0x9d0026e0
9d002064:	9d0026e0 	0x9d0026e0
9d002068:	9d0026e0 	0x9d0026e0
9d00206c:	9d0026e0 	0x9d0026e0
9d002070:	9d0026e0 	0x9d0026e0
9d002074:	9d002314 	0x9d002314
9d002078:	9d002144 	0x9d002144
9d00207c:	9d002414 	0x9d002414
9d002080:	9d002414 	0x9d002414
9d002084:	9d002414 	0x9d002414
9d002088:	9d0026e0 	0x9d0026e0
9d00208c:	9d002380 	0x9d002380
9d002090:	9d0026e0 	0x9d0026e0
9d002094:	9d0026e0 	0x9d0026e0
9d002098:	9d0026e0 	0x9d0026e0
9d00209c:	9d0026e0 	0x9d0026e0
9d0020a0:	9d00238c 	0x9d00238c
9d0020a4:	9d002308 	0x9d002308
9d0020a8:	9d0023e8 	0x9d0023e8
9d0020ac:	9d0026e0 	0x9d0026e0
9d0020b0:	9d0026e0 	0x9d0026e0
9d0020b4:	9d0023c8 	0x9d0023c8
9d0020b8:	9d0026e0 	0x9d0026e0
9d0020bc:	9d002148 	0x9d002148
9d0020c0:	9d0026e0 	0x9d0026e0
9d0020c4:	9d0026e0 	0x9d0026e0
9d0020c8:	9d0023e8 	0x9d0023e8
9d0020cc:	1440ff8c 	bnez	v0,9d001f00 <do_scan+0x100>
9d0020d0:	8fa200b0 	lw	v0,176(sp)
9d0020d4:	2402ffff 	li	v0,-1
9d0020d8:	8fbf00fc 	lw	ra,252(sp)
9d0020dc:	8fbe00f8 	lw	s8,248(sp)
9d0020e0:	8fb700f4 	lw	s7,244(sp)
9d0020e4:	8fb600f0 	lw	s6,240(sp)
9d0020e8:	8fb500ec 	lw	s5,236(sp)
9d0020ec:	8fb400e8 	lw	s4,232(sp)
9d0020f0:	8fb300e4 	lw	s3,228(sp)
9d0020f4:	8fb200e0 	lw	s2,224(sp)
9d0020f8:	8fb100dc 	lw	s1,220(sp)
9d0020fc:	8fb000d8 	lw	s0,216(sp)
9d002100:	03e00008 	jr	ra
9d002104:	27bd0100 	addiu	sp,sp,256
9d002108:	24640001 	addiu	a0,v1,1
9d00210c:	afa400a0 	sw	a0,160(sp)
9d002110:	80720000 	lb	s2,0(v1)
9d002114:	12420119 	beq	s2,v0,9d00257c <do_scan+0x77c>
9d002118:	24620002 	addiu	v0,v1,2
9d00211c:	0b4007f6 	j	9d001fd8 <do_scan+0x1d8>
9d002120:	36310200 	ori	s1,s1,0x200
9d002124:	0f40226a 	jal	9d0089a8 <ungetc>
9d002128:	8fa50098 	lw	a1,152(sp)
9d00212c:	2402ffff 	li	v0,-1
9d002130:	57c2ff73 	bnel	s8,v0,9d001f00 <do_scan+0x100>
9d002134:	8fa200b0 	lw	v0,176(sp)
9d002138:	0b400833 	j	9d0020cc <do_scan+0x2cc>
9d00213c:	8fa200ac 	lw	v0,172(sp)
9d002140:	36310200 	ori	s1,s1,0x200
9d002144:	36311000 	ori	s1,s1,0x1000
9d002148:	2403000a 	li	v1,10
9d00214c:	afa300d4 	sw	v1,212(sp)
9d002150:	0f4025e4 	jal	9d009790 <_eat_white>
9d002154:	27a40098 	addiu	a0,sp,152
9d002158:	1440ff58 	bnez	v0,9d001ebc <do_scan+0xbc>
9d00215c:	0040f021 	move	s8,v0
9d002160:	27a40018 	addiu	a0,sp,24
9d002164:	afa400cc 	sw	a0,204(sp)
9d002168:	8fa200d0 	lw	v0,208(sp)
9d00216c:	1440010b 	bnez	v0,9d00259c <do_scan+0x79c>
9d002170:	00009021 	move	s2,zero
9d002174:	27b60018 	addiu	s6,sp,24
9d002178:	8fa300d4 	lw	v1,212(sp)
9d00217c:	106000fa 	beqz	v1,9d002568 <do_scan+0x768>
9d002180:	2417ffff 	li	s7,-1
9d002184:	24020010 	li	v0,16
9d002188:	8fa300d4 	lw	v1,212(sp)
9d00218c:	1062015a 	beq	v1,v0,9d0026f8 <do_scan+0x8f8>
9d002190:	24020030 	li	v0,48
9d002194:	24020008 	li	v0,8
9d002198:	8fa300d4 	lw	v1,212(sp)
9d00219c:	146200f5 	bne	v1,v0,9d002574 <do_scan+0x774>
9d0021a0:	3c029d01 	lui	v0,0x9d01
9d0021a4:	24030008 	li	v1,8
9d0021a8:	afa300d4 	sw	v1,212(sp)
9d0021ac:	3c049d01 	lui	a0,0x9d01
9d0021b0:	2494a1d0 	addiu	s4,a0,-24112
9d0021b4:	2403ffff 	li	v1,-1
9d0021b8:	12e30009 	beq	s7,v1,9d0021e0 <do_scan+0x3e0>
9d0021bc:	02802021 	move	a0,s4
9d0021c0:	0f4023fd 	jal	9d008ff4 <strchr>
9d0021c4:	02e02821 	move	a1,s7
9d0021c8:	1040011d 	beqz	v0,9d002640 <do_scan+0x840>
9d0021cc:	26c20001 	addiu	v0,s6,1
9d0021d0:	afa200cc 	sw	v0,204(sp)
9d0021d4:	16400121 	bnez	s2,9d00265c <do_scan+0x85c>
9d0021d8:	a2d70000 	sb	s7,0(s6)
9d0021dc:	8fb600cc 	lw	s6,204(sp)
9d0021e0:	a2c00000 	sb	zero,0(s6)
9d0021e4:	2417ffff 	li	s7,-1
9d0021e8:	32340800 	andi	s4,s1,0x800
9d0021ec:	32361000 	andi	s6,s1,0x1000
9d0021f0:	27a40018 	addiu	a0,sp,24
9d0021f4:	27a500cc 	addiu	a1,sp,204
9d0021f8:	1280010a 	beqz	s4,9d002624 <do_scan+0x824>
9d0021fc:	8fa600d4 	lw	a2,212(sp)
9d002200:	12c00126 	beqz	s6,9d00269c <do_scan+0x89c>
9d002204:	00000000 	nop
9d002208:	0f40197b 	jal	9d0065ec <.LFE4>
9d00220c:	00000000 	nop
9d002210:	00402021 	move	a0,v0
9d002214:	00602821 	move	a1,v1
9d002218:	00001021 	move	v0,zero
9d00221c:	8fa300ac 	lw	v1,172(sp)
9d002220:	24630001 	addiu	v1,v1,1
9d002224:	afa300ac 	sw	v1,172(sp)
9d002228:	8fa300d0 	lw	v1,208(sp)
9d00222c:	10720115 	beq	v1,s2,9d002684 <do_scan+0x884>
9d002230:	32230001 	andi	v1,s1,0x1
9d002234:	5460ff22 	bnezl	v1,9d001ec0 <do_scan+0xc0>
9d002238:	8fa500a0 	lw	a1,160(sp)
9d00223c:	56800122 	bnezl	s4,9d0026c8 <do_scan+0x8c8>
9d002240:	8fa200a4 	lw	v0,164(sp)
9d002244:	32230200 	andi	v1,s1,0x200
9d002248:	10600171 	beqz	v1,9d002810 <do_scan+0xa10>
9d00224c:	32230100 	andi	v1,s1,0x100
9d002250:	8fa300a4 	lw	v1,164(sp)
9d002254:	24640004 	addiu	a0,v1,4
9d002258:	afa400a4 	sw	a0,164(sp)
9d00225c:	8c630000 	lw	v1,0(v1)
9d002260:	ac620000 	sw	v0,0(v1)
9d002264:	8fa200b0 	lw	v0,176(sp)
9d002268:	24420001 	addiu	v0,v0,1
9d00226c:	afa200b0 	sw	v0,176(sp)
9d002270:	0b4007b0 	j	9d001ec0 <do_scan+0xc0>
9d002274:	8fa500a0 	lw	a1,160(sp)
9d002278:	2402004c 	li	v0,76
9d00227c:	1642ff56 	bne	s2,v0,9d001fd8 <do_scan+0x1d8>
9d002280:	8fa200a0 	lw	v0,160(sp)
9d002284:	36310400 	ori	s1,s1,0x400
9d002288:	24430001 	addiu	v1,v0,1
9d00228c:	afa300a0 	sw	v1,160(sp)
9d002290:	0b4007f6 	j	9d001fd8 <do_scan+0x1d8>
9d002294:	80520000 	lb	s2,0(v0)
9d002298:	27a500a0 	addiu	a1,sp,160
9d00229c:	2406000a 	li	a2,10
9d0022a0:	8fa200a0 	lw	v0,160(sp)
9d0022a4:	2442ffff 	addiu	v0,v0,-1
9d0022a8:	00402021 	move	a0,v0
9d0022ac:	0f401e03 	jal	9d00780c <strtoul>
9d0022b0:	afa200a0 	sw	v0,160(sp)
9d0022b4:	afa200d0 	sw	v0,208(sp)
9d0022b8:	8fa200a0 	lw	v0,160(sp)
9d0022bc:	24430001 	addiu	v1,v0,1
9d0022c0:	afa300a0 	sw	v1,160(sp)
9d0022c4:	80520000 	lb	s2,0(v0)
9d0022c8:	24020068 	li	v0,104
9d0022cc:	5642ff37 	bnel	s2,v0,9d001fac <do_scan+0x1ac>
9d0022d0:	2a420069 	slti	v0,s2,105
9d0022d4:	8fa300a0 	lw	v1,160(sp)
9d0022d8:	24640001 	addiu	a0,v1,1
9d0022dc:	afa400a0 	sw	a0,160(sp)
9d0022e0:	80720000 	lb	s2,0(v1)
9d0022e4:	124200a9 	beq	s2,v0,9d00258c <do_scan+0x78c>
9d0022e8:	24620002 	addiu	v0,v1,2
9d0022ec:	0b4007f6 	j	9d001fd8 <do_scan+0x1d8>
9d0022f0:	36310100 	ori	s1,s1,0x100
9d0022f4:	24a20003 	addiu	v0,a1,3
9d0022f8:	afa200a0 	sw	v0,160(sp)
9d0022fc:	80b20002 	lb	s2,2(a1)
9d002300:	0b4007e1 	j	9d001f84 <do_scan+0x184>
9d002304:	24110001 	li	s1,1
9d002308:	24030008 	li	v1,8
9d00230c:	0b400854 	j	9d002150 <do_scan+0x350>
9d002310:	afa300d4 	sw	v1,212(sp)
9d002314:	3c077fff 	lui	a3,0x7fff
9d002318:	34e7ffff 	ori	a3,a3,0xffff
9d00231c:	8fa400d0 	lw	a0,208(sp)
9d002320:	00873826 	xor	a3,a0,a3
9d002324:	27a20098 	addiu	v0,sp,152
9d002328:	afa20010 	sw	v0,16(sp)
9d00232c:	00002021 	move	a0,zero
9d002330:	00002821 	move	a1,zero
9d002334:	02203021 	move	a2,s1
9d002338:	24020001 	li	v0,1
9d00233c:	8fa300d0 	lw	v1,208(sp)
9d002340:	0047180a 	movz	v1,v0,a3
9d002344:	0f401cc1 	jal	9d007304 <_strtostr>
9d002348:	00603821 	move	a3,v1
9d00234c:	0040f021 	move	s8,v0
9d002350:	0b4007b0 	j	9d001ec0 <do_scan+0xc0>
9d002354:	8fa500a0 	lw	a1,160(sp)
9d002358:	27a20098 	addiu	v0,sp,152
9d00235c:	afa20010 	sw	v0,16(sp)
9d002360:	24040002 	li	a0,2
9d002364:	24050001 	li	a1,1
9d002368:	02203021 	move	a2,s1
9d00236c:	0f401cc1 	jal	9d007304 <_strtostr>
9d002370:	8fa700d0 	lw	a3,208(sp)
9d002374:	0040f021 	move	s8,v0
9d002378:	0b4007b0 	j	9d001ec0 <do_scan+0xc0>
9d00237c:	8fa500a0 	lw	a1,160(sp)
9d002380:	36311000 	ori	s1,s1,0x1000
9d002384:	0b400854 	j	9d002150 <do_scan+0x350>
9d002388:	afa000d4 	sw	zero,212(sp)
9d00238c:	32220001 	andi	v0,s1,0x1
9d002390:	1440fecb 	bnez	v0,9d001ec0 <do_scan+0xc0>
9d002394:	8fa500a0 	lw	a1,160(sp)
9d002398:	32230800 	andi	v1,s1,0x800
9d00239c:	10600112 	beqz	v1,9d0027e8 <do_scan+0x9e8>
9d0023a0:	8fa200a8 	lw	v0,168(sp)
9d0023a4:	8fa300a4 	lw	v1,164(sp)
9d0023a8:	000227c3 	sra	a0,v0,0x1f
9d0023ac:	24650004 	addiu	a1,v1,4
9d0023b0:	afa500a4 	sw	a1,164(sp)
9d0023b4:	8c630000 	lw	v1,0(v1)
9d0023b8:	ac620000 	sw	v0,0(v1)
9d0023bc:	ac640004 	sw	a0,4(v1)
9d0023c0:	0b4007b0 	j	9d001ec0 <do_scan+0xc0>
9d0023c4:	8fa500a0 	lw	a1,160(sp)
9d0023c8:	0f4025e4 	jal	9d009790 <_eat_white>
9d0023cc:	27a40098 	addiu	a0,sp,152
9d0023d0:	1440feba 	bnez	v0,9d001ebc <do_scan+0xbc>
9d0023d4:	0040f021 	move	s8,v0
9d0023d8:	27a30098 	addiu	v1,sp,152
9d0023dc:	afa30010 	sw	v1,16(sp)
9d0023e0:	0b4008d9 	j	9d002364 <do_scan+0x564>
9d0023e4:	24040001 	li	a0,1
9d0023e8:	24030010 	li	v1,16
9d0023ec:	0b400854 	j	9d002150 <do_scan+0x350>
9d0023f0:	afa300d4 	sw	v1,212(sp)
9d0023f4:	36310200 	ori	s1,s1,0x200
9d0023f8:	2403000a 	li	v1,10
9d0023fc:	0b400854 	j	9d002150 <do_scan+0x350>
9d002400:	afa300d4 	sw	v1,212(sp)
9d002404:	36310200 	ori	s1,s1,0x200
9d002408:	24030008 	li	v1,8
9d00240c:	0b400854 	j	9d002150 <do_scan+0x350>
9d002410:	afa300d4 	sw	v1,212(sp)
9d002414:	0f4025e4 	jal	9d009790 <_eat_white>
9d002418:	27a40098 	addiu	a0,sp,152
9d00241c:	1440fea7 	bnez	v0,9d001ebc <do_scan+0xbc>
9d002420:	0040f021 	move	s8,v0
9d002424:	8fa400d0 	lw	a0,208(sp)
9d002428:	afa400b8 	sw	a0,184(sp)
9d00242c:	27a20098 	addiu	v0,sp,152
9d002430:	afa200b4 	sw	v0,180(sp)
9d002434:	27a20018 	addiu	v0,sp,24
9d002438:	afa200bc 	sw	v0,188(sp)
9d00243c:	afa000c0 	sw	zero,192(sp)
9d002440:	24020080 	li	v0,128
9d002444:	afa200c4 	sw	v0,196(sp)
9d002448:	14800109 	bnez	a0,9d002870 <do_scan+0xa70>
9d00244c:	afa000c8 	sw	zero,200(sp)
9d002450:	3c049d01 	lui	a0,0x9d01
9d002454:	24828cf0 	addiu	v0,a0,-29456
9d002458:	2416ffff 	li	s6,-1
9d00245c:	0000a021 	move	s4,zero
9d002460:	0b40091e 	j	9d002478 <do_scan+0x678>
9d002464:	27b200b4 	addiu	s2,sp,180
9d002468:	0f4022b7 	jal	9d008adc <putget.2773>
9d00246c:	02c02021 	move	a0,s6
9d002470:	0040b021 	move	s6,v0
9d002474:	02021021 	addu	v0,s0,v0
9d002478:	90420000 	lbu	v0,0(v0)
9d00247c:	30420004 	andi	v0,v0,0x4
9d002480:	1440fff9 	bnez	v0,9d002468 <do_scan+0x668>
9d002484:	02407821 	move	t7,s2
9d002488:	2402002e 	li	v0,46
9d00248c:	12c20135 	beq	s6,v0,9d002964 <do_scan+0xb64>
9d002490:	8fa200c8 	lw	v0,200(sp)
9d002494:	00541023 	subu	v0,v0,s4
9d002498:	18400005 	blez	v0,9d0024b0 <do_scan+0x6b0>
9d00249c:	2403ffdf 	li	v1,-33
9d0024a0:	02c31824 	and	v1,s6,v1
9d0024a4:	24020045 	li	v0,69
9d0024a8:	1062010a 	beq	v1,v0,9d0028d4 <do_scan+0xad4>
9d0024ac:	02407821 	move	t7,s2
9d0024b0:	02407821 	move	t7,s2
9d0024b4:	0f4022b7 	jal	9d008adc <putget.2773>
9d0024b8:	00002021 	move	a0,zero
9d0024bc:	2402ffff 	li	v0,-1
9d0024c0:	12c20008 	beq	s6,v0,9d0024e4 <do_scan+0x6e4>
9d0024c4:	8fa200b4 	lw	v0,180(sp)
9d0024c8:	8c430010 	lw	v1,16(v0)
9d0024cc:	8fa400b8 	lw	a0,184(sp)
9d0024d0:	24840001 	addiu	a0,a0,1
9d0024d4:	afa400b8 	sw	a0,184(sp)
9d0024d8:	2463ffff 	addiu	v1,v1,-1
9d0024dc:	ac560004 	sw	s6,4(v0)
9d0024e0:	ac430010 	sw	v1,16(v0)
9d0024e4:	8fa200c8 	lw	v0,200(sp)
9d0024e8:	0054a023 	subu	s4,v0,s4
9d0024ec:	1a8000f7 	blez	s4,9d0028cc <do_scan+0xacc>
9d0024f0:	8fa200b4 	lw	v0,180(sp)
9d0024f4:	32230001 	andi	v1,s1,0x1
9d0024f8:	8c440014 	lw	a0,20(v0)
9d0024fc:	24840001 	addiu	a0,a0,1
9d002500:	14600011 	bnez	v1,9d002548 <do_scan+0x748>
9d002504:	ac440014 	sw	a0,20(v0)
9d002508:	32230400 	andi	v1,s1,0x400
9d00250c:	14600129 	bnez	v1,9d0029b4 <do_scan+0xbb4>
9d002510:	00002821 	move	a1,zero
9d002514:	32310200 	andi	s1,s1,0x200
9d002518:	8c43000c 	lw	v1,12(v0)
9d00251c:	8fa400bc 	lw	a0,188(sp)
9d002520:	24660004 	addiu	a2,v1,4
9d002524:	1220011c 	beqz	s1,9d002998 <do_scan+0xb98>
9d002528:	ac46000c 	sw	a2,12(v0)
9d00252c:	0f4028dd 	jal	9d00a374 <strtod>
9d002530:	8c710000 	lw	s1,0(v1)
9d002534:	ae220000 	sw	v0,0(s1)
9d002538:	8fa200b4 	lw	v0,180(sp)
9d00253c:	8c430018 	lw	v1,24(v0)
9d002540:	24630001 	addiu	v1,v1,1
9d002544:	ac430018 	sw	v1,24(v0)
9d002548:	8fa400c0 	lw	a0,192(sp)
9d00254c:	5080fe5c 	beqzl	a0,9d001ec0 <do_scan+0xc0>
9d002550:	8fa500a0 	lw	a1,160(sp)
9d002554:	0f401d62 	jal	9d007588 <free>
9d002558:	00000000 	nop
9d00255c:	0b4007b0 	j	9d001ec0 <do_scan+0xc0>
9d002560:	8fa500a0 	lw	a1,160(sp)
9d002564:	2417ffff 	li	s7,-1
9d002568:	2403000a 	li	v1,10
9d00256c:	afa300d4 	sw	v1,212(sp)
9d002570:	3c029d01 	lui	v0,0x9d01
9d002574:	0b40086d 	j	9d0021b4 <do_scan+0x3b4>
9d002578:	2454a1f4 	addiu	s4,v0,-24076
9d00257c:	afa200a0 	sw	v0,160(sp)
9d002580:	80720001 	lb	s2,1(v1)
9d002584:	0b4007f6 	j	9d001fd8 <do_scan+0x1d8>
9d002588:	36310800 	ori	s1,s1,0x800
9d00258c:	afa200a0 	sw	v0,160(sp)
9d002590:	80720001 	lb	s2,1(v1)
9d002594:	0b4007f6 	j	9d001fd8 <do_scan+0x1d8>
9d002598:	36310080 	ori	s1,s1,0x80
9d00259c:	0f40273e 	jal	9d009cf8 <gsgetc>
9d0025a0:	27a40098 	addiu	a0,sp,152
9d0025a4:	0040b821 	move	s7,v0
9d0025a8:	2402ffff 	li	v0,-1
9d0025ac:	12e2004f 	beq	s7,v0,9d0026ec <do_scan+0x8ec>
9d0025b0:	8fa300d0 	lw	v1,208(sp)
9d0025b4:	2402002b 	li	v0,43
9d0025b8:	16e2010c 	bne	s7,v0,9d0029ec <do_scan+0xbec>
9d0025bc:	2472ffff 	addiu	s2,v1,-1
9d0025c0:	8fa200cc 	lw	v0,204(sp)
9d0025c4:	24430001 	addiu	v1,v0,1
9d0025c8:	afa300cc 	sw	v1,204(sp)
9d0025cc:	16400063 	bnez	s2,9d00275c <do_scan+0x95c>
9d0025d0:	a0570000 	sb	s7,0(v0)
9d0025d4:	8fa300d4 	lw	v1,212(sp)
9d0025d8:	1060ffe2 	beqz	v1,9d002564 <do_scan+0x764>
9d0025dc:	8fb600cc 	lw	s6,204(sp)
9d0025e0:	24020010 	li	v0,16
9d0025e4:	1462feeb 	bne	v1,v0,9d002194 <do_scan+0x394>
9d0025e8:	2417ffff 	li	s7,-1
9d0025ec:	24030010 	li	v1,16
9d0025f0:	afa300d4 	sw	v1,212(sp)
9d0025f4:	3c049d01 	lui	a0,0x9d01
9d0025f8:	0b40086d 	j	9d0021b4 <do_scan+0x3b4>
9d0025fc:	2494a1dc 	addiu	s4,a0,-24100
9d002600:	0f40273e 	jal	9d009cf8 <gsgetc>
9d002604:	27a40098 	addiu	a0,sp,152
9d002608:	2403ffff 	li	v1,-1
9d00260c:	5043001b 	beql	v0,v1,9d00267c <do_scan+0x87c>
9d002610:	241effff 	li	s8,-1
9d002614:	5452fe4e 	bnel	v0,s2,9d001f50 <do_scan+0x150>
9d002618:	afa2009c 	sw	v0,156(sp)
9d00261c:	0b4007b0 	j	9d001ec0 <do_scan+0xc0>
9d002620:	8fa500a0 	lw	a1,160(sp)
9d002624:	12c00023 	beqz	s6,9d0026b4 <do_scan+0x8b4>
9d002628:	00000000 	nop
9d00262c:	0f401ea3 	jal	9d007a8c <strtol>
9d002630:	00000000 	nop
9d002634:	00002021 	move	a0,zero
9d002638:	0b400887 	j	9d00221c <do_scan+0x41c>
9d00263c:	00002821 	move	a1,zero
9d002640:	a2c00000 	sb	zero,0(s6)
9d002644:	26520001 	addiu	s2,s2,1
9d002648:	afb7009c 	sw	s7,156(sp)
9d00264c:	8fa200a8 	lw	v0,168(sp)
9d002650:	2442ffff 	addiu	v0,v0,-1
9d002654:	0b40087a 	j	9d0021e8 <do_scan+0x3e8>
9d002658:	afa200a8 	sw	v0,168(sp)
9d00265c:	0f40273e 	jal	9d009cf8 <gsgetc>
9d002660:	27a40098 	addiu	a0,sp,152
9d002664:	0040b821 	move	s7,v0
9d002668:	00021027 	nor	v0,zero,v0
9d00266c:	8fb600cc 	lw	s6,204(sp)
9d002670:	0002102b 	sltu	v0,zero,v0
9d002674:	0b40086d 	j	9d0021b4 <do_scan+0x3b4>
9d002678:	02429023 	subu	s2,s2,v0
9d00267c:	0b4007b0 	j	9d001ec0 <do_scan+0xc0>
9d002680:	8fa500a0 	lw	a1,160(sp)
9d002684:	241effff 	li	s8,-1
9d002688:	00174027 	nor	t0,zero,s7
9d00268c:	24020001 	li	v0,1
9d002690:	0048f00b 	movn	s8,v0,t0
9d002694:	0b4007b0 	j	9d001ec0 <do_scan+0xc0>
9d002698:	8fa500a0 	lw	a1,160(sp)
9d00269c:	0f401bfe 	jal	9d006ff8 <strtoull>
9d0026a0:	00000000 	nop
9d0026a4:	00402021 	move	a0,v0
9d0026a8:	00602821 	move	a1,v1
9d0026ac:	0b400887 	j	9d00221c <do_scan+0x41c>
9d0026b0:	00001021 	move	v0,zero
9d0026b4:	0f401e03 	jal	9d00780c <strtoul>
9d0026b8:	00000000 	nop
9d0026bc:	00002021 	move	a0,zero
9d0026c0:	0b400887 	j	9d00221c <do_scan+0x41c>
9d0026c4:	00002821 	move	a1,zero
9d0026c8:	24430004 	addiu	v1,v0,4
9d0026cc:	afa300a4 	sw	v1,164(sp)
9d0026d0:	8c420000 	lw	v0,0(v0)
9d0026d4:	ac440000 	sw	a0,0(v0)
9d0026d8:	0b400899 	j	9d002264 <do_scan+0x464>
9d0026dc:	ac450004 	sw	a1,4(v0)
9d0026e0:	241e0001 	li	s8,1
9d0026e4:	0b4007b0 	j	9d001ec0 <do_scan+0xc0>
9d0026e8:	8fa500a0 	lw	a1,160(sp)
9d0026ec:	8fb600cc 	lw	s6,204(sp)
9d0026f0:	0b40085e 	j	9d002178 <do_scan+0x378>
9d0026f4:	8fb200d0 	lw	s2,208(sp)
9d0026f8:	16e2ffbd 	bne	s7,v0,9d0025f0 <do_scan+0x7f0>
9d0026fc:	24030010 	li	v1,16
9d002700:	26c20001 	addiu	v0,s6,1
9d002704:	afa200cc 	sw	v0,204(sp)
9d002708:	16400004 	bnez	s2,9d00271c <do_scan+0x91c>
9d00270c:	a2d70000 	sb	s7,0(s6)
9d002710:	8fb600cc 	lw	s6,204(sp)
9d002714:	0b40097b 	j	9d0025ec <do_scan+0x7ec>
9d002718:	2417ffff 	li	s7,-1
9d00271c:	0f40273e 	jal	9d009cf8 <gsgetc>
9d002720:	27a40098 	addiu	a0,sp,152
9d002724:	2416ffff 	li	s6,-1
9d002728:	1056fff9 	beq	v0,s6,9d002710 <do_scan+0x910>
9d00272c:	0040b821 	move	s7,v0
9d002730:	2403ffdf 	li	v1,-33
9d002734:	00431824 	and	v1,v0,v1
9d002738:	24020058 	li	v0,88
9d00273c:	146200a8 	bne	v1,v0,9d0029e0 <do_scan+0xbe0>
9d002740:	2654ffff 	addiu	s4,s2,-1
9d002744:	16800080 	bnez	s4,9d002948 <do_scan+0xb48>
9d002748:	00000000 	nop
9d00274c:	8fb600cc 	lw	s6,204(sp)
9d002750:	00009021 	move	s2,zero
9d002754:	0b40097b 	j	9d0025ec <do_scan+0x7ec>
9d002758:	2417ffff 	li	s7,-1
9d00275c:	0f40273e 	jal	9d009cf8 <gsgetc>
9d002760:	27a40098 	addiu	a0,sp,152
9d002764:	0040b821 	move	s7,v0
9d002768:	2402ffff 	li	v0,-1
9d00276c:	12e2ff9a 	beq	s7,v0,9d0025d8 <do_scan+0x7d8>
9d002770:	8fa300d4 	lw	v1,212(sp)
9d002774:	8fb600cc 	lw	s6,204(sp)
9d002778:	8fa400d0 	lw	a0,208(sp)
9d00277c:	2492fffe 	addiu	s2,a0,-2
9d002780:	8fa300d4 	lw	v1,212(sp)
9d002784:	1460fe81 	bnez	v1,9d00218c <do_scan+0x38c>
9d002788:	24020010 	li	v0,16
9d00278c:	24020030 	li	v0,48
9d002790:	16e2ff76 	bne	s7,v0,9d00256c <do_scan+0x76c>
9d002794:	2403000a 	li	v1,10
9d002798:	26c20001 	addiu	v0,s6,1
9d00279c:	afa200cc 	sw	v0,204(sp)
9d0027a0:	16400004 	bnez	s2,9d0027b4 <do_scan+0x9b4>
9d0027a4:	a2d70000 	sb	s7,0(s6)
9d0027a8:	2417ffff 	li	s7,-1
9d0027ac:	0b400869 	j	9d0021a4 <do_scan+0x3a4>
9d0027b0:	8fb600cc 	lw	s6,204(sp)
9d0027b4:	0f40273e 	jal	9d009cf8 <gsgetc>
9d0027b8:	27a40098 	addiu	a0,sp,152
9d0027bc:	2416ffff 	li	s6,-1
9d0027c0:	1056fff9 	beq	v0,s6,9d0027a8 <do_scan+0x9a8>
9d0027c4:	0040b821 	move	s7,v0
9d0027c8:	2403ffdf 	li	v1,-33
9d0027cc:	00431824 	and	v1,v0,v1
9d0027d0:	24020058 	li	v0,88
9d0027d4:	1062ffdb 	beq	v1,v0,9d002744 <do_scan+0x944>
9d0027d8:	2654ffff 	addiu	s4,s2,-1
9d0027dc:	02809021 	move	s2,s4
9d0027e0:	0b400869 	j	9d0021a4 <do_scan+0x3a4>
9d0027e4:	8fb600cc 	lw	s6,204(sp)
9d0027e8:	32230200 	andi	v1,s1,0x200
9d0027ec:	10600010 	beqz	v1,9d002830 <do_scan+0xa30>
9d0027f0:	32230100 	andi	v1,s1,0x100
9d0027f4:	8fa300a4 	lw	v1,164(sp)
9d0027f8:	24640004 	addiu	a0,v1,4
9d0027fc:	afa400a4 	sw	a0,164(sp)
9d002800:	8c630000 	lw	v1,0(v1)
9d002804:	ac620000 	sw	v0,0(v1)
9d002808:	0b4007b0 	j	9d001ec0 <do_scan+0xc0>
9d00280c:	8fa500a0 	lw	a1,160(sp)
9d002810:	10600010 	beqz	v1,9d002854 <do_scan+0xa54>
9d002814:	32310080 	andi	s1,s1,0x80
9d002818:	8fa300a4 	lw	v1,164(sp)
9d00281c:	24640004 	addiu	a0,v1,4
9d002820:	afa400a4 	sw	a0,164(sp)
9d002824:	8c630000 	lw	v1,0(v1)
9d002828:	0b400899 	j	9d002264 <do_scan+0x464>
9d00282c:	a4620000 	sh	v0,0(v1)
9d002830:	1060003d 	beqz	v1,9d002928 <do_scan+0xb28>
9d002834:	32310080 	andi	s1,s1,0x80
9d002838:	8fa300a4 	lw	v1,164(sp)
9d00283c:	24640004 	addiu	a0,v1,4
9d002840:	afa400a4 	sw	a0,164(sp)
9d002844:	8c630000 	lw	v1,0(v1)
9d002848:	a4620000 	sh	v0,0(v1)
9d00284c:	0b4007b0 	j	9d001ec0 <do_scan+0xc0>
9d002850:	8fa500a0 	lw	a1,160(sp)
9d002854:	8fa300a4 	lw	v1,164(sp)
9d002858:	24640004 	addiu	a0,v1,4
9d00285c:	afa400a4 	sw	a0,164(sp)
9d002860:	1220002f 	beqz	s1,9d002920 <do_scan+0xb20>
9d002864:	8c630000 	lw	v1,0(v1)
9d002868:	0b400899 	j	9d002264 <do_scan+0x464>
9d00286c:	a0620000 	sb	v0,0(v1)
9d002870:	0f40273e 	jal	9d009cf8 <gsgetc>
9d002874:	27a40098 	addiu	a0,sp,152
9d002878:	0040b021 	move	s6,v0
9d00287c:	2402ffff 	li	v0,-1
9d002880:	52c2fef4 	beql	s6,v0,9d002454 <do_scan+0x654>
9d002884:	3c049d01 	lui	a0,0x9d01
9d002888:	8fa200b8 	lw	v0,184(sp)
9d00288c:	2442ffff 	addiu	v0,v0,-1
9d002890:	afa200b8 	sw	v0,184(sp)
9d002894:	2402002b 	li	v0,43
9d002898:	56c20059 	bnel	s6,v0,9d002a00 <do_scan+0xc00>
9d00289c:	2402002d 	li	v0,45
9d0028a0:	27b200b4 	addiu	s2,sp,180
9d0028a4:	02407821 	move	t7,s2
9d0028a8:	0f4022b7 	jal	9d008adc <putget.2773>
9d0028ac:	02c02021 	move	a0,s6
9d0028b0:	0040b021 	move	s6,v0
9d0028b4:	24420001 	addiu	v0,v0,1
9d0028b8:	3c049d01 	lui	a0,0x9d01
9d0028bc:	24838cf0 	addiu	v1,a0,-29456
9d0028c0:	00621021 	addu	v0,v1,v0
9d0028c4:	0b40091e 	j	9d002478 <do_scan+0x678>
9d0028c8:	24140001 	li	s4,1
9d0028cc:	0b400952 	j	9d002548 <do_scan+0x748>
9d0028d0:	241e0001 	li	s8,1
9d0028d4:	0f4022b7 	jal	9d008adc <putget.2773>
9d0028d8:	02c02021 	move	a0,s6
9d0028dc:	0040b021 	move	s6,v0
9d0028e0:	2402002d 	li	v0,45
9d0028e4:	12c20003 	beq	s6,v0,9d0028f4 <do_scan+0xaf4>
9d0028e8:	2402002b 	li	v0,43
9d0028ec:	16c20006 	bne	s6,v0,9d002908 <do_scan+0xb08>
9d0028f0:	02161021 	addu	v0,s0,s6
9d0028f4:	02407821 	move	t7,s2
9d0028f8:	0f4022b7 	jal	9d008adc <putget.2773>
9d0028fc:	02c02021 	move	a0,s6
9d002900:	0040b021 	move	s6,v0
9d002904:	02161021 	addu	v0,s0,s6
9d002908:	90420000 	lbu	v0,0(v0)
9d00290c:	30420004 	andi	v0,v0,0x4
9d002910:	1440fff9 	bnez	v0,9d0028f8 <do_scan+0xaf8>
9d002914:	02407821 	move	t7,s2
9d002918:	0b40092d 	j	9d0024b4 <do_scan+0x6b4>
9d00291c:	00000000 	nop
9d002920:	0b400899 	j	9d002264 <do_scan+0x464>
9d002924:	ac620000 	sw	v0,0(v1)
9d002928:	8fa300a4 	lw	v1,164(sp)
9d00292c:	24640004 	addiu	a0,v1,4
9d002930:	afa400a4 	sw	a0,164(sp)
9d002934:	1220001c 	beqz	s1,9d0029a8 <do_scan+0xba8>
9d002938:	8c630000 	lw	v1,0(v1)
9d00293c:	a0620000 	sb	v0,0(v1)
9d002940:	0b4007b0 	j	9d001ec0 <do_scan+0xc0>
9d002944:	8fa500a0 	lw	a1,160(sp)
9d002948:	0f40273e 	jal	9d009cf8 <gsgetc>
9d00294c:	27a40098 	addiu	a0,sp,152
9d002950:	10560023 	beq	v0,s6,9d0029e0 <do_scan+0xbe0>
9d002954:	0040b821 	move	s7,v0
9d002958:	2652fffe 	addiu	s2,s2,-2
9d00295c:	0b40097b 	j	9d0025ec <do_scan+0x7ec>
9d002960:	8fb600cc 	lw	s6,204(sp)
9d002964:	0b400a5c 	j	9d002970 <do_scan+0xb70>
9d002968:	2404002e 	li	a0,46
9d00296c:	02c02021 	move	a0,s6
9d002970:	0f4022b7 	jal	9d008adc <putget.2773>
9d002974:	00000000 	nop
9d002978:	0040b021 	move	s6,v0
9d00297c:	02021021 	addu	v0,s0,v0
9d002980:	90420000 	lbu	v0,0(v0)
9d002984:	30420004 	andi	v0,v0,0x4
9d002988:	1440fff8 	bnez	v0,9d00296c <do_scan+0xb6c>
9d00298c:	02407821 	move	t7,s2
9d002990:	0b400925 	j	9d002494 <do_scan+0x694>
9d002994:	8fa200c8 	lw	v0,200(sp)
9d002998:	0f4028e4 	jal	9d00a390 <strtof>
9d00299c:	8c710000 	lw	s1,0(v1)
9d0029a0:	0b40094e 	j	9d002538 <do_scan+0x738>
9d0029a4:	ae220000 	sw	v0,0(s1)
9d0029a8:	ac620000 	sw	v0,0(v1)
9d0029ac:	0b4007b0 	j	9d001ec0 <do_scan+0xc0>
9d0029b0:	8fa500a0 	lw	a1,160(sp)
9d0029b4:	8c43000c 	lw	v1,12(v0)
9d0029b8:	8fa400bc 	lw	a0,188(sp)
9d0029bc:	24660004 	addiu	a2,v1,4
9d0029c0:	ac46000c 	sw	a2,12(v0)
9d0029c4:	0f4028dd 	jal	9d00a374 <strtod>
9d0029c8:	8c710000 	lw	s1,0(v1)
9d0029cc:	0f402567 	jal	9d00959c <__extendsfdf2>
9d0029d0:	00402021 	move	a0,v0
9d0029d4:	ae220000 	sw	v0,0(s1)
9d0029d8:	0b40094e 	j	9d002538 <do_scan+0x738>
9d0029dc:	ae230004 	sw	v1,4(s1)
9d0029e0:	8fb600cc 	lw	s6,204(sp)
9d0029e4:	0b40097b 	j	9d0025ec <do_scan+0x7ec>
9d0029e8:	02809021 	move	s2,s4
9d0029ec:	2402002d 	li	v0,45
9d0029f0:	12e2fef4 	beq	s7,v0,9d0025c4 <do_scan+0x7c4>
9d0029f4:	8fa200cc 	lw	v0,204(sp)
9d0029f8:	0b4009e0 	j	9d002780 <do_scan+0x980>
9d0029fc:	8fb600cc 	lw	s6,204(sp)
9d002a00:	52c2ffa8 	beql	s6,v0,9d0028a4 <do_scan+0xaa4>
9d002a04:	27b200b4 	addiu	s2,sp,180
9d002a08:	26c20001 	addiu	v0,s6,1
9d002a0c:	3c049d01 	lui	a0,0x9d01
9d002a10:	24838cf0 	addiu	v1,a0,-29456
9d002a14:	0b400917 	j	9d00245c <do_scan+0x65c>
9d002a18:	00621021 	addu	v0,v1,v0

Disassembly of section .text._do_print_cdnopuxX:

9d002a1c <_do_print_cdnopuxX>:
9d002a1c:	27bdff68 	addiu	sp,sp,-152
9d002a20:	afbf0094 	sw	ra,148(sp)
9d002a24:	afbe0090 	sw	s8,144(sp)
9d002a28:	afb7008c 	sw	s7,140(sp)
9d002a2c:	afb60088 	sw	s6,136(sp)
9d002a30:	afb50084 	sw	s5,132(sp)
9d002a34:	afb40080 	sw	s4,128(sp)
9d002a38:	afb3007c 	sw	s3,124(sp)
9d002a3c:	afb20078 	sw	s2,120(sp)
9d002a40:	afb10074 	sw	s1,116(sp)
9d002a44:	afb00070 	sw	s0,112(sp)
9d002a48:	afa40098 	sw	a0,152(sp)
9d002a4c:	8c820018 	lw	v0,24(a0)
9d002a50:	00a09021 	move	s2,a1
9d002a54:	24050001 	li	a1,1
9d002a58:	8c420010 	lw	v0,16(v0)
9d002a5c:	0040f809 	jalr	v0
9d002a60:	afa600a0 	sw	a2,160(sp)
9d002a64:	104001c0 	beqz	v0,9d003168 <_do_print_cdnopuxX+0x74c>
9d002a68:	27a20058 	addiu	v0,sp,88
9d002a6c:	afa00060 	sw	zero,96(sp)
9d002a70:	afa20058 	sw	v0,88(sp)
9d002a74:	82440000 	lb	a0,0(s2)
9d002a78:	1080000d 	beqz	a0,9d002ab0 <_do_print_cdnopuxX+0x94>
9d002a7c:	26500001 	addiu	s0,s2,1
9d002a80:	24020025 	li	v0,37
9d002a84:	5082001c 	beql	a0,v0,9d002af8 <_do_print_cdnopuxX+0xdc>
9d002a88:	82420001 	lb	v0,1(s2)
9d002a8c:	0f40253c 	jal	9d0094f0 <fputc>
9d002a90:	8fa50098 	lw	a1,152(sp)
9d002a94:	8fa30060 	lw	v1,96(sp)
9d002a98:	24630001 	addiu	v1,v1,1
9d002a9c:	afa30060 	sw	v1,96(sp)
9d002aa0:	02009021 	move	s2,s0
9d002aa4:	82440000 	lb	a0,0(s2)
9d002aa8:	1480fff5 	bnez	a0,9d002a80 <_do_print_cdnopuxX+0x64>
9d002aac:	26500001 	addiu	s0,s2,1
9d002ab0:	8fa40098 	lw	a0,152(sp)
9d002ab4:	94820010 	lhu	v0,16(a0)
9d002ab8:	30420040 	andi	v0,v0,0x40
9d002abc:	144001ab 	bnez	v0,9d00316c <_do_print_cdnopuxX+0x750>
9d002ac0:	2402ffff 	li	v0,-1
9d002ac4:	8fa20060 	lw	v0,96(sp)
9d002ac8:	8fbf0094 	lw	ra,148(sp)
9d002acc:	8fbe0090 	lw	s8,144(sp)
9d002ad0:	8fb7008c 	lw	s7,140(sp)
9d002ad4:	8fb60088 	lw	s6,136(sp)
9d002ad8:	8fb50084 	lw	s5,132(sp)
9d002adc:	8fb40080 	lw	s4,128(sp)
9d002ae0:	8fb3007c 	lw	s3,124(sp)
9d002ae4:	8fb20078 	lw	s2,120(sp)
9d002ae8:	8fb10074 	lw	s1,116(sp)
9d002aec:	8fb00070 	lw	s0,112(sp)
9d002af0:	03e00008 	jr	ra
9d002af4:	27bd0098 	addiu	sp,sp,152
9d002af8:	1044017a 	beq	v0,a0,9d0030e4 <_do_print_cdnopuxX+0x6c8>
9d002afc:	0000b821 	move	s7,zero
9d002b00:	2403002d 	li	v1,45
9d002b04:	2404002b 	li	a0,43
9d002b08:	24050020 	li	a1,32
9d002b0c:	24060023 	li	a2,35
9d002b10:	1043000e 	beq	v0,v1,9d002b4c <_do_print_cdnopuxX+0x130>
9d002b14:	24070030 	li	a3,48
9d002b18:	50440010 	beql	v0,a0,9d002b5c <_do_print_cdnopuxX+0x140>
9d002b1c:	36f70002 	ori	s7,s7,0x2
9d002b20:	50450011 	beql	v0,a1,9d002b68 <_do_print_cdnopuxX+0x14c>
9d002b24:	36f70001 	ori	s7,s7,0x1
9d002b28:	50460012 	beql	v0,a2,9d002b74 <_do_print_cdnopuxX+0x158>
9d002b2c:	36f70800 	ori	s7,s7,0x800
9d002b30:	54470013 	bnel	v0,a3,9d002b80 <_do_print_cdnopuxX+0x164>
9d002b34:	2403002a 	li	v1,42
9d002b38:	36f70004 	ori	s7,s7,0x4
9d002b3c:	26100001 	addiu	s0,s0,1
9d002b40:	82020000 	lb	v0,0(s0)
9d002b44:	1443fff4 	bne	v0,v1,9d002b18 <_do_print_cdnopuxX+0xfc>
9d002b48:	00000000 	nop
9d002b4c:	36f70008 	ori	s7,s7,0x8
9d002b50:	26100001 	addiu	s0,s0,1
9d002b54:	0b400ad1 	j	9d002b44 <_do_print_cdnopuxX+0x128>
9d002b58:	82020000 	lb	v0,0(s0)
9d002b5c:	26100001 	addiu	s0,s0,1
9d002b60:	0b400ad1 	j	9d002b44 <_do_print_cdnopuxX+0x128>
9d002b64:	82020000 	lb	v0,0(s0)
9d002b68:	26100001 	addiu	s0,s0,1
9d002b6c:	0b400ad1 	j	9d002b44 <_do_print_cdnopuxX+0x128>
9d002b70:	82020000 	lb	v0,0(s0)
9d002b74:	26100001 	addiu	s0,s0,1
9d002b78:	0b400ad1 	j	9d002b44 <_do_print_cdnopuxX+0x128>
9d002b7c:	82020000 	lb	v0,0(s0)
9d002b80:	10430101 	beq	v0,v1,9d002f88 <_do_print_cdnopuxX+0x56c>
9d002b84:	02002021 	move	a0,s0
9d002b88:	2443ffd0 	addiu	v1,v0,-48
9d002b8c:	2c63000a 	sltiu	v1,v1,10
9d002b90:	1060000b 	beqz	v1,9d002bc0 <_do_print_cdnopuxX+0x1a4>
9d002b94:	0000b021 	move	s6,zero
9d002b98:	00161840 	sll	v1,s6,0x1
9d002b9c:	001650c0 	sll	t2,s6,0x3
9d002ba0:	006a5021 	addu	t2,v1,t2
9d002ba4:	26100001 	addiu	s0,s0,1
9d002ba8:	01425021 	addu	t2,t2,v0
9d002bac:	82020000 	lb	v0,0(s0)
9d002bb0:	2443ffd0 	addiu	v1,v0,-48
9d002bb4:	2c63000a 	sltiu	v1,v1,10
9d002bb8:	1460fff7 	bnez	v1,9d002b98 <_do_print_cdnopuxX+0x17c>
9d002bbc:	2556ffd0 	addiu	s6,t2,-48
9d002bc0:	2403002e 	li	v1,46
9d002bc4:	104300fc 	beq	v0,v1,9d002fb8 <_do_print_cdnopuxX+0x59c>
9d002bc8:	241effff 	li	s8,-1
9d002bcc:	24030068 	li	v1,104
9d002bd0:	5043010f 	beql	v0,v1,9d003010 <_do_print_cdnopuxX+0x5f4>
9d002bd4:	82030001 	lb	v1,1(s0)
9d002bd8:	2403006c 	li	v1,108
9d002bdc:	1043011d 	beq	v0,v1,9d003054 <_do_print_cdnopuxX+0x638>
9d002be0:	24030071 	li	v1,113
9d002be4:	10430147 	beq	v0,v1,9d003104 <_do_print_cdnopuxX+0x6e8>
9d002be8:	2403004c 	li	v1,76
9d002bec:	504301c7 	beql	v0,v1,9d00330c <_do_print_cdnopuxX+0x8f0>
9d002bf0:	82020001 	lb	v0,1(s0)
9d002bf4:	32e40002 	andi	a0,s7,0x2
9d002bf8:	32e3fffe 	andi	v1,s7,0xfffe
9d002bfc:	0064b80b 	movn	s7,v1,a0
9d002c00:	2442ffbc 	addiu	v0,v0,-68
9d002c04:	32e50008 	andi	a1,s7,0x8
9d002c08:	32e4fffb 	andi	a0,s7,0xfffb
9d002c0c:	2c430035 	sltiu	v1,v0,53
9d002c10:	26120001 	addiu	s2,s0,1
9d002c14:	1060010d 	beqz	v1,9d00304c <_do_print_cdnopuxX+0x630>
9d002c18:	0085b80b 	movn	s7,a0,a1
9d002c1c:	00021080 	sll	v0,v0,0x2
9d002c20:	3c049d00 	lui	a0,0x9d00
9d002c24:	24842c38 	addiu	a0,a0,11320
9d002c28:	00821021 	addu	v0,a0,v0
9d002c2c:	8c420000 	lw	v0,0(v0)
9d002c30:	00400008 	jr	v0
9d002c34:	00000000 	nop
9d002c38:	9d002f00 	0x9d002f00
9d002c3c:	9d00304c 	0x9d00304c
9d002c40:	9d00304c 	0x9d00304c
9d002c44:	9d00304c 	0x9d00304c
9d002c48:	9d00304c 	0x9d00304c
9d002c4c:	9d00304c 	0x9d00304c
9d002c50:	9d00304c 	0x9d00304c
9d002c54:	9d00304c 	0x9d00304c
9d002c58:	9d00304c 	0x9d00304c
9d002c5c:	9d00304c 	0x9d00304c
9d002c60:	9d00304c 	0x9d00304c
9d002c64:	9d0032c4 	0x9d0032c4
9d002c68:	9d002ea4 	0x9d002ea4
9d002c6c:	9d00304c 	0x9d00304c
9d002c70:	9d00304c 	0x9d00304c
9d002c74:	9d00304c 	0x9d00304c
9d002c78:	9d00304c 	0x9d00304c
9d002c7c:	9d002d0c 	0x9d002d0c
9d002c80:	9d00304c 	0x9d00304c
9d002c84:	9d00304c 	0x9d00304c
9d002c88:	9d002f14 	0x9d002f14
9d002c8c:	9d00304c 	0x9d00304c
9d002c90:	9d00304c 	0x9d00304c
9d002c94:	9d00304c 	0x9d00304c
9d002c98:	9d00304c 	0x9d00304c
9d002c9c:	9d00304c 	0x9d00304c
9d002ca0:	9d00304c 	0x9d00304c
9d002ca4:	9d00304c 	0x9d00304c
9d002ca8:	9d00304c 	0x9d00304c
9d002cac:	9d00304c 	0x9d00304c
9d002cb0:	9d00304c 	0x9d00304c
9d002cb4:	9d003290 	0x9d003290
9d002cb8:	9d002f04 	0x9d002f04
9d002cbc:	9d00304c 	0x9d00304c
9d002cc0:	9d00304c 	0x9d00304c
9d002cc4:	9d00304c 	0x9d00304c
9d002cc8:	9d00304c 	0x9d00304c
9d002ccc:	9d002f04 	0x9d002f04
9d002cd0:	9d00304c 	0x9d00304c
9d002cd4:	9d00304c 	0x9d00304c
9d002cd8:	9d00304c 	0x9d00304c
9d002cdc:	9d00304c 	0x9d00304c
9d002ce0:	9d003248 	0x9d003248
9d002ce4:	9d0031cc 	0x9d0031cc
9d002ce8:	9d002ea8 	0x9d002ea8
9d002cec:	9d00304c 	0x9d00304c
9d002cf0:	9d00304c 	0x9d00304c
9d002cf4:	9d0031d4 	0x9d0031d4
9d002cf8:	9d00304c 	0x9d00304c
9d002cfc:	9d002d10 	0x9d002d10
9d002d00:	9d00304c 	0x9d00304c
9d002d04:	9d00304c 	0x9d00304c
9d002d08:	9d002f18 	0x9d002f18
9d002d0c:	36f70010 	ori	s7,s7,0x10
9d002d10:	32f7f7ff 	andi	s7,s7,0xf7ff
9d002d14:	2410000a 	li	s0,10
9d002d18:	2402ffff 	li	v0,-1
9d002d1c:	13c20067 	beq	s8,v0,9d002ebc <_do_print_cdnopuxX+0x4a0>
9d002d20:	00002821 	move	a1,zero
9d002d24:	32f7fffb 	andi	s7,s7,0xfffb
9d002d28:	27c5ffff 	addiu	a1,s8,-1
9d002d2c:	32e200c0 	andi	v0,s7,0xc0
9d002d30:	10400066 	beqz	v0,9d002ecc <_do_print_cdnopuxX+0x4b0>
9d002d34:	afa20064 	sw	v0,100(sp)
9d002d38:	7c171620 	seh	v0,s7
9d002d3c:	0440017c 	bltz	v0,9d003330 <_do_print_cdnopuxX+0x914>
9d002d40:	32e20010 	andi	v0,s7,0x10
9d002d44:	104000f3 	beqz	v0,9d003114 <_do_print_cdnopuxX+0x6f8>
9d002d48:	32e20041 	andi	v0,s7,0x41
9d002d4c:	8fa400a0 	lw	a0,160(sp)
9d002d50:	8c950000 	lw	s5,0(a0)
9d002d54:	24840004 	addiu	a0,a0,4
9d002d58:	afa400a0 	sw	a0,160(sp)
9d002d5c:	0015a7c3 	sra	s4,s5,0x1f
9d002d60:	02801021 	move	v0,s4
9d002d64:	0440010d 	bltz	v0,9d00319c <_do_print_cdnopuxX+0x780>
9d002d68:	02a01821 	move	v1,s5
9d002d6c:	afa0006c 	sw	zero,108(sp)
9d002d70:	128000bf 	beqz	s4,9d003070 <_do_print_cdnopuxX+0x654>
9d002d74:	02b41025 	or	v0,s5,s4
9d002d78:	10400199 	beqz	v0,9d0033e0 <_do_print_cdnopuxX+0x9c4>
9d002d7c:	27a20057 	addiu	v0,sp,87
9d002d80:	afa20068 	sw	v0,104(sp)
9d002d84:	32e30020 	andi	v1,s7,0x20
9d002d88:	24040037 	li	a0,55
9d002d8c:	00108fc3 	sra	s1,s0,0x1f
9d002d90:	00409821 	move	s3,v0
9d002d94:	24020057 	li	v0,87
9d002d98:	0043200a 	movz	a0,v0,v1
9d002d9c:	afa4005c 	sw	a0,92(sp)
9d002da0:	02a02021 	move	a0,s5
9d002da4:	02802821 	move	a1,s4
9d002da8:	02003021 	move	a2,s0
9d002dac:	0f401467 	jal	9d00519c <__umoddi3>
9d002db0:	02203821 	move	a3,s1
9d002db4:	2843000a 	slti	v1,v0,10
9d002db8:	24460030 	addiu	a2,v0,48
9d002dbc:	8fa4005c 	lw	a0,92(sp)
9d002dc0:	00441021 	addu	v0,v0,a0
9d002dc4:	0043300a 	movz	a2,v0,v1
9d002dc8:	2673ffff 	addiu	s3,s3,-1
9d002dcc:	02a02021 	move	a0,s5
9d002dd0:	02802821 	move	a1,s4
9d002dd4:	a2660001 	sb	a2,1(s3)
9d002dd8:	02003021 	move	a2,s0
9d002ddc:	0f401580 	jal	9d005600 <__udivdi3>
9d002de0:	02203821 	move	a3,s1
9d002de4:	00622025 	or	a0,v1,v0
9d002de8:	0040a821 	move	s5,v0
9d002dec:	0060a021 	move	s4,v1
9d002df0:	1480ffeb 	bnez	a0,9d002da0 <_do_print_cdnopuxX+0x384>
9d002df4:	27deffff 	addiu	s8,s8,-1
9d002df8:	27c5ffff 	addiu	a1,s8,-1
9d002dfc:	04a0000a 	bltz	a1,9d002e28 <_do_print_cdnopuxX+0x40c>
9d002e00:	02601021 	move	v0,s3
9d002e04:	2664ffff 	addiu	a0,s3,-1
9d002e08:	00852023 	subu	a0,a0,a1
9d002e0c:	24030030 	li	v1,48
9d002e10:	a0430000 	sb	v1,0(v0)
9d002e14:	2442ffff 	addiu	v0,v0,-1
9d002e18:	5444fffe 	bnel	v0,a0,9d002e14 <_do_print_cdnopuxX+0x3f8>
9d002e1c:	a0430000 	sb	v1,0(v0)
9d002e20:	00052827 	nor	a1,zero,a1
9d002e24:	02659821 	addu	s3,s3,a1
9d002e28:	32e20004 	andi	v0,s7,0x4
9d002e2c:	1440003c 	bnez	v0,9d002f20 <_do_print_cdnopuxX+0x504>
9d002e30:	32e40800 	andi	a0,s7,0x800
9d002e34:	3084ffff 	andi	a0,a0,0xffff
9d002e38:	50800007 	beqzl	a0,9d002e58 <_do_print_cdnopuxX+0x43c>
9d002e3c:	8fa30064 	lw	v1,100(sp)
9d002e40:	24020008 	li	v0,8
9d002e44:	12020133 	beq	s0,v0,9d003314 <_do_print_cdnopuxX+0x8f8>
9d002e48:	24020010 	li	v0,16
9d002e4c:	1202015c 	beq	s0,v0,9d0033c0 <_do_print_cdnopuxX+0x9a4>
9d002e50:	32e40020 	andi	a0,s7,0x20
9d002e54:	8fa30064 	lw	v1,100(sp)
9d002e58:	10600007 	beqz	v1,9d002e78 <_do_print_cdnopuxX+0x45c>
9d002e5c:	8fa4006c 	lw	a0,108(sp)
9d002e60:	1480009c 	bnez	a0,9d0030d4 <_do_print_cdnopuxX+0x6b8>
9d002e64:	32e20002 	andi	v0,s7,0x2
9d002e68:	10400003 	beqz	v0,9d002e78 <_do_print_cdnopuxX+0x45c>
9d002e6c:	2402002b 	li	v0,43
9d002e70:	a2620000 	sb	v0,0(s3)
9d002e74:	2673ffff 	addiu	s3,s3,-1
9d002e78:	26650001 	addiu	a1,s3,1
9d002e7c:	afb70010 	sw	s7,16(sp)
9d002e80:	8fa40098 	lw	a0,152(sp)
9d002e84:	8fa20058 	lw	v0,88(sp)
9d002e88:	00453023 	subu	a2,v0,a1
9d002e8c:	0f40221b 	jal	9d00886c <.LFE2>
9d002e90:	02c03821 	move	a3,s6
9d002e94:	8fa30060 	lw	v1,96(sp)
9d002e98:	00621821 	addu	v1,v1,v0
9d002e9c:	0b400a9d 	j	9d002a74 <_do_print_cdnopuxX+0x58>
9d002ea0:	afa30060 	sw	v1,96(sp)
9d002ea4:	36f70020 	ori	s7,s7,0x20
9d002ea8:	36f70810 	ori	s7,s7,0x810
9d002eac:	2402ffff 	li	v0,-1
9d002eb0:	17c2ff9c 	bne	s8,v0,9d002d24 <_do_print_cdnopuxX+0x308>
9d002eb4:	24100010 	li	s0,16
9d002eb8:	00002821 	move	a1,zero
9d002ebc:	241e0001 	li	s8,1
9d002ec0:	32e200c0 	andi	v0,s7,0xc0
9d002ec4:	1440ff9c 	bnez	v0,9d002d38 <_do_print_cdnopuxX+0x31c>
9d002ec8:	afa20064 	sw	v0,100(sp)
9d002ecc:	7c171620 	seh	v0,s7
9d002ed0:	04400124 	bltz	v0,9d003364 <_do_print_cdnopuxX+0x948>
9d002ed4:	8fa400a0 	lw	a0,160(sp)
9d002ed8:	32e20010 	andi	v0,s7,0x10
9d002edc:	50400099 	beqzl	v0,9d003144 <_do_print_cdnopuxX+0x728>
9d002ee0:	32e20041 	andi	v0,s7,0x41
9d002ee4:	8fa400a0 	lw	a0,160(sp)
9d002ee8:	8c950000 	lw	s5,0(a0)
9d002eec:	0000a021 	move	s4,zero
9d002ef0:	24840004 	addiu	a0,a0,4
9d002ef4:	afa400a0 	sw	a0,160(sp)
9d002ef8:	0b400b5c 	j	9d002d70 <_do_print_cdnopuxX+0x354>
9d002efc:	afa0006c 	sw	zero,108(sp)
9d002f00:	36f70010 	ori	s7,s7,0x10
9d002f04:	32e8f7ff 	andi	t0,s7,0xf7ff
9d002f08:	351700c0 	ori	s7,t0,0xc0
9d002f0c:	0b400b46 	j	9d002d18 <_do_print_cdnopuxX+0x2fc>
9d002f10:	2410000a 	li	s0,10
9d002f14:	36f70020 	ori	s7,s7,0x20
9d002f18:	0b400b46 	j	9d002d18 <_do_print_cdnopuxX+0x2fc>
9d002f1c:	24100010 	li	s0,16
9d002f20:	8fa20068 	lw	v0,104(sp)
9d002f24:	02621823 	subu	v1,s3,v0
9d002f28:	3084ffff 	andi	a0,a0,0xffff
9d002f2c:	10800006 	beqz	a0,9d002f48 <_do_print_cdnopuxX+0x52c>
9d002f30:	02c31821 	addu	v1,s6,v1
9d002f34:	24020008 	li	v0,8
9d002f38:	12020131 	beq	s0,v0,9d003400 <_do_print_cdnopuxX+0x9e4>
9d002f3c:	2462fffe 	addiu	v0,v1,-2
9d002f40:	3a050010 	xori	a1,s0,0x10
9d002f44:	0045180a 	movz	v1,v0,a1
9d002f48:	8fa20064 	lw	v0,100(sp)
9d002f4c:	10400004 	beqz	v0,9d002f60 <_do_print_cdnopuxX+0x544>
9d002f50:	8fa2006c 	lw	v0,108(sp)
9d002f54:	10400099 	beqz	v0,9d0031bc <_do_print_cdnopuxX+0x7a0>
9d002f58:	32e20003 	andi	v0,s7,0x3
9d002f5c:	2463ffff 	addiu	v1,v1,-1
9d002f60:	1860ffb5 	blez	v1,9d002e38 <_do_print_cdnopuxX+0x41c>
9d002f64:	02601021 	move	v0,s3
9d002f68:	02634823 	subu	t1,s3,v1
9d002f6c:	24030030 	li	v1,48
9d002f70:	a0430000 	sb	v1,0(v0)
9d002f74:	2442ffff 	addiu	v0,v0,-1
9d002f78:	5522fffe 	bnel	t1,v0,9d002f74 <_do_print_cdnopuxX+0x558>
9d002f7c:	a0430000 	sb	v1,0(v0)
9d002f80:	0b400b8e 	j	9d002e38 <_do_print_cdnopuxX+0x41c>
9d002f84:	01209821 	move	s3,t1
9d002f88:	8fa200a0 	lw	v0,160(sp)
9d002f8c:	8c560000 	lw	s6,0(v0)
9d002f90:	24550004 	addiu	s5,v0,4
9d002f94:	26100001 	addiu	s0,s0,1
9d002f98:	06c10003 	bgez	s6,9d002fa8 <_do_print_cdnopuxX+0x58c>
9d002f9c:	80820001 	lb	v0,1(a0)
9d002fa0:	36f70008 	ori	s7,s7,0x8
9d002fa4:	0016b023 	negu	s6,s6
9d002fa8:	afb500a0 	sw	s5,160(sp)
9d002fac:	2403002e 	li	v1,46
9d002fb0:	1443ff06 	bne	v0,v1,9d002bcc <_do_print_cdnopuxX+0x1b0>
9d002fb4:	241effff 	li	s8,-1
9d002fb8:	82020001 	lb	v0,1(s0)
9d002fbc:	2403002a 	li	v1,42
9d002fc0:	104300f1 	beq	v0,v1,9d003388 <_do_print_cdnopuxX+0x96c>
9d002fc4:	2443ffd0 	addiu	v1,v0,-48
9d002fc8:	2c63000a 	sltiu	v1,v1,10
9d002fcc:	26100001 	addiu	s0,s0,1
9d002fd0:	1060fefe 	beqz	v1,9d002bcc <_do_print_cdnopuxX+0x1b0>
9d002fd4:	0000f021 	move	s8,zero
9d002fd8:	001e1840 	sll	v1,s8,0x1
9d002fdc:	001e58c0 	sll	t3,s8,0x3
9d002fe0:	006b5821 	addu	t3,v1,t3
9d002fe4:	26100001 	addiu	s0,s0,1
9d002fe8:	01625821 	addu	t3,t3,v0
9d002fec:	82020000 	lb	v0,0(s0)
9d002ff0:	2443ffd0 	addiu	v1,v0,-48
9d002ff4:	2c63000a 	sltiu	v1,v1,10
9d002ff8:	1460fff7 	bnez	v1,9d002fd8 <_do_print_cdnopuxX+0x5bc>
9d002ffc:	257effd0 	addiu	s8,t3,-48
9d003000:	24030068 	li	v1,104
9d003004:	1443fef5 	bne	v0,v1,9d002bdc <_do_print_cdnopuxX+0x1c0>
9d003008:	2403006c 	li	v1,108
9d00300c:	82030001 	lb	v1,1(s0)
9d003010:	506200e7 	beql	v1,v0,9d0033b0 <_do_print_cdnopuxX+0x994>
9d003014:	82020002 	lb	v0,2(s0)
9d003018:	36f70040 	ori	s7,s7,0x40
9d00301c:	00601021 	move	v0,v1
9d003020:	26100001 	addiu	s0,s0,1
9d003024:	32e40002 	andi	a0,s7,0x2
9d003028:	32e3fffe 	andi	v1,s7,0xfffe
9d00302c:	0064b80b 	movn	s7,v1,a0
9d003030:	2442ffbc 	addiu	v0,v0,-68
9d003034:	32e50008 	andi	a1,s7,0x8
9d003038:	32e4fffb 	andi	a0,s7,0xfffb
9d00303c:	2c430035 	sltiu	v1,v0,53
9d003040:	26120001 	addiu	s2,s0,1
9d003044:	1460fef5 	bnez	v1,9d002c1c <_do_print_cdnopuxX+0x200>
9d003048:	0085b80b 	movn	s7,a0,a1
9d00304c:	0b400ba5 	j	9d002e94 <_do_print_cdnopuxX+0x478>
9d003050:	00001021 	move	v0,zero
9d003054:	82030001 	lb	v1,1(s0)
9d003058:	506200e5 	beql	v1,v0,9d0033f0 <_do_print_cdnopuxX+0x9d4>
9d00305c:	82020002 	lb	v0,2(s0)
9d003060:	36f70010 	ori	s7,s7,0x10
9d003064:	00601021 	move	v0,v1
9d003068:	0b400c09 	j	9d003024 <_do_print_cdnopuxX+0x608>
9d00306c:	26100001 	addiu	s0,s0,1
9d003070:	12a000db 	beqz	s5,9d0033e0 <_do_print_cdnopuxX+0x9c4>
9d003074:	02a06821 	move	t5,s5
9d003078:	27a30057 	addiu	v1,sp,87
9d00307c:	afa30068 	sw	v1,104(sp)
9d003080:	32e30020 	andi	v1,s7,0x20
9d003084:	24050037 	li	a1,55
9d003088:	8fb30068 	lw	s3,104(sp)
9d00308c:	24020057 	li	v0,87
9d003090:	0043280a 	movz	a1,v0,v1
9d003094:	01b0001b 	divu	zero,t5,s0
9d003098:	020001f4 	teq	s0,zero,0x7
9d00309c:	00001810 	mfhi	v1
9d0030a0:	2673ffff 	addiu	s3,s3,-1
9d0030a4:	27deffff 	addiu	s8,s8,-1
9d0030a8:	01b0001b 	divu	zero,t5,s0
9d0030ac:	020001f4 	teq	s0,zero,0x7
9d0030b0:	00006812 	mflo	t5
9d0030b4:	2864000a 	slti	a0,v1,10
9d0030b8:	24620030 	addiu	v0,v1,48
9d0030bc:	00651821 	addu	v1,v1,a1
9d0030c0:	0064100a 	movz	v0,v1,a0
9d0030c4:	15a0fff3 	bnez	t5,9d003094 <_do_print_cdnopuxX+0x678>
9d0030c8:	a2620001 	sb	v0,1(s3)
9d0030cc:	0b400b7f 	j	9d002dfc <_do_print_cdnopuxX+0x3e0>
9d0030d0:	27c5ffff 	addiu	a1,s8,-1
9d0030d4:	2402002d 	li	v0,45
9d0030d8:	a2620000 	sb	v0,0(s3)
9d0030dc:	0b400b9e 	j	9d002e78 <_do_print_cdnopuxX+0x45c>
9d0030e0:	2673ffff 	addiu	s3,s3,-1
9d0030e4:	24040025 	li	a0,37
9d0030e8:	0f40253c 	jal	9d0094f0 <fputc>
9d0030ec:	8fa50098 	lw	a1,152(sp)
9d0030f0:	26520002 	addiu	s2,s2,2
9d0030f4:	8fa40060 	lw	a0,96(sp)
9d0030f8:	24840001 	addiu	a0,a0,1
9d0030fc:	0b400a9d 	j	9d002a74 <_do_print_cdnopuxX+0x58>
9d003100:	afa40060 	sw	a0,96(sp)
9d003104:	82020001 	lb	v0,1(s0)
9d003108:	36f78000 	ori	s7,s7,0x8000
9d00310c:	0b400afd 	j	9d002bf4 <_do_print_cdnopuxX+0x1d8>
9d003110:	26100001 	addiu	s0,s0,1
9d003114:	50400074 	beqzl	v0,9d0032e8 <_do_print_cdnopuxX+0x8cc>
9d003118:	8fa300a0 	lw	v1,160(sp)
9d00311c:	8fa200a0 	lw	v0,160(sp)
9d003120:	8c550000 	lw	s5,0(v0)
9d003124:	24420004 	addiu	v0,v0,4
9d003128:	afa200a0 	sw	v0,160(sp)
9d00312c:	0015a7c3 	sra	s4,s5,0x1f
9d003130:	02801021 	move	v0,s4
9d003134:	0441ff0d 	bgez	v0,9d002d6c <_do_print_cdnopuxX+0x350>
9d003138:	02a01821 	move	v1,s5
9d00313c:	0b400c68 	j	9d0031a0 <_do_print_cdnopuxX+0x784>
9d003140:	00036823 	negu	t5,v1
9d003144:	50400062 	beqzl	v0,9d0032d0 <_do_print_cdnopuxX+0x8b4>
9d003148:	8fa300a0 	lw	v1,160(sp)
9d00314c:	8fa200a0 	lw	v0,160(sp)
9d003150:	8c550000 	lw	s5,0(v0)
9d003154:	0000a021 	move	s4,zero
9d003158:	24420004 	addiu	v0,v0,4
9d00315c:	afa200a0 	sw	v0,160(sp)
9d003160:	0b400b5c 	j	9d002d70 <_do_print_cdnopuxX+0x354>
9d003164:	afa0006c 	sw	zero,108(sp)
9d003168:	2402ffff 	li	v0,-1
9d00316c:	8fbf0094 	lw	ra,148(sp)
9d003170:	8fbe0090 	lw	s8,144(sp)
9d003174:	8fb7008c 	lw	s7,140(sp)
9d003178:	8fb60088 	lw	s6,136(sp)
9d00317c:	8fb50084 	lw	s5,132(sp)
9d003180:	8fb40080 	lw	s4,128(sp)
9d003184:	8fb3007c 	lw	s3,124(sp)
9d003188:	8fb20078 	lw	s2,120(sp)
9d00318c:	8fb10074 	lw	s1,116(sp)
9d003190:	8fb00070 	lw	s0,112(sp)
9d003194:	03e00008 	jr	ra
9d003198:	27bd0098 	addiu	sp,sp,152
9d00319c:	00036823 	negu	t5,v1
9d0031a0:	000d182b 	sltu	v1,zero,t5
9d0031a4:	00021023 	negu	v0,v0
9d0031a8:	01a0a821 	move	s5,t5
9d0031ac:	0043a023 	subu	s4,v0,v1
9d0031b0:	24040001 	li	a0,1
9d0031b4:	0b400b5c 	j	9d002d70 <_do_print_cdnopuxX+0x354>
9d0031b8:	afa4006c 	sw	a0,108(sp)
9d0031bc:	5440ff68 	bnezl	v0,9d002f60 <_do_print_cdnopuxX+0x544>
9d0031c0:	2463ffff 	addiu	v1,v1,-1
9d0031c4:	0b400bd8 	j	9d002f60 <_do_print_cdnopuxX+0x544>
9d0031c8:	00000000 	nop
9d0031cc:	0b400b46 	j	9d002d18 <_do_print_cdnopuxX+0x2fc>
9d0031d0:	24100008 	li	s0,8
9d0031d4:	8fa400a0 	lw	a0,160(sp)
9d0031d8:	8c900000 	lw	s0,0(a0)
9d0031dc:	3c039d01 	lui	v1,0x9d01
9d0031e0:	2462a288 	addiu	v0,v1,-23928
9d0031e4:	0050800a 	movz	s0,v0,s0
9d0031e8:	2402ffff 	li	v0,-1
9d0031ec:	13c20091 	beq	s8,v0,9d003434 <_do_print_cdnopuxX+0xa18>
9d0031f0:	24950004 	addiu	s5,a0,4
9d0031f4:	1bc000aa 	blez	s8,9d0034a0 <_do_print_cdnopuxX+0xa84>
9d0031f8:	021e5821 	addu	t3,s0,s8
9d0031fc:	82030000 	lb	v1,0(s0)
9d003200:	14600005 	bnez	v1,9d003218 <_do_print_cdnopuxX+0x7fc>
9d003204:	02001021 	move	v0,s0
9d003208:	0b400c8a 	j	9d003228 <_do_print_cdnopuxX+0x80c>
9d00320c:	00001021 	move	v0,zero
9d003210:	50600005 	beqzl	v1,9d003228 <_do_print_cdnopuxX+0x80c>
9d003214:	00501023 	subu	v0,v0,s0
9d003218:	24420001 	addiu	v0,v0,1
9d00321c:	544bfffc 	bnel	v0,t3,9d003210 <_do_print_cdnopuxX+0x7f4>
9d003220:	80430000 	lb	v1,0(v0)
9d003224:	00501023 	subu	v0,v0,s0
9d003228:	afb70010 	sw	s7,16(sp)
9d00322c:	8fa40098 	lw	a0,152(sp)
9d003230:	02002821 	move	a1,s0
9d003234:	00403021 	move	a2,v0
9d003238:	0f40221b 	jal	9d00886c <.LFE2>
9d00323c:	02c03821 	move	a3,s6
9d003240:	0b400ba5 	j	9d002e94 <_do_print_cdnopuxX+0x478>
9d003244:	afb500a0 	sw	s5,160(sp)
9d003248:	7c171620 	seh	v0,s7
9d00324c:	0440007d 	bltz	v0,9d003444 <_do_print_cdnopuxX+0xa28>
9d003250:	8fa400a0 	lw	a0,160(sp)
9d003254:	32e20010 	andi	v0,s7,0x10
9d003258:	1440006e 	bnez	v0,9d003414 <_do_print_cdnopuxX+0x9f8>
9d00325c:	8fa200a0 	lw	v0,160(sp)
9d003260:	32e20040 	andi	v0,s7,0x40
9d003264:	10400082 	beqz	v0,9d003470 <_do_print_cdnopuxX+0xa54>
9d003268:	32e80001 	andi	t0,s7,0x1
9d00326c:	8fa200a0 	lw	v0,160(sp)
9d003270:	8c430000 	lw	v1,0(v0)
9d003274:	00001021 	move	v0,zero
9d003278:	8fa400a0 	lw	a0,160(sp)
9d00327c:	24840004 	addiu	a0,a0,4
9d003280:	afa400a0 	sw	a0,160(sp)
9d003284:	8fa40060 	lw	a0,96(sp)
9d003288:	0b400ba5 	j	9d002e94 <_do_print_cdnopuxX+0x478>
9d00328c:	a4640000 	sh	a0,0(v1)
9d003290:	8fa300a0 	lw	v1,160(sp)
9d003294:	8c620000 	lw	v0,0(v1)
9d003298:	24750004 	addiu	s5,v1,4
9d00329c:	afb70010 	sw	s7,16(sp)
9d0032a0:	8fa40098 	lw	a0,152(sp)
9d0032a4:	27a50018 	addiu	a1,sp,24
9d0032a8:	24060001 	li	a2,1
9d0032ac:	02c03821 	move	a3,s6
9d0032b0:	a3a20018 	sb	v0,24(sp)
9d0032b4:	0f40221b 	jal	9d00886c <.LFE2>
9d0032b8:	afb500a0 	sw	s5,160(sp)
9d0032bc:	0b400ba6 	j	9d002e98 <_do_print_cdnopuxX+0x47c>
9d0032c0:	8fa30060 	lw	v1,96(sp)
9d0032c4:	36f70010 	ori	s7,s7,0x10
9d0032c8:	0b400b46 	j	9d002d18 <_do_print_cdnopuxX+0x2fc>
9d0032cc:	24100008 	li	s0,8
9d0032d0:	8c750000 	lw	s5,0(v1)
9d0032d4:	0000a021 	move	s4,zero
9d0032d8:	24630004 	addiu	v1,v1,4
9d0032dc:	afa300a0 	sw	v1,160(sp)
9d0032e0:	0b400b5c 	j	9d002d70 <_do_print_cdnopuxX+0x354>
9d0032e4:	afa0006c 	sw	zero,108(sp)
9d0032e8:	8c750000 	lw	s5,0(v1)
9d0032ec:	24630004 	addiu	v1,v1,4
9d0032f0:	afa300a0 	sw	v1,160(sp)
9d0032f4:	0015a7c3 	sra	s4,s5,0x1f
9d0032f8:	02801021 	move	v0,s4
9d0032fc:	0441fe9b 	bgez	v0,9d002d6c <_do_print_cdnopuxX+0x350>
9d003300:	02a01821 	move	v1,s5
9d003304:	0b400c68 	j	9d0031a0 <_do_print_cdnopuxX+0x784>
9d003308:	00036823 	negu	t5,v1
9d00330c:	0b400c09 	j	9d003024 <_do_print_cdnopuxX+0x608>
9d003310:	26100001 	addiu	s0,s0,1
9d003314:	82630001 	lb	v1,1(s3)
9d003318:	24020030 	li	v0,48
9d00331c:	1062fece 	beq	v1,v0,9d002e58 <_do_print_cdnopuxX+0x43c>
9d003320:	8fa30064 	lw	v1,100(sp)
9d003324:	a2620000 	sb	v0,0(s3)
9d003328:	0b400b95 	j	9d002e54 <_do_print_cdnopuxX+0x438>
9d00332c:	2673ffff 	addiu	s3,s3,-1
9d003330:	8fa300a0 	lw	v1,160(sp)
9d003334:	24750007 	addiu	s5,v1,7
9d003338:	2402fff8 	li	v0,-8
9d00333c:	02a2a824 	and	s5,s5,v0
9d003340:	8ea30000 	lw	v1,0(s5)
9d003344:	8ea20004 	lw	v0,4(s5)
9d003348:	26b50008 	addiu	s5,s5,8
9d00334c:	afb500a0 	sw	s5,160(sp)
9d003350:	0060a821 	move	s5,v1
9d003354:	0441fe85 	bgez	v0,9d002d6c <_do_print_cdnopuxX+0x350>
9d003358:	0040a021 	move	s4,v0
9d00335c:	0b400c68 	j	9d0031a0 <_do_print_cdnopuxX+0x784>
9d003360:	00036823 	negu	t5,v1
9d003364:	24950007 	addiu	s5,a0,7
9d003368:	2402fff8 	li	v0,-8
9d00336c:	02a21024 	and	v0,s5,v0
9d003370:	24430008 	addiu	v1,v0,8
9d003374:	afa300a0 	sw	v1,160(sp)
9d003378:	8c550000 	lw	s5,0(v0)
9d00337c:	8c540004 	lw	s4,4(v0)
9d003380:	0b400b5c 	j	9d002d70 <_do_print_cdnopuxX+0x354>
9d003384:	afa0006c 	sw	zero,108(sp)
9d003388:	8fa300a0 	lw	v1,160(sp)
9d00338c:	8c7e0000 	lw	s8,0(v1)
9d003390:	24750004 	addiu	s5,v1,4
9d003394:	26030002 	addiu	v1,s0,2
9d003398:	82020002 	lb	v0,2(s0)
9d00339c:	afb500a0 	sw	s5,160(sp)
9d0033a0:	07c1fe0a 	bgez	s8,9d002bcc <_do_print_cdnopuxX+0x1b0>
9d0033a4:	00608021 	move	s0,v1
9d0033a8:	0b400af3 	j	9d002bcc <_do_print_cdnopuxX+0x1b0>
9d0033ac:	241effff 	li	s8,-1
9d0033b0:	36f70001 	ori	s7,s7,0x1
9d0033b4:	26100001 	addiu	s0,s0,1
9d0033b8:	0b400c09 	j	9d003024 <_do_print_cdnopuxX+0x608>
9d0033bc:	26100001 	addiu	s0,s0,1
9d0033c0:	24020058 	li	v0,88
9d0033c4:	24030078 	li	v1,120
9d0033c8:	0064100a 	movz	v0,v1,a0
9d0033cc:	a2620000 	sb	v0,0(s3)
9d0033d0:	24020030 	li	v0,48
9d0033d4:	a262ffff 	sb	v0,-1(s3)
9d0033d8:	0b400b95 	j	9d002e54 <_do_print_cdnopuxX+0x438>
9d0033dc:	2673fffe 	addiu	s3,s3,-2
9d0033e0:	27a20057 	addiu	v0,sp,87
9d0033e4:	afa20068 	sw	v0,104(sp)
9d0033e8:	0b400b7f 	j	9d002dfc <_do_print_cdnopuxX+0x3e0>
9d0033ec:	00409821 	move	s3,v0
9d0033f0:	36f78000 	ori	s7,s7,0x8000
9d0033f4:	26100001 	addiu	s0,s0,1
9d0033f8:	0b400c09 	j	9d003024 <_do_print_cdnopuxX+0x608>
9d0033fc:	26100001 	addiu	s0,s0,1
9d003400:	82620001 	lb	v0,1(s3)
9d003404:	38420030 	xori	v0,v0,0x30
9d003408:	0002102b 	sltu	v0,zero,v0
9d00340c:	0b400bd2 	j	9d002f48 <_do_print_cdnopuxX+0x52c>
9d003410:	00621823 	subu	v1,v1,v0
9d003414:	8c430000 	lw	v1,0(v0)
9d003418:	00001021 	move	v0,zero
9d00341c:	8fa400a0 	lw	a0,160(sp)
9d003420:	24840004 	addiu	a0,a0,4
9d003424:	afa400a0 	sw	a0,160(sp)
9d003428:	8fa40060 	lw	a0,96(sp)
9d00342c:	0b400ba5 	j	9d002e94 <_do_print_cdnopuxX+0x478>
9d003430:	ac640000 	sw	a0,0(v1)
9d003434:	0f402631 	jal	9d0098c4 <strlen>
9d003438:	02002021 	move	a0,s0
9d00343c:	0b400c8b 	j	9d00322c <_do_print_cdnopuxX+0x810>
9d003440:	afb70010 	sw	s7,16(sp)
9d003444:	8c820000 	lw	v0,0(a0)
9d003448:	8fa40060 	lw	a0,96(sp)
9d00344c:	00041fc3 	sra	v1,a0,0x1f
9d003450:	8fa400a0 	lw	a0,160(sp)
9d003454:	24840004 	addiu	a0,a0,4
9d003458:	afa400a0 	sw	a0,160(sp)
9d00345c:	8fa40060 	lw	a0,96(sp)
9d003460:	ac440000 	sw	a0,0(v0)
9d003464:	ac430004 	sw	v1,4(v0)
9d003468:	0b400ba5 	j	9d002e94 <_do_print_cdnopuxX+0x478>
9d00346c:	00001021 	move	v0,zero
9d003470:	8fa200a0 	lw	v0,160(sp)
9d003474:	8c430000 	lw	v1,0(v0)
9d003478:	00001021 	move	v0,zero
9d00347c:	8fa400a0 	lw	a0,160(sp)
9d003480:	24840004 	addiu	a0,a0,4
9d003484:	afa400a0 	sw	a0,160(sp)
9d003488:	11000003 	beqz	t0,9d003498 <_do_print_cdnopuxX+0xa7c>
9d00348c:	8fa40060 	lw	a0,96(sp)
9d003490:	0b400ba5 	j	9d002e94 <_do_print_cdnopuxX+0x478>
9d003494:	a0640000 	sb	a0,0(v1)
9d003498:	0b400ba5 	j	9d002e94 <_do_print_cdnopuxX+0x478>
9d00349c:	ac640000 	sw	a0,0(v1)
9d0034a0:	0b400c8a 	j	9d003228 <_do_print_cdnopuxX+0x80c>
9d0034a4:	00001021 	move	v0,zero

Disassembly of section .text.malloc:

9d0034a8 <malloc>:
9d0034a8:	27bdffc0 	addiu	sp,sp,-64
9d0034ac:	afbf003c 	sw	ra,60(sp)
9d0034b0:	afbe0038 	sw	s8,56(sp)
9d0034b4:	afb70034 	sw	s7,52(sp)
9d0034b8:	afb60030 	sw	s6,48(sp)
9d0034bc:	afb5002c 	sw	s5,44(sp)
9d0034c0:	afb40028 	sw	s4,40(sp)
9d0034c4:	afb30024 	sw	s3,36(sp)
9d0034c8:	afb20020 	sw	s2,32(sp)
9d0034cc:	afb1001c 	sw	s1,28(sp)
9d0034d0:	2482000b 	addiu	v0,a0,11
9d0034d4:	2c430017 	sltiu	v1,v0,23
9d0034d8:	10600022 	beqz	v1,9d003564 <malloc+0xbc>
9d0034dc:	afb00018 	sw	s0,24(sp)
9d0034e0:	2c840011 	sltiu	a0,a0,17
9d0034e4:	10800090 	beqz	a0,9d003728 <malloc+0x280>
9d0034e8:	24100010 	li	s0,16
9d0034ec:	3c11a000 	lui	s1,0xa000
9d0034f0:	2631160c 	addiu	s1,s1,5644
9d0034f4:	02301821 	addu	v1,s1,s0
9d0034f8:	8c62000c 	lw	v0,12(v1)
9d0034fc:	104300c5 	beq	v0,v1,9d003814 <malloc+0x36c>
9d003500:	001040c2 	srl	t0,s0,0x3
9d003504:	8c450004 	lw	a1,4(v0)
9d003508:	8c44000c 	lw	a0,12(v0)
9d00350c:	2403fffc 	li	v1,-4
9d003510:	00a31824 	and	v1,a1,v1
9d003514:	00431821 	addu	v1,v0,v1
9d003518:	8c660004 	lw	a2,4(v1)
9d00351c:	8c450008 	lw	a1,8(v0)
9d003520:	24420008 	addiu	v0,v0,8
9d003524:	34c60001 	ori	a2,a2,0x1
9d003528:	aca4000c 	sw	a0,12(a1)
9d00352c:	ac850008 	sw	a1,8(a0)
9d003530:	ac660004 	sw	a2,4(v1)
9d003534:	8fbf003c 	lw	ra,60(sp)
9d003538:	8fbe0038 	lw	s8,56(sp)
9d00353c:	8fb70034 	lw	s7,52(sp)
9d003540:	8fb60030 	lw	s6,48(sp)
9d003544:	8fb5002c 	lw	s5,44(sp)
9d003548:	8fb40028 	lw	s4,40(sp)
9d00354c:	8fb30024 	lw	s3,36(sp)
9d003550:	8fb20020 	lw	s2,32(sp)
9d003554:	8fb1001c 	lw	s1,28(sp)
9d003558:	8fb00018 	lw	s0,24(sp)
9d00355c:	03e00008 	jr	ra
9d003560:	27bd0040 	addiu	sp,sp,64
9d003564:	2410fff8 	li	s0,-8
9d003568:	00508024 	and	s0,v0,s0
9d00356c:	0600006e 	bltz	s0,9d003728 <malloc+0x280>
9d003570:	0204202b 	sltu	a0,s0,a0
9d003574:	1480006c 	bnez	a0,9d003728 <malloc+0x280>
9d003578:	2e0201f8 	sltiu	v0,s0,504
9d00357c:	1440ffdc 	bnez	v0,9d0034f0 <malloc+0x48>
9d003580:	3c11a000 	lui	s1,0xa000
9d003584:	00101242 	srl	v0,s0,0x9
9d003588:	1040000a 	beqz	v0,9d0035b4 <malloc+0x10c>
9d00358c:	2406007e 	li	a2,126
9d003590:	2c430005 	sltiu	v1,v0,5
9d003594:	14600043 	bnez	v1,9d0036a4 <malloc+0x1fc>
9d003598:	00104182 	srl	t0,s0,0x6
9d00359c:	2c430015 	sltiu	v1,v0,21
9d0035a0:	10600107 	beqz	v1,9d0039c0 <malloc+0x518>
9d0035a4:	2c430055 	sltiu	v1,v0,85
9d0035a8:	2448005b 	addiu	t0,v0,91
9d0035ac:	0b400d6f 	j	9d0035bc <malloc+0x114>
9d0035b0:	00083040 	sll	a2,t0,0x1
9d0035b4:	2408003f 	li	t0,63
9d0035b8:	3c11a000 	lui	s1,0xa000
9d0035bc:	00063080 	sll	a2,a2,0x2
9d0035c0:	2631160c 	addiu	s1,s1,5644
9d0035c4:	02263021 	addu	a2,s1,a2
9d0035c8:	8cc2000c 	lw	v0,12(a2)
9d0035cc:	10c20015 	beq	a2,v0,9d003624 <malloc+0x17c>
9d0035d0:	2403fffc 	li	v1,-4
9d0035d4:	8c440004 	lw	a0,4(v0)
9d0035d8:	00832024 	and	a0,a0,v1
9d0035dc:	00901823 	subu	v1,a0,s0
9d0035e0:	28650010 	slti	a1,v1,16
9d0035e4:	50a0000f 	beqzl	a1,9d003624 <malloc+0x17c>
9d0035e8:	2508ffff 	addiu	t0,t0,-1
9d0035ec:	0460000a 	bltz	v1,9d003618 <malloc+0x170>
9d0035f0:	2407fffc 	li	a3,-4
9d0035f4:	0b400dda 	j	9d003768 <malloc+0x2c0>
9d0035f8:	00442021 	addu	a0,v0,a0
9d0035fc:	00872024 	and	a0,a0,a3
9d003600:	00901823 	subu	v1,a0,s0
9d003604:	28650010 	slti	a1,v1,16
9d003608:	50a00006 	beqzl	a1,9d003624 <malloc+0x17c>
9d00360c:	2508ffff 	addiu	t0,t0,-1
9d003610:	04630055 	bgezl	v1,9d003768 <malloc+0x2c0>
9d003614:	00442021 	addu	a0,v0,a0
9d003618:	8c42000c 	lw	v0,12(v0)
9d00361c:	54c2fff7 	bnel	a2,v0,9d0035fc <malloc+0x154>
9d003620:	8c440004 	lw	a0,4(v0)
9d003624:	25080001 	addiu	t0,t0,1
9d003628:	8e220010 	lw	v0,16(s1)
9d00362c:	3c06a000 	lui	a2,0xa000
9d003630:	24c61614 	addiu	a2,a2,5652
9d003634:	1046007d 	beq	v0,a2,9d00382c <malloc+0x384>
9d003638:	2403fffc 	li	v1,-4
9d00363c:	8c440004 	lw	a0,4(v0)
9d003640:	00832024 	and	a0,a0,v1
9d003644:	00901823 	subu	v1,a0,s0
9d003648:	28650010 	slti	a1,v1,16
9d00364c:	50a0005a 	beqzl	a1,9d0037b8 <malloc+0x310>
9d003650:	00502021 	addu	a0,v0,s0
9d003654:	ae260014 	sw	a2,20(s1)
9d003658:	04600015 	bltz	v1,9d0036b0 <malloc+0x208>
9d00365c:	ae260010 	sw	a2,16(s1)
9d003660:	00442021 	addu	a0,v0,a0
9d003664:	8c830004 	lw	v1,4(a0)
9d003668:	24420008 	addiu	v0,v0,8
9d00366c:	34630001 	ori	v1,v1,0x1
9d003670:	ac830004 	sw	v1,4(a0)
9d003674:	8fbf003c 	lw	ra,60(sp)
9d003678:	8fbe0038 	lw	s8,56(sp)
9d00367c:	8fb70034 	lw	s7,52(sp)
9d003680:	8fb60030 	lw	s6,48(sp)
9d003684:	8fb5002c 	lw	s5,44(sp)
9d003688:	8fb40028 	lw	s4,40(sp)
9d00368c:	8fb30024 	lw	s3,36(sp)
9d003690:	8fb20020 	lw	s2,32(sp)
9d003694:	8fb1001c 	lw	s1,28(sp)
9d003698:	8fb00018 	lw	s0,24(sp)
9d00369c:	03e00008 	jr	ra
9d0036a0:	27bd0040 	addiu	sp,sp,64
9d0036a4:	25080038 	addiu	t0,t0,56
9d0036a8:	0b400d6e 	j	9d0035b8 <malloc+0x110>
9d0036ac:	00083040 	sll	a2,t0,0x1
9d0036b0:	2c830200 	sltiu	v1,a0,512
9d0036b4:	546000cb 	bnezl	v1,9d0039e4 <malloc+0x53c>
9d0036b8:	000420c2 	srl	a0,a0,0x3
9d0036bc:	00041a42 	srl	v1,a0,0x9
9d0036c0:	2c650005 	sltiu	a1,v1,5
9d0036c4:	10a00153 	beqz	a1,9d003c14 <malloc+0x76c>
9d0036c8:	2c650015 	sltiu	a1,v1,21
9d0036cc:	00042982 	srl	a1,a0,0x6
9d0036d0:	24a50038 	addiu	a1,a1,56
9d0036d4:	000538c0 	sll	a3,a1,0x3
9d0036d8:	02273821 	addu	a3,s1,a3
9d0036dc:	8ce30008 	lw	v1,8(a3)
9d0036e0:	50670159 	beql	v1,a3,9d003c48 <malloc+0x7a0>
9d0036e4:	8e240004 	lw	a0,4(s1)
9d0036e8:	2409fffc 	li	t1,-4
9d0036ec:	8c650004 	lw	a1,4(v1)
9d0036f0:	00a92824 	and	a1,a1,t1
9d0036f4:	0085282b 	sltu	a1,a0,a1
9d0036f8:	50a00005 	beqzl	a1,9d003710 <malloc+0x268>
9d0036fc:	8c65000c 	lw	a1,12(v1)
9d003700:	8c630008 	lw	v1,8(v1)
9d003704:	54e3fffa 	bnel	a3,v1,9d0036f0 <malloc+0x248>
9d003708:	8c650004 	lw	a1,4(v1)
9d00370c:	8c65000c 	lw	a1,12(v1)
9d003710:	8e240004 	lw	a0,4(s1)
9d003714:	ac45000c 	sw	a1,12(v0)
9d003718:	ac430008 	sw	v1,8(v0)
9d00371c:	aca20008 	sw	v0,8(a1)
9d003720:	0b400e0c 	j	9d003830 <malloc+0x388>
9d003724:	ac62000c 	sw	v0,12(v1)
9d003728:	2403000c 	li	v1,12
9d00372c:	3c02a000 	lui	v0,0xa000
9d003730:	ac430020 	sw	v1,32(v0)
9d003734:	00001021 	move	v0,zero
9d003738:	8fbf003c 	lw	ra,60(sp)
9d00373c:	8fbe0038 	lw	s8,56(sp)
9d003740:	8fb70034 	lw	s7,52(sp)
9d003744:	8fb60030 	lw	s6,48(sp)
9d003748:	8fb5002c 	lw	s5,44(sp)
9d00374c:	8fb40028 	lw	s4,40(sp)
9d003750:	8fb30024 	lw	s3,36(sp)
9d003754:	8fb20020 	lw	s2,32(sp)
9d003758:	8fb1001c 	lw	s1,28(sp)
9d00375c:	8fb00018 	lw	s0,24(sp)
9d003760:	03e00008 	jr	ra
9d003764:	27bd0040 	addiu	sp,sp,64
9d003768:	8c860004 	lw	a2,4(a0)
9d00376c:	8c43000c 	lw	v1,12(v0)
9d003770:	8c450008 	lw	a1,8(v0)
9d003774:	34c60001 	ori	a2,a2,0x1
9d003778:	24420008 	addiu	v0,v0,8
9d00377c:	aca3000c 	sw	v1,12(a1)
9d003780:	ac650008 	sw	a1,8(v1)
9d003784:	ac860004 	sw	a2,4(a0)
9d003788:	8fbf003c 	lw	ra,60(sp)
9d00378c:	8fbe0038 	lw	s8,56(sp)
9d003790:	8fb70034 	lw	s7,52(sp)
9d003794:	8fb60030 	lw	s6,48(sp)
9d003798:	8fb5002c 	lw	s5,44(sp)
9d00379c:	8fb40028 	lw	s4,40(sp)
9d0037a0:	8fb30024 	lw	s3,36(sp)
9d0037a4:	8fb20020 	lw	s2,32(sp)
9d0037a8:	8fb1001c 	lw	s1,28(sp)
9d0037ac:	8fb00018 	lw	s0,24(sp)
9d0037b0:	03e00008 	jr	ra
9d0037b4:	27bd0040 	addiu	sp,sp,64
9d0037b8:	36100001 	ori	s0,s0,0x1
9d0037bc:	34670001 	ori	a3,v1,0x1
9d0037c0:	00832821 	addu	a1,a0,v1
9d0037c4:	ac500004 	sw	s0,4(v0)
9d0037c8:	24420008 	addiu	v0,v0,8
9d0037cc:	ae240014 	sw	a0,20(s1)
9d0037d0:	ae240010 	sw	a0,16(s1)
9d0037d4:	ac86000c 	sw	a2,12(a0)
9d0037d8:	ac860008 	sw	a2,8(a0)
9d0037dc:	ac870004 	sw	a3,4(a0)
9d0037e0:	aca30000 	sw	v1,0(a1)
9d0037e4:	8fbf003c 	lw	ra,60(sp)
9d0037e8:	8fbe0038 	lw	s8,56(sp)
9d0037ec:	8fb70034 	lw	s7,52(sp)
9d0037f0:	8fb60030 	lw	s6,48(sp)
9d0037f4:	8fb5002c 	lw	s5,44(sp)
9d0037f8:	8fb40028 	lw	s4,40(sp)
9d0037fc:	8fb30024 	lw	s3,36(sp)
9d003800:	8fb20020 	lw	s2,32(sp)
9d003804:	8fb1001c 	lw	s1,28(sp)
9d003808:	8fb00018 	lw	s0,24(sp)
9d00380c:	03e00008 	jr	ra
9d003810:	27bd0040 	addiu	sp,sp,64
9d003814:	24430008 	addiu	v1,v0,8
9d003818:	8c420014 	lw	v0,20(v0)
9d00381c:	1062ff82 	beq	v1,v0,9d003628 <malloc+0x180>
9d003820:	25080002 	addiu	t0,t0,2
9d003824:	0b400d42 	j	9d003508 <malloc+0x60>
9d003828:	8c450004 	lw	a1,4(v0)
9d00382c:	8e240004 	lw	a0,4(s1)
9d003830:	00081083 	sra	v0,t0,0x2
9d003834:	24070001 	li	a3,1
9d003838:	00473804 	sllv	a3,a3,v0
9d00383c:	0087102b 	sltu	v0,a0,a3
9d003840:	5440002b 	bnezl	v0,9d0038f0 <malloc+0x448>
9d003844:	8e320008 	lw	s2,8(s1)
9d003848:	00871024 	and	v0,a0,a3
9d00384c:	50400073 	beqzl	v0,9d003a1c <malloc+0x574>
9d003850:	00073840 	sll	a3,a3,0x1
9d003854:	240afffc 	li	t2,-4
9d003858:	000858c0 	sll	t3,t0,0x3
9d00385c:	022b5821 	addu	t3,s1,t3
9d003860:	01604821 	move	t1,t3
9d003864:	01006021 	move	t4,t0
9d003868:	8d22000c 	lw	v0,12(t1)
9d00386c:	55220009 	bnel	t1,v0,9d003894 <malloc+0x3ec>
9d003870:	8c440004 	lw	a0,4(v0)
9d003874:	0b400e95 	j	9d003a54 <malloc+0x5ac>
9d003878:	258c0001 	addiu	t4,t4,1
9d00387c:	04630093 	bgezl	v1,9d003acc <malloc+0x624>
9d003880:	00442021 	addu	a0,v0,a0
9d003884:	8c42000c 	lw	v0,12(v0)
9d003888:	51220072 	beql	t1,v0,9d003a54 <malloc+0x5ac>
9d00388c:	258c0001 	addiu	t4,t4,1
9d003890:	8c440004 	lw	a0,4(v0)
9d003894:	008a2024 	and	a0,a0,t2
9d003898:	00901823 	subu	v1,a0,s0
9d00389c:	28650010 	slti	a1,v1,16
9d0038a0:	14a0fff6 	bnez	a1,9d00387c <malloc+0x3d4>
9d0038a4:	00000000 	nop
9d0038a8:	8c45000c 	lw	a1,12(v0)
9d0038ac:	8c470008 	lw	a3,8(v0)
9d0038b0:	00502021 	addu	a0,v0,s0
9d0038b4:	36100001 	ori	s0,s0,0x1
9d0038b8:	34690001 	ori	t1,v1,0x1
9d0038bc:	00834021 	addu	t0,a0,v1
9d0038c0:	ac500004 	sw	s0,4(v0)
9d0038c4:	24420008 	addiu	v0,v0,8
9d0038c8:	ace5000c 	sw	a1,12(a3)
9d0038cc:	aca70008 	sw	a3,8(a1)
9d0038d0:	ae240014 	sw	a0,20(s1)
9d0038d4:	ae240010 	sw	a0,16(s1)
9d0038d8:	ac86000c 	sw	a2,12(a0)
9d0038dc:	ac860008 	sw	a2,8(a0)
9d0038e0:	ac890004 	sw	t1,4(a0)
9d0038e4:	0b400d4d 	j	9d003534 <malloc+0x8c>
9d0038e8:	ad030000 	sw	v1,0(t0)
9d0038ec:	8e320008 	lw	s2,8(s1)
9d0038f0:	8e540004 	lw	s4,4(s2)
9d0038f4:	2402fffc 	li	v0,-4
9d0038f8:	0282a024 	and	s4,s4,v0
9d0038fc:	0290102b 	sltu	v0,s4,s0
9d003900:	14400004 	bnez	v0,9d003914 <malloc+0x46c>
9d003904:	02901023 	subu	v0,s4,s0
9d003908:	28430010 	slti	v1,v0,16
9d00390c:	10600025 	beqz	v1,9d0039a4 <malloc+0x4fc>
9d003910:	02501821 	addu	v1,s2,s0
9d003914:	3c02a000 	lui	v0,0xa000
9d003918:	8c551ba0 	lw	s5,7072(v0)
9d00391c:	3c1ea000 	lui	s8,0xa000
9d003920:	0254b821 	addu	s7,s2,s4
9d003924:	26b50010 	addiu	s5,s5,16
9d003928:	0f40295b 	jal	9d00a56c <getpagesize>
9d00392c:	02b0a821 	addu	s5,s5,s0
9d003930:	0040b021 	move	s6,v0
9d003934:	8fc31604 	lw	v1,5636(s8)
9d003938:	2402ffff 	li	v0,-1
9d00393c:	10620004 	beq	v1,v0,9d003950 <malloc+0x4a8>
9d003940:	26a2ffff 	addiu	v0,s5,-1
9d003944:	00561021 	addu	v0,v0,s6
9d003948:	0016a823 	negu	s5,s6
9d00394c:	02a2a824 	and	s5,s5,v0
9d003950:	0f40279d 	jal	9d009e74 <sbrk>
9d003954:	02a02021 	move	a0,s5
9d003958:	00409821 	move	s3,v0
9d00395c:	2402ffff 	li	v0,-1
9d003960:	52620007 	beql	s3,v0,9d003980 <malloc+0x4d8>
9d003964:	8e320008 	lw	s2,8(s1)
9d003968:	0277102b 	sltu	v0,s3,s7
9d00396c:	10400060 	beqz	v0,9d003af0 <malloc+0x648>
9d003970:	3c03a000 	lui	v1,0xa000
9d003974:	5251005f 	beql	s2,s1,9d003af4 <malloc+0x64c>
9d003978:	8c621b70 	lw	v0,7024(v1)
9d00397c:	8e320008 	lw	s2,8(s1)
9d003980:	8e430004 	lw	v1,4(s2)
9d003984:	2402fffc 	li	v0,-4
9d003988:	00621024 	and	v0,v1,v0
9d00398c:	0050182b 	sltu	v1,v0,s0
9d003990:	146000a4 	bnez	v1,9d003c24 <malloc+0x77c>
9d003994:	00501023 	subu	v0,v0,s0
9d003998:	28430010 	slti	v1,v0,16
9d00399c:	146000a1 	bnez	v1,9d003c24 <malloc+0x77c>
9d0039a0:	02501821 	addu	v1,s2,s0
9d0039a4:	36100001 	ori	s0,s0,0x1
9d0039a8:	34440001 	ori	a0,v0,0x1
9d0039ac:	ae500004 	sw	s0,4(s2)
9d0039b0:	26420008 	addiu	v0,s2,8
9d0039b4:	ae230008 	sw	v1,8(s1)
9d0039b8:	0b400d4d 	j	9d003534 <malloc+0x8c>
9d0039bc:	ac640004 	sw	a0,4(v1)
9d0039c0:	14600021 	bnez	v1,9d003a48 <malloc+0x5a0>
9d0039c4:	00104302 	srl	t0,s0,0xc
9d0039c8:	2c430155 	sltiu	v1,v0,341
9d0039cc:	1060008b 	beqz	v1,9d003bfc <malloc+0x754>
9d0039d0:	2c420555 	sltiu	v0,v0,1365
9d0039d4:	001043c2 	srl	t0,s0,0xf
9d0039d8:	25080077 	addiu	t0,t0,119
9d0039dc:	0b400d6e 	j	9d0035b8 <malloc+0x110>
9d0039e0:	00083040 	sll	a2,t0,0x1
9d0039e4:	000418c0 	sll	v1,a0,0x3
9d0039e8:	02231821 	addu	v1,s1,v1
9d0039ec:	8e270004 	lw	a3,4(s1)
9d0039f0:	8c650008 	lw	a1,8(v1)
9d0039f4:	00042083 	sra	a0,a0,0x2
9d0039f8:	24090001 	li	t1,1
9d0039fc:	00892004 	sllv	a0,t1,a0
9d003a00:	00872025 	or	a0,a0,a3
9d003a04:	ac43000c 	sw	v1,12(v0)
9d003a08:	ac450008 	sw	a1,8(v0)
9d003a0c:	ae240004 	sw	a0,4(s1)
9d003a10:	ac620008 	sw	v0,8(v1)
9d003a14:	0b400e0c 	j	9d003830 <malloc+0x388>
9d003a18:	aca2000c 	sw	v0,12(a1)
9d003a1c:	2402fffc 	li	v0,-4
9d003a20:	01024024 	and	t0,t0,v0
9d003a24:	00871024 	and	v0,a0,a3
9d003a28:	1440ff8a 	bnez	v0,9d003854 <malloc+0x3ac>
9d003a2c:	25080004 	addiu	t0,t0,4
9d003a30:	00073840 	sll	a3,a3,0x1
9d003a34:	00871024 	and	v0,a0,a3
9d003a38:	1040fffd 	beqz	v0,9d003a30 <malloc+0x588>
9d003a3c:	25080004 	addiu	t0,t0,4
9d003a40:	0b400e16 	j	9d003858 <malloc+0x3b0>
9d003a44:	240afffc 	li	t2,-4
9d003a48:	2508006e 	addiu	t0,t0,110
9d003a4c:	0b400d6e 	j	9d0035b8 <malloc+0x110>
9d003a50:	00083040 	sll	a2,t0,0x1
9d003a54:	31820003 	andi	v0,t4,0x3
9d003a58:	1440ff83 	bnez	v0,9d003868 <malloc+0x3c0>
9d003a5c:	25290008 	addiu	t1,t1,8
9d003a60:	0b400e9d 	j	9d003a74 <malloc+0x5cc>
9d003a64:	2562fff8 	addiu	v0,t3,-8
9d003a68:	15620009 	bne	t3,v0,9d003a90 <malloc+0x5e8>
9d003a6c:	2508ffff 	addiu	t0,t0,-1
9d003a70:	2562fff8 	addiu	v0,t3,-8
9d003a74:	31030003 	andi	v1,t0,0x3
9d003a78:	5460fffb 	bnezl	v1,9d003a68 <malloc+0x5c0>
9d003a7c:	8d6b0000 	lw	t3,0(t3)
9d003a80:	8e220004 	lw	v0,4(s1)
9d003a84:	00071827 	nor	v1,zero,a3
9d003a88:	00621024 	and	v0,v1,v0
9d003a8c:	ae220004 	sw	v0,4(s1)
9d003a90:	8e220004 	lw	v0,4(s1)
9d003a94:	00073840 	sll	a3,a3,0x1
9d003a98:	0047182b 	sltu	v1,v0,a3
9d003a9c:	5460ff94 	bnezl	v1,9d0038f0 <malloc+0x448>
9d003aa0:	8e320008 	lw	s2,8(s1)
9d003aa4:	10e0ff91 	beqz	a3,9d0038ec <malloc+0x444>
9d003aa8:	00e21824 	and	v1,a3,v0
9d003aac:	1460ff6a 	bnez	v1,9d003858 <malloc+0x3b0>
9d003ab0:	01804021 	move	t0,t4
9d003ab4:	00073840 	sll	a3,a3,0x1
9d003ab8:	00e21824 	and	v1,a3,v0
9d003abc:	1060fffd 	beqz	v1,9d003ab4 <malloc+0x60c>
9d003ac0:	25080004 	addiu	t0,t0,4
9d003ac4:	0b400e17 	j	9d00385c <malloc+0x3b4>
9d003ac8:	000858c0 	sll	t3,t0,0x3
9d003acc:	8c860004 	lw	a2,4(a0)
9d003ad0:	8c43000c 	lw	v1,12(v0)
9d003ad4:	8c450008 	lw	a1,8(v0)
9d003ad8:	34c60001 	ori	a2,a2,0x1
9d003adc:	ac860004 	sw	a2,4(a0)
9d003ae0:	24420008 	addiu	v0,v0,8
9d003ae4:	aca3000c 	sw	v1,12(a1)
9d003ae8:	0b400d4d 	j	9d003534 <malloc+0x8c>
9d003aec:	ac650008 	sw	a1,8(v1)
9d003af0:	8c621b70 	lw	v0,7024(v1)
9d003af4:	26c5ffff 	addiu	a1,s6,-1
9d003af8:	02a21021 	addu	v0,s5,v0
9d003afc:	12f3005e 	beq	s7,s3,9d003c78 <malloc+0x7d0>
9d003b00:	ac621b70 	sw	v0,7024(v1)
9d003b04:	8fc61604 	lw	a2,5636(s8)
9d003b08:	2404ffff 	li	a0,-1
9d003b0c:	50c4006a 	beql	a2,a0,9d003cb8 <malloc+0x810>
9d003b10:	3c02a000 	lui	v0,0xa000
9d003b14:	0277b823 	subu	s7,s3,s7
9d003b18:	00571021 	addu	v0,v0,s7
9d003b1c:	ac621b70 	sw	v0,7024(v1)
9d003b20:	32640007 	andi	a0,s3,0x7
9d003b24:	10800004 	beqz	a0,9d003b38 <malloc+0x690>
9d003b28:	00001021 	move	v0,zero
9d003b2c:	24020008 	li	v0,8
9d003b30:	00441023 	subu	v0,v0,a0
9d003b34:	02629821 	addu	s3,s3,v0
9d003b38:	0275a821 	addu	s5,s3,s5
9d003b3c:	00561021 	addu	v0,v0,s6
9d003b40:	02a52824 	and	a1,s5,a1
9d003b44:	0045a823 	subu	s5,v0,a1
9d003b48:	02a02021 	move	a0,s5
9d003b4c:	0f40279d 	jal	9d009e74 <sbrk>
9d003b50:	afa30010 	sw	v1,16(sp)
9d003b54:	2404ffff 	li	a0,-1
9d003b58:	10440054 	beq	v0,a0,9d003cac <malloc+0x804>
9d003b5c:	8fa30010 	lw	v1,16(sp)
9d003b60:	00531023 	subu	v0,v0,s3
9d003b64:	02a22021 	addu	a0,s5,v0
9d003b68:	34840001 	ori	a0,a0,0x1
9d003b6c:	8c621b70 	lw	v0,7024(v1)
9d003b70:	ae330008 	sw	s3,8(s1)
9d003b74:	02a21021 	addu	v0,s5,v0
9d003b78:	ac621b70 	sw	v0,7024(v1)
9d003b7c:	12510010 	beq	s2,s1,9d003bc0 <malloc+0x718>
9d003b80:	ae640004 	sw	a0,4(s3)
9d003b84:	2e830010 	sltiu	v1,s4,16
9d003b88:	1460002a 	bnez	v1,9d003c34 <malloc+0x78c>
9d003b8c:	2403fff8 	li	v1,-8
9d003b90:	2694fff4 	addiu	s4,s4,-12
9d003b94:	02831824 	and	v1,s4,v1
9d003b98:	02432021 	addu	a0,s2,v1
9d003b9c:	24050005 	li	a1,5
9d003ba0:	ac850004 	sw	a1,4(a0)
9d003ba4:	ac850008 	sw	a1,8(a0)
9d003ba8:	8e450004 	lw	a1,4(s2)
9d003bac:	2c640010 	sltiu	a0,v1,16
9d003bb0:	30a50001 	andi	a1,a1,0x1
9d003bb4:	00651825 	or	v1,v1,a1
9d003bb8:	10800037 	beqz	a0,9d003c98 <malloc+0x7f0>
9d003bbc:	ae430004 	sw	v1,4(s2)
9d003bc0:	3c03a000 	lui	v1,0xa000
9d003bc4:	8c641b9c 	lw	a0,7068(v1)
9d003bc8:	0082202b 	sltu	a0,a0,v0
9d003bcc:	54800001 	bnezl	a0,9d003bd4 <malloc+0x72c>
9d003bd0:	ac621b9c 	sw	v0,7068(v1)
9d003bd4:	3c03a000 	lui	v1,0xa000
9d003bd8:	8c641b98 	lw	a0,7064(v1)
9d003bdc:	0082202b 	sltu	a0,a0,v0
9d003be0:	10800002 	beqz	a0,9d003bec <malloc+0x744>
9d003be4:	8e320008 	lw	s2,8(s1)
9d003be8:	ac621b98 	sw	v0,7064(v1)
9d003bec:	8e430004 	lw	v1,4(s2)
9d003bf0:	2402fffc 	li	v0,-4
9d003bf4:	0b400e63 	j	9d00398c <malloc+0x4e4>
9d003bf8:	00621024 	and	v0,v1,v0
9d003bfc:	5040000b 	beqzl	v0,9d003c2c <malloc+0x784>
9d003c00:	240600fc 	li	a2,252
9d003c04:	00104482 	srl	t0,s0,0x12
9d003c08:	2508007c 	addiu	t0,t0,124
9d003c0c:	0b400d6e 	j	9d0035b8 <malloc+0x110>
9d003c10:	00083040 	sll	a2,t0,0x1
9d003c14:	50a00013 	beqzl	a1,9d003c64 <malloc+0x7bc>
9d003c18:	2c650055 	sltiu	a1,v1,85
9d003c1c:	0b400db5 	j	9d0036d4 <malloc+0x22c>
9d003c20:	2465005b 	addiu	a1,v1,91
9d003c24:	0b400d4d 	j	9d003534 <malloc+0x8c>
9d003c28:	00001021 	move	v0,zero
9d003c2c:	0b400d6e 	j	9d0035b8 <malloc+0x110>
9d003c30:	2408007e 	li	t0,126
9d003c34:	24020001 	li	v0,1
9d003c38:	ae620004 	sw	v0,4(s3)
9d003c3c:	02609021 	move	s2,s3
9d003c40:	0b400e63 	j	9d00398c <malloc+0x4e4>
9d003c44:	00001021 	move	v0,zero
9d003c48:	00052883 	sra	a1,a1,0x2
9d003c4c:	24070001 	li	a3,1
9d003c50:	00a72804 	sllv	a1,a3,a1
9d003c54:	00a42025 	or	a0,a1,a0
9d003c58:	ae240004 	sw	a0,4(s1)
9d003c5c:	0b400dc5 	j	9d003714 <malloc+0x26c>
9d003c60:	00602821 	move	a1,v1
9d003c64:	50a00016 	beqzl	a1,9d003cc0 <malloc+0x818>
9d003c68:	2c650155 	sltiu	a1,v1,341
9d003c6c:	00042b02 	srl	a1,a0,0xc
9d003c70:	0b400db5 	j	9d0036d4 <malloc+0x22c>
9d003c74:	24a5006e 	addiu	a1,a1,110
9d003c78:	02e52024 	and	a0,s7,a1
9d003c7c:	5480ffa2 	bnezl	a0,9d003b08 <malloc+0x660>
9d003c80:	8fc61604 	lw	a2,5636(s8)
9d003c84:	8e230008 	lw	v1,8(s1)
9d003c88:	02b42021 	addu	a0,s5,s4
9d003c8c:	34840001 	ori	a0,a0,0x1
9d003c90:	0b400ef0 	j	9d003bc0 <malloc+0x718>
9d003c94:	ac640004 	sw	a0,4(v1)
9d003c98:	0f401d62 	jal	9d007588 <free>
9d003c9c:	26440008 	addiu	a0,s2,8
9d003ca0:	3c02a000 	lui	v0,0xa000
9d003ca4:	0b400ef0 	j	9d003bc0 <malloc+0x718>
9d003ca8:	8c421b70 	lw	v0,7024(v0)
9d003cac:	24040001 	li	a0,1
9d003cb0:	0b400edb 	j	9d003b6c <malloc+0x6c4>
9d003cb4:	0000a821 	move	s5,zero
9d003cb8:	0b400ec8 	j	9d003b20 <malloc+0x678>
9d003cbc:	ac531604 	sw	s3,5636(v0)
9d003cc0:	10a00004 	beqz	a1,9d003cd4 <malloc+0x82c>
9d003cc4:	2c630555 	sltiu	v1,v1,1365
9d003cc8:	00042bc2 	srl	a1,a0,0xf
9d003ccc:	0b400db5 	j	9d0036d4 <malloc+0x22c>
9d003cd0:	24a50077 	addiu	a1,a1,119
9d003cd4:	1060fe7f 	beqz	v1,9d0036d4 <malloc+0x22c>
9d003cd8:	2405007e 	li	a1,126
9d003cdc:	00042c82 	srl	a1,a0,0x12
9d003ce0:	0b400db5 	j	9d0036d4 <malloc+0x22c>
9d003ce4:	24a5007c 	addiu	a1,a1,124

Disassembly of section .dinit:

9d003ce8 <.dinit>:
9d003ce8:	a0000024 	sb	zero,36(zero)
9d003cec:	000015e0 	0x15e0
9d003cf0:	00000000 	nop
9d003cf4:	a0000008 	sb	zero,8(zero)
9d003cf8:	00000018 	mult	zero,zero
9d003cfc:	00000000 	nop
9d003d00:	a0001a14 	sb	zero,6676(zero)
9d003d04:	000000d4 	0xd4
9d003d08:	00000001 	movf	zero,zero,$fcc0
9d003d0c:	a0001a78 	sb	zero,6776(zero)
9d003d10:	a0001a94 	sb	zero,6804(zero)
9d003d14:	a0001ab0 	sb	zero,6832(zero)
9d003d18:	a0001a74 	sb	zero,6772(zero)
9d003d1c:	a0001ae8 	sb	zero,6888(zero)
9d003d20:	00000001 	movf	zero,zero,$fcc0
	...
9d003d70:	ffffffff 	sdc3	$31,-1(ra)
9d003d74:	ffffffff 	sdc3	$31,-1(ra)
9d003d78:	00000000 	nop
9d003d7c:	00000040 	ssnop
9d003d80:	00001009 	jalr	v0,zero
9d003d84:	00000000 	nop
9d003d88:	9d00a43c 	0x9d00a43c
9d003d8c:	ffffffff 	sdc3	$31,-1(ra)
	...
9d003d9c:	00011002 	srl	v0,at,0x0
9d003da0:	00000000 	nop
9d003da4:	9d00a43c 	0x9d00a43c
9d003da8:	ffffffff 	sdc3	$31,-1(ra)
	...
9d003db8:	00020002 	srl	zero,v0,0x0
9d003dbc:	00000000 	nop
9d003dc0:	9d00a43c 	0x9d00a43c
9d003dc4:	fffffffd 	sdc3	$31,-3(ra)
	...
9d003de0:	a0001ae8 	sb	zero,6888(zero)
9d003de4:	00000088 	0x88
9d003de8:	00000000 	nop
9d003dec:	a0000000 	sb	zero,0(zero)
9d003df0:	00000004 	sllv	zero,zero,zero
9d003df4:	00000001 	movf	zero,zero,$fcc0
9d003df8:	a0001a14 	sb	zero,6676(zero)
9d003dfc:	a0001be8 	sb	zero,7144(zero)
9d003e00:	00000004 	sllv	zero,zero,zero
9d003e04:	00000000 	nop
9d003e08:	a0001604 	sb	zero,5636(zero)
9d003e0c:	00000410 	0x410
9d003e10:	00000001 	movf	zero,zero,$fcc0
9d003e14:	ffffffff 	sdc3	$31,-1(ra)
9d003e18:	00002000 	sll	a0,zero,0x0
	...
9d003e24:	a000160c 	sb	zero,5644(zero)
9d003e28:	a000160c 	sb	zero,5644(zero)
9d003e2c:	a0001614 	sb	zero,5652(zero)
9d003e30:	a0001614 	sb	zero,5652(zero)
9d003e34:	a000161c 	sb	zero,5660(zero)
9d003e38:	a000161c 	sb	zero,5660(zero)
9d003e3c:	a0001624 	sb	zero,5668(zero)
9d003e40:	a0001624 	sb	zero,5668(zero)
9d003e44:	a000162c 	sb	zero,5676(zero)
9d003e48:	a000162c 	sb	zero,5676(zero)
9d003e4c:	a0001634 	sb	zero,5684(zero)
9d003e50:	a0001634 	sb	zero,5684(zero)
9d003e54:	a000163c 	sb	zero,5692(zero)
9d003e58:	a000163c 	sb	zero,5692(zero)
9d003e5c:	a0001644 	sb	zero,5700(zero)
9d003e60:	a0001644 	sb	zero,5700(zero)
9d003e64:	a000164c 	sb	zero,5708(zero)
9d003e68:	a000164c 	sb	zero,5708(zero)
9d003e6c:	a0001654 	sb	zero,5716(zero)
9d003e70:	a0001654 	sb	zero,5716(zero)
9d003e74:	a000165c 	sb	zero,5724(zero)
9d003e78:	a000165c 	sb	zero,5724(zero)
9d003e7c:	a0001664 	sb	zero,5732(zero)
9d003e80:	a0001664 	sb	zero,5732(zero)
9d003e84:	a000166c 	sb	zero,5740(zero)
9d003e88:	a000166c 	sb	zero,5740(zero)
9d003e8c:	a0001674 	sb	zero,5748(zero)
9d003e90:	a0001674 	sb	zero,5748(zero)
9d003e94:	a000167c 	sb	zero,5756(zero)
9d003e98:	a000167c 	sb	zero,5756(zero)
9d003e9c:	a0001684 	sb	zero,5764(zero)
9d003ea0:	a0001684 	sb	zero,5764(zero)
9d003ea4:	a000168c 	sb	zero,5772(zero)
9d003ea8:	a000168c 	sb	zero,5772(zero)
9d003eac:	a0001694 	sb	zero,5780(zero)
9d003eb0:	a0001694 	sb	zero,5780(zero)
9d003eb4:	a000169c 	sb	zero,5788(zero)
9d003eb8:	a000169c 	sb	zero,5788(zero)
9d003ebc:	a00016a4 	sb	zero,5796(zero)
9d003ec0:	a00016a4 	sb	zero,5796(zero)
9d003ec4:	a00016ac 	sb	zero,5804(zero)
9d003ec8:	a00016ac 	sb	zero,5804(zero)
9d003ecc:	a00016b4 	sb	zero,5812(zero)
9d003ed0:	a00016b4 	sb	zero,5812(zero)
9d003ed4:	a00016bc 	sb	zero,5820(zero)
9d003ed8:	a00016bc 	sb	zero,5820(zero)
9d003edc:	a00016c4 	sb	zero,5828(zero)
9d003ee0:	a00016c4 	sb	zero,5828(zero)
9d003ee4:	a00016cc 	sb	zero,5836(zero)
9d003ee8:	a00016cc 	sb	zero,5836(zero)
9d003eec:	a00016d4 	sb	zero,5844(zero)
9d003ef0:	a00016d4 	sb	zero,5844(zero)
9d003ef4:	a00016dc 	sb	zero,5852(zero)
9d003ef8:	a00016dc 	sb	zero,5852(zero)
9d003efc:	a00016e4 	sb	zero,5860(zero)
9d003f00:	a00016e4 	sb	zero,5860(zero)
9d003f04:	a00016ec 	sb	zero,5868(zero)
9d003f08:	a00016ec 	sb	zero,5868(zero)
9d003f0c:	a00016f4 	sb	zero,5876(zero)
9d003f10:	a00016f4 	sb	zero,5876(zero)
9d003f14:	a00016fc 	sb	zero,5884(zero)
9d003f18:	a00016fc 	sb	zero,5884(zero)
9d003f1c:	a0001704 	sb	zero,5892(zero)
9d003f20:	a0001704 	sb	zero,5892(zero)
9d003f24:	a000170c 	sb	zero,5900(zero)
9d003f28:	a000170c 	sb	zero,5900(zero)
9d003f2c:	a0001714 	sb	zero,5908(zero)
9d003f30:	a0001714 	sb	zero,5908(zero)
9d003f34:	a000171c 	sb	zero,5916(zero)
9d003f38:	a000171c 	sb	zero,5916(zero)
9d003f3c:	a0001724 	sb	zero,5924(zero)
9d003f40:	a0001724 	sb	zero,5924(zero)
9d003f44:	a000172c 	sb	zero,5932(zero)
9d003f48:	a000172c 	sb	zero,5932(zero)
9d003f4c:	a0001734 	sb	zero,5940(zero)
9d003f50:	a0001734 	sb	zero,5940(zero)
9d003f54:	a000173c 	sb	zero,5948(zero)
9d003f58:	a000173c 	sb	zero,5948(zero)
9d003f5c:	a0001744 	sb	zero,5956(zero)
9d003f60:	a0001744 	sb	zero,5956(zero)
9d003f64:	a000174c 	sb	zero,5964(zero)
9d003f68:	a000174c 	sb	zero,5964(zero)
9d003f6c:	a0001754 	sb	zero,5972(zero)
9d003f70:	a0001754 	sb	zero,5972(zero)
9d003f74:	a000175c 	sb	zero,5980(zero)
9d003f78:	a000175c 	sb	zero,5980(zero)
9d003f7c:	a0001764 	sb	zero,5988(zero)
9d003f80:	a0001764 	sb	zero,5988(zero)
9d003f84:	a000176c 	sb	zero,5996(zero)
9d003f88:	a000176c 	sb	zero,5996(zero)
9d003f8c:	a0001774 	sb	zero,6004(zero)
9d003f90:	a0001774 	sb	zero,6004(zero)
9d003f94:	a000177c 	sb	zero,6012(zero)
9d003f98:	a000177c 	sb	zero,6012(zero)
9d003f9c:	a0001784 	sb	zero,6020(zero)
9d003fa0:	a0001784 	sb	zero,6020(zero)
9d003fa4:	a000178c 	sb	zero,6028(zero)
9d003fa8:	a000178c 	sb	zero,6028(zero)
9d003fac:	a0001794 	sb	zero,6036(zero)
9d003fb0:	a0001794 	sb	zero,6036(zero)
9d003fb4:	a000179c 	sb	zero,6044(zero)
9d003fb8:	a000179c 	sb	zero,6044(zero)
9d003fbc:	a00017a4 	sb	zero,6052(zero)
9d003fc0:	a00017a4 	sb	zero,6052(zero)
9d003fc4:	a00017ac 	sb	zero,6060(zero)
9d003fc8:	a00017ac 	sb	zero,6060(zero)
9d003fcc:	a00017b4 	sb	zero,6068(zero)
9d003fd0:	a00017b4 	sb	zero,6068(zero)
9d003fd4:	a00017bc 	sb	zero,6076(zero)
9d003fd8:	a00017bc 	sb	zero,6076(zero)
9d003fdc:	a00017c4 	sb	zero,6084(zero)
9d003fe0:	a00017c4 	sb	zero,6084(zero)
9d003fe4:	a00017cc 	sb	zero,6092(zero)
9d003fe8:	a00017cc 	sb	zero,6092(zero)
9d003fec:	a00017d4 	sb	zero,6100(zero)
9d003ff0:	a00017d4 	sb	zero,6100(zero)
9d003ff4:	a00017dc 	sb	zero,6108(zero)
9d003ff8:	a00017dc 	sb	zero,6108(zero)
9d003ffc:	a00017e4 	sb	zero,6116(zero)
9d004000:	a00017e4 	sb	zero,6116(zero)
9d004004:	a00017ec 	sb	zero,6124(zero)
9d004008:	a00017ec 	sb	zero,6124(zero)
9d00400c:	a00017f4 	sb	zero,6132(zero)
9d004010:	a00017f4 	sb	zero,6132(zero)
9d004014:	a00017fc 	sb	zero,6140(zero)
9d004018:	a00017fc 	sb	zero,6140(zero)
9d00401c:	a0001804 	sb	zero,6148(zero)
9d004020:	a0001804 	sb	zero,6148(zero)
9d004024:	a000180c 	sb	zero,6156(zero)
9d004028:	a000180c 	sb	zero,6156(zero)
9d00402c:	a0001814 	sb	zero,6164(zero)
9d004030:	a0001814 	sb	zero,6164(zero)
9d004034:	a000181c 	sb	zero,6172(zero)
9d004038:	a000181c 	sb	zero,6172(zero)
9d00403c:	a0001824 	sb	zero,6180(zero)
9d004040:	a0001824 	sb	zero,6180(zero)
9d004044:	a000182c 	sb	zero,6188(zero)
9d004048:	a000182c 	sb	zero,6188(zero)
9d00404c:	a0001834 	sb	zero,6196(zero)
9d004050:	a0001834 	sb	zero,6196(zero)
9d004054:	a000183c 	sb	zero,6204(zero)
9d004058:	a000183c 	sb	zero,6204(zero)
9d00405c:	a0001844 	sb	zero,6212(zero)
9d004060:	a0001844 	sb	zero,6212(zero)
9d004064:	a000184c 	sb	zero,6220(zero)
9d004068:	a000184c 	sb	zero,6220(zero)
9d00406c:	a0001854 	sb	zero,6228(zero)
9d004070:	a0001854 	sb	zero,6228(zero)
9d004074:	a000185c 	sb	zero,6236(zero)
9d004078:	a000185c 	sb	zero,6236(zero)
9d00407c:	a0001864 	sb	zero,6244(zero)
9d004080:	a0001864 	sb	zero,6244(zero)
9d004084:	a000186c 	sb	zero,6252(zero)
9d004088:	a000186c 	sb	zero,6252(zero)
9d00408c:	a0001874 	sb	zero,6260(zero)
9d004090:	a0001874 	sb	zero,6260(zero)
9d004094:	a000187c 	sb	zero,6268(zero)
9d004098:	a000187c 	sb	zero,6268(zero)
9d00409c:	a0001884 	sb	zero,6276(zero)
9d0040a0:	a0001884 	sb	zero,6276(zero)
9d0040a4:	a000188c 	sb	zero,6284(zero)
9d0040a8:	a000188c 	sb	zero,6284(zero)
9d0040ac:	a0001894 	sb	zero,6292(zero)
9d0040b0:	a0001894 	sb	zero,6292(zero)
9d0040b4:	a000189c 	sb	zero,6300(zero)
9d0040b8:	a000189c 	sb	zero,6300(zero)
9d0040bc:	a00018a4 	sb	zero,6308(zero)
9d0040c0:	a00018a4 	sb	zero,6308(zero)
9d0040c4:	a00018ac 	sb	zero,6316(zero)
9d0040c8:	a00018ac 	sb	zero,6316(zero)
9d0040cc:	a00018b4 	sb	zero,6324(zero)
9d0040d0:	a00018b4 	sb	zero,6324(zero)
9d0040d4:	a00018bc 	sb	zero,6332(zero)
9d0040d8:	a00018bc 	sb	zero,6332(zero)
9d0040dc:	a00018c4 	sb	zero,6340(zero)
9d0040e0:	a00018c4 	sb	zero,6340(zero)
9d0040e4:	a00018cc 	sb	zero,6348(zero)
9d0040e8:	a00018cc 	sb	zero,6348(zero)
9d0040ec:	a00018d4 	sb	zero,6356(zero)
9d0040f0:	a00018d4 	sb	zero,6356(zero)
9d0040f4:	a00018dc 	sb	zero,6364(zero)
9d0040f8:	a00018dc 	sb	zero,6364(zero)
9d0040fc:	a00018e4 	sb	zero,6372(zero)
9d004100:	a00018e4 	sb	zero,6372(zero)
9d004104:	a00018ec 	sb	zero,6380(zero)
9d004108:	a00018ec 	sb	zero,6380(zero)
9d00410c:	a00018f4 	sb	zero,6388(zero)
9d004110:	a00018f4 	sb	zero,6388(zero)
9d004114:	a00018fc 	sb	zero,6396(zero)
9d004118:	a00018fc 	sb	zero,6396(zero)
9d00411c:	a0001904 	sb	zero,6404(zero)
9d004120:	a0001904 	sb	zero,6404(zero)
9d004124:	a000190c 	sb	zero,6412(zero)
9d004128:	a000190c 	sb	zero,6412(zero)
9d00412c:	a0001914 	sb	zero,6420(zero)
9d004130:	a0001914 	sb	zero,6420(zero)
9d004134:	a000191c 	sb	zero,6428(zero)
9d004138:	a000191c 	sb	zero,6428(zero)
9d00413c:	a0001924 	sb	zero,6436(zero)
9d004140:	a0001924 	sb	zero,6436(zero)
9d004144:	a000192c 	sb	zero,6444(zero)
9d004148:	a000192c 	sb	zero,6444(zero)
9d00414c:	a0001934 	sb	zero,6452(zero)
9d004150:	a0001934 	sb	zero,6452(zero)
9d004154:	a000193c 	sb	zero,6460(zero)
9d004158:	a000193c 	sb	zero,6460(zero)
9d00415c:	a0001944 	sb	zero,6468(zero)
9d004160:	a0001944 	sb	zero,6468(zero)
9d004164:	a000194c 	sb	zero,6476(zero)
9d004168:	a000194c 	sb	zero,6476(zero)
9d00416c:	a0001954 	sb	zero,6484(zero)
9d004170:	a0001954 	sb	zero,6484(zero)
9d004174:	a000195c 	sb	zero,6492(zero)
9d004178:	a000195c 	sb	zero,6492(zero)
9d00417c:	a0001964 	sb	zero,6500(zero)
9d004180:	a0001964 	sb	zero,6500(zero)
9d004184:	a000196c 	sb	zero,6508(zero)
9d004188:	a000196c 	sb	zero,6508(zero)
9d00418c:	a0001974 	sb	zero,6516(zero)
9d004190:	a0001974 	sb	zero,6516(zero)
9d004194:	a000197c 	sb	zero,6524(zero)
9d004198:	a000197c 	sb	zero,6524(zero)
9d00419c:	a0001984 	sb	zero,6532(zero)
9d0041a0:	a0001984 	sb	zero,6532(zero)
9d0041a4:	a000198c 	sb	zero,6540(zero)
9d0041a8:	a000198c 	sb	zero,6540(zero)
9d0041ac:	a0001994 	sb	zero,6548(zero)
9d0041b0:	a0001994 	sb	zero,6548(zero)
9d0041b4:	a000199c 	sb	zero,6556(zero)
9d0041b8:	a000199c 	sb	zero,6556(zero)
9d0041bc:	a00019a4 	sb	zero,6564(zero)
9d0041c0:	a00019a4 	sb	zero,6564(zero)
9d0041c4:	a00019ac 	sb	zero,6572(zero)
9d0041c8:	a00019ac 	sb	zero,6572(zero)
9d0041cc:	a00019b4 	sb	zero,6580(zero)
9d0041d0:	a00019b4 	sb	zero,6580(zero)
9d0041d4:	a00019bc 	sb	zero,6588(zero)
9d0041d8:	a00019bc 	sb	zero,6588(zero)
9d0041dc:	a00019c4 	sb	zero,6596(zero)
9d0041e0:	a00019c4 	sb	zero,6596(zero)
9d0041e4:	a00019cc 	sb	zero,6604(zero)
9d0041e8:	a00019cc 	sb	zero,6604(zero)
9d0041ec:	a00019d4 	sb	zero,6612(zero)
9d0041f0:	a00019d4 	sb	zero,6612(zero)
9d0041f4:	a00019dc 	sb	zero,6620(zero)
9d0041f8:	a00019dc 	sb	zero,6620(zero)
9d0041fc:	a00019e4 	sb	zero,6628(zero)
9d004200:	a00019e4 	sb	zero,6628(zero)
9d004204:	a00019ec 	sb	zero,6636(zero)
9d004208:	a00019ec 	sb	zero,6636(zero)
9d00420c:	a00019f4 	sb	zero,6644(zero)
9d004210:	a00019f4 	sb	zero,6644(zero)
9d004214:	a00019fc 	sb	zero,6652(zero)
9d004218:	a00019fc 	sb	zero,6652(zero)
9d00421c:	a0001a04 	sb	zero,6660(zero)
9d004220:	a0001a04 	sb	zero,6660(zero)
9d004224:	a0001b70 	sb	zero,7024(zero)
9d004228:	00000034 	teq	zero,zero
9d00422c:	00000000 	nop
9d004230:	a0000020 	sb	zero,32(zero)
9d004234:	00000004 	sllv	zero,zero,zero
9d004238:	00000000 	nop
9d00423c:	a0001bc8 	sb	zero,7112(zero)
9d004240:	00000020 	add	zero,zero,zero
9d004244:	00000001 	movf	zero,zero,$fcc0
9d004248:	00000000 	nop
9d00424c:	ffffffff 	sdc3	$31,-1(ra)
	...
9d004268:	a0001bec 	sb	zero,7148(zero)
9d00426c:	00000004 	sllv	zero,zero,zero
9d004270:	00000000 	nop
9d004274:	a0001ba4 	sb	zero,7076(zero)
9d004278:	00000024 	and	zero,zero,zero
9d00427c:	00000000 	nop
9d004280:	a0000004 	sb	zero,4(zero)
9d004284:	00000004 	sllv	zero,zero,zero
9d004288:	00000001 	movf	zero,zero,$fcc0
9d00428c:	00000002 	srl	zero,zero,0x0
9d004290:	00000000 	nop
9d004294:	22222222 	addi	v0,s1,8738

Disassembly of section .text.realloc:

9d004298 <realloc>:
9d004298:	27bdffc8 	addiu	sp,sp,-56
9d00429c:	afbf0034 	sw	ra,52(sp)
9d0042a0:	afbe0030 	sw	s8,48(sp)
9d0042a4:	afb7002c 	sw	s7,44(sp)
9d0042a8:	afb60028 	sw	s6,40(sp)
9d0042ac:	afb50024 	sw	s5,36(sp)
9d0042b0:	afb40020 	sw	s4,32(sp)
9d0042b4:	afb3001c 	sw	s3,28(sp)
9d0042b8:	afb20018 	sw	s2,24(sp)
9d0042bc:	afb10014 	sw	s1,20(sp)
9d0042c0:	afb00010 	sw	s0,16(sp)
9d0042c4:	108000e9 	beqz	a0,9d00466c <realloc+0x3d4>
9d0042c8:	00808021 	move	s0,a0
9d0042cc:	8c94fffc 	lw	s4,-4(a0)
9d0042d0:	24a2000b 	addiu	v0,a1,11
9d0042d4:	2c430017 	sltiu	v1,v0,23
9d0042d8:	2493fff8 	addiu	s3,a0,-8
9d0042dc:	2411fffc 	li	s1,-4
9d0042e0:	10600047 	beqz	v1,9d004400 <realloc+0x168>
9d0042e4:	02918824 	and	s1,s4,s1
9d0042e8:	24030010 	li	v1,16
9d0042ec:	24120010 	li	s2,16
9d0042f0:	0245102b 	sltu	v0,s2,a1
9d0042f4:	14400046 	bnez	v0,9d004410 <realloc+0x178>
9d0042f8:	0223102a 	slt	v0,s1,v1
9d0042fc:	10400054 	beqz	v0,9d004450 <realloc+0x1b8>
9d004300:	32950001 	andi	s5,s4,0x1
9d004304:	3c17a000 	lui	s7,0xa000
9d004308:	26f7160c 	addiu	s7,s7,5644
9d00430c:	8ee40008 	lw	a0,8(s7)
9d004310:	02711021 	addu	v0,s3,s1
9d004314:	108200b9 	beq	a0,v0,9d0045fc <realloc+0x364>
9d004318:	2407fffe 	li	a3,-2
9d00431c:	8c460004 	lw	a2,4(v0)
9d004320:	00c73824 	and	a3,a2,a3
9d004324:	00473821 	addu	a3,v0,a3
9d004328:	8ce70004 	lw	a3,4(a3)
9d00432c:	30e70001 	andi	a3,a3,0x1
9d004330:	10e0005f 	beqz	a3,9d0044b0 <realloc+0x218>
9d004334:	2407fffc 	li	a3,-4
9d004338:	00003021 	move	a2,zero
9d00433c:	00001021 	move	v0,zero
9d004340:	32950001 	andi	s5,s4,0x1
9d004344:	16a00075 	bnez	s5,9d00451c <realloc+0x284>
9d004348:	2407fffc 	li	a3,-4
9d00434c:	8e16fff8 	lw	s6,-8(s0)
9d004350:	0276b023 	subu	s6,s3,s6
9d004354:	8ec80004 	lw	t0,4(s6)
9d004358:	104000cd 	beqz	v0,9d004690 <realloc+0x3f8>
9d00435c:	01073824 	and	a3,t0,a3
9d004360:	104400cd 	beq	v0,a0,9d004698 <realloc+0x400>
9d004364:	00f13821 	addu	a3,a3,s1
9d004368:	00c7b821 	addu	s7,a2,a3
9d00436c:	02e3202a 	slt	a0,s7,v1
9d004370:	54800090 	bnezl	a0,9d0045b4 <realloc+0x31c>
9d004374:	00e0b821 	move	s7,a3
9d004378:	8c43000c 	lw	v1,12(v0)
9d00437c:	8c420008 	lw	v0,8(v0)
9d004380:	2626fffc 	addiu	a2,s1,-4
9d004384:	2cc40025 	sltiu	a0,a2,37
9d004388:	ac43000c 	sw	v1,12(v0)
9d00438c:	ac620008 	sw	v0,8(v1)
9d004390:	8ec2000c 	lw	v0,12(s6)
9d004394:	8ec30008 	lw	v1,8(s6)
9d004398:	26d40008 	addiu	s4,s6,8
9d00439c:	ac62000c 	sw	v0,12(v1)
9d0043a0:	1080008e 	beqz	a0,9d0045dc <realloc+0x344>
9d0043a4:	ac430008 	sw	v1,8(v0)
9d0043a8:	2cc20014 	sltiu	v0,a2,20
9d0043ac:	14400009 	bnez	v0,9d0043d4 <realloc+0x13c>
9d0043b0:	02801821 	move	v1,s4
9d0043b4:	8e030000 	lw	v1,0(s0)
9d0043b8:	2cc2001c 	sltiu	v0,a2,28
9d0043bc:	aec30008 	sw	v1,8(s6)
9d0043c0:	8e030004 	lw	v1,4(s0)
9d0043c4:	104000ed 	beqz	v0,9d00477c <realloc+0x4e4>
9d0043c8:	aec3000c 	sw	v1,12(s6)
9d0043cc:	26c30010 	addiu	v1,s6,16
9d0043d0:	26100008 	addiu	s0,s0,8
9d0043d4:	8e020000 	lw	v0,0(s0)
9d0043d8:	02e08821 	move	s1,s7
9d0043dc:	ac620000 	sw	v0,0(v1)
9d0043e0:	8e020004 	lw	v0,4(s0)
9d0043e4:	02c09821 	move	s3,s6
9d0043e8:	ac620004 	sw	v0,4(v1)
9d0043ec:	8e020008 	lw	v0,8(s0)
9d0043f0:	ac620008 	sw	v0,8(v1)
9d0043f4:	8ed50004 	lw	s5,4(s6)
9d0043f8:	0b401115 	j	9d004454 <realloc+0x1bc>
9d0043fc:	32b50001 	andi	s5,s5,0x1
9d004400:	2412fff8 	li	s2,-8
9d004404:	00529024 	and	s2,v0,s2
9d004408:	0641ffb9 	bgez	s2,9d0042f0 <realloc+0x58>
9d00440c:	02401821 	move	v1,s2
9d004410:	2403000c 	li	v1,12
9d004414:	3c02a000 	lui	v0,0xa000
9d004418:	ac430020 	sw	v1,32(v0)
9d00441c:	00001021 	move	v0,zero
9d004420:	8fbf0034 	lw	ra,52(sp)
9d004424:	8fbe0030 	lw	s8,48(sp)
9d004428:	8fb7002c 	lw	s7,44(sp)
9d00442c:	8fb60028 	lw	s6,40(sp)
9d004430:	8fb50024 	lw	s5,36(sp)
9d004434:	8fb40020 	lw	s4,32(sp)
9d004438:	8fb3001c 	lw	s3,28(sp)
9d00443c:	8fb20018 	lw	s2,24(sp)
9d004440:	8fb10014 	lw	s1,20(sp)
9d004444:	8fb00010 	lw	s0,16(sp)
9d004448:	03e00008 	jr	ra
9d00444c:	27bd0038 	addiu	sp,sp,56
9d004450:	0200a021 	move	s4,s0
9d004454:	02321823 	subu	v1,s1,s2
9d004458:	2c650010 	sltiu	a1,v1,16
9d00445c:	10a00023 	beqz	a1,9d0044ec <realloc+0x254>
9d004460:	02722021 	addu	a0,s3,s2
9d004464:	02b1a825 	or	s5,s5,s1
9d004468:	ae750004 	sw	s5,4(s3)
9d00446c:	02718821 	addu	s1,s3,s1
9d004470:	8e220004 	lw	v0,4(s1)
9d004474:	34420001 	ori	v0,v0,0x1
9d004478:	ae220004 	sw	v0,4(s1)
9d00447c:	02801021 	move	v0,s4
9d004480:	8fbf0034 	lw	ra,52(sp)
9d004484:	8fbe0030 	lw	s8,48(sp)
9d004488:	8fb7002c 	lw	s7,44(sp)
9d00448c:	8fb60028 	lw	s6,40(sp)
9d004490:	8fb50024 	lw	s5,36(sp)
9d004494:	8fb40020 	lw	s4,32(sp)
9d004498:	8fb3001c 	lw	s3,28(sp)
9d00449c:	8fb20018 	lw	s2,24(sp)
9d0044a0:	8fb10014 	lw	s1,20(sp)
9d0044a4:	8fb00010 	lw	s0,16(sp)
9d0044a8:	03e00008 	jr	ra
9d0044ac:	27bd0038 	addiu	sp,sp,56
9d0044b0:	00c73024 	and	a2,a2,a3
9d0044b4:	00d13821 	addu	a3,a2,s1
9d0044b8:	00e3402a 	slt	t0,a3,v1
9d0044bc:	1500ffa1 	bnez	t0,9d004344 <realloc+0xac>
9d0044c0:	32950001 	andi	s5,s4,0x1
9d0044c4:	8c43000c 	lw	v1,12(v0)
9d0044c8:	8c420008 	lw	v0,8(v0)
9d0044cc:	ac43000c 	sw	v1,12(v0)
9d0044d0:	00e08821 	move	s1,a3
9d0044d4:	ac620008 	sw	v0,8(v1)
9d0044d8:	02321823 	subu	v1,s1,s2
9d0044dc:	2c650010 	sltiu	a1,v1,16
9d0044e0:	14a0ffe0 	bnez	a1,9d004464 <realloc+0x1cc>
9d0044e4:	0200a021 	move	s4,s0
9d0044e8:	02722021 	addu	a0,s3,s2
9d0044ec:	02b29025 	or	s2,s5,s2
9d0044f0:	34620001 	ori	v0,v1,0x1
9d0044f4:	ae720004 	sw	s2,4(s3)
9d0044f8:	00831821 	addu	v1,a0,v1
9d0044fc:	ac820004 	sw	v0,4(a0)
9d004500:	8c620004 	lw	v0,4(v1)
9d004504:	24840008 	addiu	a0,a0,8
9d004508:	34420001 	ori	v0,v0,0x1
9d00450c:	0f401d62 	jal	9d007588 <free>
9d004510:	ac620004 	sw	v0,4(v1)
9d004514:	0b401120 	j	9d004480 <realloc+0x1e8>
9d004518:	02801021 	move	v0,s4
9d00451c:	0f400d2a 	jal	9d0034a8 <malloc>
9d004520:	00a02021 	move	a0,a1
9d004524:	104000b0 	beqz	v0,9d0047e8 <realloc+0x550>
9d004528:	0040b021 	move	s6,v0
9d00452c:	2402fffe 	li	v0,-2
9d004530:	0282a024 	and	s4,s4,v0
9d004534:	26c2fff8 	addiu	v0,s6,-8
9d004538:	0274a021 	addu	s4,s3,s4
9d00453c:	10540089 	beq	v0,s4,9d004764 <realloc+0x4cc>
9d004540:	2626fffc 	addiu	a2,s1,-4
9d004544:	2cc20025 	sltiu	v0,a2,37
9d004548:	1040004c 	beqz	v0,9d00467c <realloc+0x3e4>
9d00454c:	2cc20014 	sltiu	v0,a2,20
9d004550:	50400034 	beqzl	v0,9d004624 <realloc+0x38c>
9d004554:	8e040000 	lw	a0,0(s0)
9d004558:	02c01021 	move	v0,s6
9d00455c:	02001821 	move	v1,s0
9d004560:	8c650000 	lw	a1,0(v1)
9d004564:	8c640004 	lw	a0,4(v1)
9d004568:	8c630008 	lw	v1,8(v1)
9d00456c:	ac450000 	sw	a1,0(v0)
9d004570:	ac440004 	sw	a0,4(v0)
9d004574:	ac430008 	sw	v1,8(v0)
9d004578:	0f401d62 	jal	9d007588 <free>
9d00457c:	02002021 	move	a0,s0
9d004580:	02c01021 	move	v0,s6
9d004584:	8fbf0034 	lw	ra,52(sp)
9d004588:	8fbe0030 	lw	s8,48(sp)
9d00458c:	8fb7002c 	lw	s7,44(sp)
9d004590:	8fb60028 	lw	s6,40(sp)
9d004594:	8fb50024 	lw	s5,36(sp)
9d004598:	8fb40020 	lw	s4,32(sp)
9d00459c:	8fb3001c 	lw	s3,28(sp)
9d0045a0:	8fb20018 	lw	s2,24(sp)
9d0045a4:	8fb10014 	lw	s1,20(sp)
9d0045a8:	8fb00010 	lw	s0,16(sp)
9d0045ac:	03e00008 	jr	ra
9d0045b0:	27bd0038 	addiu	sp,sp,56
9d0045b4:	02e3182a 	slt	v1,s7,v1
9d0045b8:	1460ffd8 	bnez	v1,9d00451c <realloc+0x284>
9d0045bc:	2626fffc 	addiu	a2,s1,-4
9d0045c0:	8ec2000c 	lw	v0,12(s6)
9d0045c4:	8ec30008 	lw	v1,8(s6)
9d0045c8:	2cc40025 	sltiu	a0,a2,37
9d0045cc:	ac62000c 	sw	v0,12(v1)
9d0045d0:	26d40008 	addiu	s4,s6,8
9d0045d4:	1480ff74 	bnez	a0,9d0043a8 <realloc+0x110>
9d0045d8:	ac430008 	sw	v1,8(v0)
9d0045dc:	02802021 	move	a0,s4
9d0045e0:	0f40270a 	jal	9d009c28 <memmove>
9d0045e4:	02002821 	move	a1,s0
9d0045e8:	8ed50004 	lw	s5,4(s6)
9d0045ec:	02e08821 	move	s1,s7
9d0045f0:	32b50001 	andi	s5,s5,0x1
9d0045f4:	0b401115 	j	9d004454 <realloc+0x1bc>
9d0045f8:	02c09821 	move	s3,s6
9d0045fc:	8c860004 	lw	a2,4(a0)
9d004600:	26470010 	addiu	a3,s2,16
9d004604:	2402fffc 	li	v0,-4
9d004608:	00c23024 	and	a2,a2,v0
9d00460c:	00d11021 	addu	v0,a2,s1
9d004610:	0047382a 	slt	a3,v0,a3
9d004614:	50e0000b 	beqzl	a3,9d004644 <realloc+0x3ac>
9d004618:	00521023 	subu	v0,v0,s2
9d00461c:	0b4010d0 	j	9d004340 <realloc+0xa8>
9d004620:	00801021 	move	v0,a0
9d004624:	8e030004 	lw	v1,4(s0)
9d004628:	2cc2001c 	sltiu	v0,a2,28
9d00462c:	aec40000 	sw	a0,0(s6)
9d004630:	10400042 	beqz	v0,9d00473c <realloc+0x4a4>
9d004634:	aec30004 	sw	v1,4(s6)
9d004638:	26c20008 	addiu	v0,s6,8
9d00463c:	0b401158 	j	9d004560 <realloc+0x2c8>
9d004640:	26030008 	addiu	v1,s0,8
9d004644:	02729821 	addu	s3,s3,s2
9d004648:	34420001 	ori	v0,v0,0x1
9d00464c:	aef30008 	sw	s3,8(s7)
9d004650:	ae620004 	sw	v0,4(s3)
9d004654:	8e03fffc 	lw	v1,-4(s0)
9d004658:	02001021 	move	v0,s0
9d00465c:	30630001 	andi	v1,v1,0x1
9d004660:	02439025 	or	s2,s2,v1
9d004664:	0b401120 	j	9d004480 <realloc+0x1e8>
9d004668:	ae12fffc 	sw	s2,-4(s0)
9d00466c:	0f400d2a 	jal	9d0034a8 <malloc>
9d004670:	00a02021 	move	a0,a1
9d004674:	0b401121 	j	9d004484 <realloc+0x1ec>
9d004678:	8fbf0034 	lw	ra,52(sp)
9d00467c:	02c02021 	move	a0,s6
9d004680:	0f40270a 	jal	9d009c28 <memmove>
9d004684:	02002821 	move	a1,s0
9d004688:	0b40115e 	j	9d004578 <realloc+0x2e0>
9d00468c:	00000000 	nop
9d004690:	0b40116d 	j	9d0045b4 <realloc+0x31c>
9d004694:	00f1b821 	addu	s7,a3,s1
9d004698:	00c7f021 	addu	s8,a2,a3
9d00469c:	26420010 	addiu	v0,s2,16
9d0046a0:	03c2102a 	slt	v0,s8,v0
9d0046a4:	5440ffc3 	bnezl	v0,9d0045b4 <realloc+0x31c>
9d0046a8:	00e0b821 	move	s7,a3
9d0046ac:	8ec3000c 	lw	v1,12(s6)
9d0046b0:	8ec50008 	lw	a1,8(s6)
9d0046b4:	2626fffc 	addiu	a2,s1,-4
9d0046b8:	2cc20025 	sltiu	v0,a2,37
9d0046bc:	aca3000c 	sw	v1,12(a1)
9d0046c0:	26c70008 	addiu	a3,s6,8
9d0046c4:	10400043 	beqz	v0,9d0047d4 <realloc+0x53c>
9d0046c8:	ac650008 	sw	a1,8(v1)
9d0046cc:	2cc20014 	sltiu	v0,a2,20
9d0046d0:	14400009 	bnez	v0,9d0046f8 <realloc+0x460>
9d0046d4:	00e01821 	move	v1,a3
9d0046d8:	8e030000 	lw	v1,0(s0)
9d0046dc:	2cc2001c 	sltiu	v0,a2,28
9d0046e0:	aec30008 	sw	v1,8(s6)
9d0046e4:	8e030004 	lw	v1,4(s0)
9d0046e8:	10400041 	beqz	v0,9d0047f0 <realloc+0x558>
9d0046ec:	aec3000c 	sw	v1,12(s6)
9d0046f0:	26c30010 	addiu	v1,s6,16
9d0046f4:	26100008 	addiu	s0,s0,8
9d0046f8:	8e020000 	lw	v0,0(s0)
9d0046fc:	ac620000 	sw	v0,0(v1)
9d004700:	8e020004 	lw	v0,4(s0)
9d004704:	ac620004 	sw	v0,4(v1)
9d004708:	8e020008 	lw	v0,8(s0)
9d00470c:	ac620008 	sw	v0,8(v1)
9d004710:	03d21023 	subu	v0,s8,s2
9d004714:	02d21821 	addu	v1,s6,s2
9d004718:	34420001 	ori	v0,v0,0x1
9d00471c:	aee30008 	sw	v1,8(s7)
9d004720:	ac620004 	sw	v0,4(v1)
9d004724:	8ec30004 	lw	v1,4(s6)
9d004728:	00e01021 	move	v0,a3
9d00472c:	30630001 	andi	v1,v1,0x1
9d004730:	02439025 	or	s2,s2,v1
9d004734:	0b401120 	j	9d004480 <realloc+0x1e8>
9d004738:	aed20004 	sw	s2,4(s6)
9d00473c:	8e030008 	lw	v1,8(s0)
9d004740:	8e02000c 	lw	v0,12(s0)
9d004744:	aec30008 	sw	v1,8(s6)
9d004748:	aec2000c 	sw	v0,12(s6)
9d00474c:	24020024 	li	v0,36
9d004750:	50c20014 	beql	a2,v0,9d0047a4 <realloc+0x50c>
9d004754:	8e030010 	lw	v1,16(s0)
9d004758:	26c20010 	addiu	v0,s6,16
9d00475c:	0b401158 	j	9d004560 <realloc+0x2c8>
9d004760:	26030010 	addiu	v1,s0,16
9d004764:	8ec3fffc 	lw	v1,-4(s6)
9d004768:	0200a021 	move	s4,s0
9d00476c:	2402fffc 	li	v0,-4
9d004770:	00621024 	and	v0,v1,v0
9d004774:	0b401115 	j	9d004454 <realloc+0x1bc>
9d004778:	02228821 	addu	s1,s1,v0
9d00477c:	8e020008 	lw	v0,8(s0)
9d004780:	aec20010 	sw	v0,16(s6)
9d004784:	8e02000c 	lw	v0,12(s0)
9d004788:	aec20014 	sw	v0,20(s6)
9d00478c:	24020024 	li	v0,36
9d004790:	50c2000a 	beql	a2,v0,9d0047bc <realloc+0x524>
9d004794:	8e020010 	lw	v0,16(s0)
9d004798:	26c30018 	addiu	v1,s6,24
9d00479c:	0b4010f5 	j	9d0043d4 <realloc+0x13c>
9d0047a0:	26100010 	addiu	s0,s0,16
9d0047a4:	8e040014 	lw	a0,20(s0)
9d0047a8:	26c20018 	addiu	v0,s6,24
9d0047ac:	aec30010 	sw	v1,16(s6)
9d0047b0:	26030018 	addiu	v1,s0,24
9d0047b4:	0b401158 	j	9d004560 <realloc+0x2c8>
9d0047b8:	aec40014 	sw	a0,20(s6)
9d0047bc:	26c30020 	addiu	v1,s6,32
9d0047c0:	aec20018 	sw	v0,24(s6)
9d0047c4:	8e020014 	lw	v0,20(s0)
9d0047c8:	26100018 	addiu	s0,s0,24
9d0047cc:	0b4010f5 	j	9d0043d4 <realloc+0x13c>
9d0047d0:	aec2001c 	sw	v0,28(s6)
9d0047d4:	00e02021 	move	a0,a3
9d0047d8:	0f40270a 	jal	9d009c28 <memmove>
9d0047dc:	02002821 	move	a1,s0
9d0047e0:	0b4011c4 	j	9d004710 <realloc+0x478>
9d0047e4:	00403821 	move	a3,v0
9d0047e8:	0b401120 	j	9d004480 <realloc+0x1e8>
9d0047ec:	00001021 	move	v0,zero
9d0047f0:	8e020008 	lw	v0,8(s0)
9d0047f4:	aec20010 	sw	v0,16(s6)
9d0047f8:	8e02000c 	lw	v0,12(s0)
9d0047fc:	aec20014 	sw	v0,20(s6)
9d004800:	24020024 	li	v0,36
9d004804:	50c20004 	beql	a2,v0,9d004818 <realloc+0x580>
9d004808:	8e020010 	lw	v0,16(s0)
9d00480c:	26c30018 	addiu	v1,s6,24
9d004810:	0b4011be 	j	9d0046f8 <realloc+0x460>
9d004814:	26100010 	addiu	s0,s0,16
9d004818:	26c30020 	addiu	v1,s6,32
9d00481c:	aec20018 	sw	v0,24(s6)
9d004820:	8e020014 	lw	v0,20(s0)
9d004824:	26100018 	addiu	s0,s0,24
9d004828:	0b4011be 	j	9d0046f8 <realloc+0x460>
9d00482c:	aec2001c 	sw	v0,28(s6)

Disassembly of section .text.dp32mul:

9d004830 <__divdf3>:
9d004830:	00055040 000a5542 00054ac0 00047d42     @P..BU...J..B}..
9d004840:	012f4825 000442c0 3c0e8000 012e4825     %H/..B.....<%H..
9d004850:	00076840 000d6d42 000762c0 00067d42     @h..Bm...b..B}..
9d004860:	018f6025 00065ac0 018e6025 00a72826     %`...Z..%`..&(..
9d004870:	00ae2824 254fffff 2de107fe 102000cb     $(....O%...-.. .
9d004880:	00000000                                ....

9d004884 <Dlab1>:
9d004884:	25afffff 	addiu	t7,t5,-1
9d004888:	2de107fe 	sltiu	at,t7,2046
9d00488c:	102000f4 	beqz	at,9d004c60 <DspecB>
9d004890:	00000000 	nop

9d004894 <Dlab2>:
9d004894:	014d5023 	subu	t2,t2,t5
9d004898:	254a03ff 	addiu	t2,t2,1023
9d00489c:	00084042 	srl	t0,t0,0x1
9d0048a0:	00097fc0 	sll	t7,t1,0x1f
9d0048a4:	010f4025 	or	t0,t0,t7
9d0048a8:	00094842 	srl	t1,t1,0x1
9d0048ac:	000c3c02 	srl	a3,t4,0x10
9d0048b0:	00e001f4 	teq	a3,zero,0x7
9d0048b4:	0127001b 	divu	zero,t1,a3
9d0048b8:	00007012 	mflo	t6
9d0048bc:	00004810 	mfhi	t1
9d0048c0:	3186ffff 	andi	a2,t4,0xffff
9d0048c4:	00ce0019 	multu	a2,t6
9d0048c8:	00002012 	mflo	a0
9d0048cc:	00094c00 	sll	t1,t1,0x10
9d0048d0:	00087c02 	srl	t7,t0,0x10
9d0048d4:	012f4825 	or	t1,t1,t7
9d0048d8:	0124782b 	sltu	t7,t1,a0
9d0048dc:	11e00006 	beqz	t7,9d0048f8 <i20>
9d0048e0:	01244823 	subu	t1,t1,a0

9d0048e4 <b21>:
9d0048e4:	25ceffff 	addiu	t6,t6,-1
9d0048e8:	012c4821 	addu	t1,t1,t4
9d0048ec:	012c082b 	sltu	at,t1,t4
9d0048f0:	1020fffc 	beqz	at,9d0048e4 <b21>
9d0048f4:	00000000 	nop

9d0048f8 <i20>:
9d0048f8:	00e001f4 	teq	a3,zero,0x7
9d0048fc:	0127001b 	divu	zero,t1,a3
9d004900:	00003812 	mflo	a3
9d004904:	00004810 	mfhi	t1
9d004908:	00c70019 	multu	a2,a3
9d00490c:	00002012 	mflo	a0
9d004910:	00094c00 	sll	t1,t1,0x10
9d004914:	310fffff 	andi	t7,t0,0xffff
9d004918:	012f4825 	or	t1,t1,t7
9d00491c:	0124782b 	sltu	t7,t1,a0
9d004920:	11e00006 	beqz	t7,9d00493c <i22>
9d004924:	01244823 	subu	t1,t1,a0

9d004928 <b23>:
9d004928:	24e7ffff 	addiu	a3,a3,-1
9d00492c:	012c4821 	addu	t1,t1,t4
9d004930:	012c082b 	sltu	at,t1,t4
9d004934:	1020fffc 	beqz	at,9d004928 <b23>
9d004938:	00000000 	nop

9d00493c <i22>:
9d00493c:	000e7400 	sll	t6,t6,0x10
9d004940:	01c77021 	addu	t6,t6,a3
9d004944:	01cb0019 	multu	t6,t3
9d004948:	00003812 	mflo	a3
9d00494c:	00002010 	mfhi	a0
9d004950:	24080000 	li	t0,0
9d004954:	0107782b 	sltu	t7,t0,a3
9d004958:	01074023 	subu	t0,t0,a3
9d00495c:	012f102b 	sltu	v0,t1,t7
9d004960:	012f4823 	subu	t1,t1,t7
9d004964:	0124782b 	sltu	t7,t1,a0
9d004968:	01e27825 	or	t7,t7,v0
9d00496c:	11e0000b 	beqz	t7,9d00499c <i24>
9d004970:	01244823 	subu	t1,t1,a0

9d004974 <Dlab3>:
9d004974:	25ceffff 	addiu	t6,t6,-1
9d004978:	010b4021 	addu	t0,t0,t3
9d00497c:	010b782b 	sltu	t7,t0,t3
9d004980:	012c4821 	addu	t1,t1,t4
9d004984:	012f4821 	addu	t1,t1,t7
9d004988:	112c0002 	beq	t1,t4,9d004994 <L31>
9d00498c:	00000000 	nop
9d004990:	012c782b 	sltu	t7,t1,t4

9d004994 <L31>:
9d004994:	11e0fff7 	beqz	t7,9d004974 <Dlab3>
9d004998:	00000000 	nop

9d00499c <i24>:
9d00499c:	152c0006 	bne	t1,t4,9d0049b8 <i25>
9d0049a0:	00000000 	nop
9d0049a4:	000b2025 	or	a0,zero,t3
9d0049a8:	00084825 	or	t1,zero,t0
9d0049ac:	240d0000 	li	t5,0
9d0049b0:	1000002a 	b	9d004a5c <e25>
9d0049b4:	000d3825 	or	a3,zero,t5

9d0049b8 <i25>:
9d0049b8:	000c3c02 	srl	a3,t4,0x10
9d0049bc:	00e001f4 	teq	a3,zero,0x7
9d0049c0:	0127001b 	divu	zero,t1,a3
9d0049c4:	00006812 	mflo	t5
9d0049c8:	00004810 	mfhi	t1
9d0049cc:	3186ffff 	andi	a2,t4,0xffff
9d0049d0:	00cd0019 	multu	a2,t5
9d0049d4:	00002012 	mflo	a0
9d0049d8:	00094c00 	sll	t1,t1,0x10
9d0049dc:	00087c02 	srl	t7,t0,0x10
9d0049e0:	012f4825 	or	t1,t1,t7
9d0049e4:	0124782b 	sltu	t7,t1,a0
9d0049e8:	11e00006 	beqz	t7,9d004a04 <i26>
9d0049ec:	01244823 	subu	t1,t1,a0

9d0049f0 <b27>:
9d0049f0:	25adffff 	addiu	t5,t5,-1
9d0049f4:	012c4821 	addu	t1,t1,t4
9d0049f8:	012c082b 	sltu	at,t1,t4
9d0049fc:	1020fffc 	beqz	at,9d0049f0 <b27>
9d004a00:	00000000 	nop

9d004a04 <i26>:
9d004a04:	00e001f4 	teq	a3,zero,0x7
9d004a08:	0127001b 	divu	zero,t1,a3
9d004a0c:	00003812 	mflo	a3
9d004a10:	00004810 	mfhi	t1
9d004a14:	00c70019 	multu	a2,a3
9d004a18:	00002012 	mflo	a0
9d004a1c:	00094c00 	sll	t1,t1,0x10
9d004a20:	310fffff 	andi	t7,t0,0xffff
9d004a24:	012f4825 	or	t1,t1,t7
9d004a28:	0124782b 	sltu	t7,t1,a0
9d004a2c:	11e00006 	beqz	t7,9d004a48 <i28>
9d004a30:	01244823 	subu	t1,t1,a0

9d004a34 <b29>:
9d004a34:	24e7ffff 	addiu	a3,a3,-1
9d004a38:	012c4821 	addu	t1,t1,t4
9d004a3c:	012c082b 	sltu	at,t1,t4
9d004a40:	1020fffc 	beqz	at,9d004a34 <b29>
9d004a44:	00000000 	nop

9d004a48 <i28>:
9d004a48:	000d6c00 	sll	t5,t5,0x10
9d004a4c:	01a76821 	addu	t5,t5,a3
9d004a50:	01ab0019 	multu	t5,t3
9d004a54:	00003812 	mflo	a3
9d004a58:	00002010 	mfhi	a0

9d004a5c <e25>:
9d004a5c:	24080000 	li	t0,0
9d004a60:	0107782b 	sltu	t7,t0,a3
9d004a64:	01074023 	subu	t0,t0,a3
9d004a68:	012f102b 	sltu	v0,t1,t7
9d004a6c:	012f4823 	subu	t1,t1,t7
9d004a70:	0124782b 	sltu	t7,t1,a0
9d004a74:	01e27825 	or	t7,t7,v0
9d004a78:	11e0000b 	beqz	t7,9d004aa8 <i30>
9d004a7c:	01244823 	subu	t1,t1,a0

9d004a80 <Dlab4>:
9d004a80:	25adffff 	addiu	t5,t5,-1
9d004a84:	010b4021 	addu	t0,t0,t3
9d004a88:	010b782b 	sltu	t7,t0,t3
9d004a8c:	012c4821 	addu	t1,t1,t4
9d004a90:	012f4821 	addu	t1,t1,t7
9d004a94:	112c0002 	beq	t1,t4,9d004aa0 <L32>
9d004a98:	00000000 	nop
9d004a9c:	012c782b 	sltu	t7,t1,t4

9d004aa0 <L32>:
9d004aa0:	11e0fff7 	beqz	t7,9d004a80 <Dlab4>
9d004aa4:	00000000 	nop

9d004aa8 <i30>:
9d004aa8:	05c00006 	bltz	t6,9d004ac4 <i31>
9d004aac:	00000000 	nop
9d004ab0:	01a0782a 	slt	t7,t5,zero
9d004ab4:	01ad6821 	addu	t5,t5,t5
9d004ab8:	01ce7021 	addu	t6,t6,t6
9d004abc:	01cf7021 	addu	t6,t6,t7
9d004ac0:	254affff 	addiu	t2,t2,-1

9d004ac4 <i31>:
9d004ac4:	01287825 	or	t7,t1,t0
9d004ac8:	11e00002 	beqz	t7,9d004ad4 <i32>
9d004acc:	00000000 	nop
9d004ad0:	35ad0001 	ori	t5,t5,0x1

9d004ad4 <i32>:
9d004ad4:	000e4825 	or	t1,zero,t6
9d004ad8:	000d4025 	or	t0,zero,t5
9d004adc:	254fffff 	addiu	t7,t2,-1
9d004ae0:	2de107fe 	sltiu	at,t7,2046
9d004ae4:	10200015 	beqz	at,9d004b3c <Doveund>
9d004ae8:	00000000 	nop
9d004aec:	25080400 	addiu	t0,t0,1024
9d004af0:	2d0f0400 	sltiu	t7,t0,1024
9d004af4:	012f4821 	addu	t1,t1,t7
9d004af8:	012f782b 	sltu	t7,t1,t7
9d004afc:	014f5021 	addu	t2,t2,t7

9d004b00 <Dlab8>:
9d004b00:	00087ac2 	srl	t7,t0,0xb
9d004b04:	31ef0001 	andi	t7,t7,0x1
9d004b08:	010f4023 	subu	t0,t0,t7
9d004b0c:	000822c2 	srl	a0,t0,0xb
9d004b10:	00097d40 	sll	t7,t1,0x15
9d004b14:	008f2025 	or	a0,a0,t7
9d004b18:	00097840 	sll	t7,t1,0x1
9d004b1c:	000f7b02 	srl	t7,t7,0xc
9d004b20:	00af2825 	or	a1,a1,t7
9d004b24:	000a7d00 	sll	t7,t2,0x14
9d004b28:	00af2825 	or	a1,a1,t7

9d004b2c <Dret>:
9d004b2c:	00041025 	or	v0,zero,a0
9d004b30:	00051825 	or	v1,zero,a1

9d004b34 <D999>:
9d004b34:	03e00008 	jr	ra
9d004b38:	00000000 	nop

9d004b3c <Doveund>:
9d004b3c:	1d400044 	bgtz	t2,9d004c50 <Dinf>
9d004b40:	00000000 	nop
9d004b44:	240e0001 	li	t6,1
9d004b48:	01ca7023 	subu	t6,t6,t2

9d004b4c <L33>:
9d004b4c:	2dc10020 	sltiu	at,t6,32
9d004b50:	14200007 	bnez	at,9d004b70 <L34>
9d004b54:	00000000 	nop
9d004b58:	21ceffe0 	addi	t6,t6,-32
9d004b5c:	0008202b 	sltu	a0,zero,t0
9d004b60:	1009000d 	beq	zero,t1,9d004b98 <L35>
9d004b64:	01244025 	or	t0,t1,a0
9d004b68:	1000fff8 	b	9d004b4c <L33>
9d004b6c:	34090000 	li	t1,0x0

9d004b70 <L34>:
9d004b70:	11c00009 	beqz	t6,9d004b98 <L35>
9d004b74:	00000000 	nop
9d004b78:	000e3022 	neg	a2,t6
9d004b7c:	00c82004 	sllv	a0,t0,a2
9d004b80:	00c93004 	sllv	a2,t1,a2
9d004b84:	01c84006 	srlv	t0,t0,t6
9d004b88:	01c94806 	srlv	t1,t1,t6
9d004b8c:	10800002 	beqz	a0,9d004b98 <L35>
9d004b90:	00c84025 	or	t0,a2,t0
9d004b94:	35080002 	ori	t0,t0,0x2

9d004b98 <L35>:
9d004b98:	25080400 	addiu	t0,t0,1024
9d004b9c:	2d0f0400 	sltiu	t7,t0,1024
9d004ba0:	012f4821 	addu	t1,t1,t7
9d004ba4:	1000ffd6 	b	9d004b00 <Dlab8>
9d004ba8:	000957c2 	srl	t2,t1,0x1f

9d004bac <DspecA>:
9d004bac:	0100782a 	slt	t7,t0,zero
9d004bb0:	01084021 	addu	t0,t0,t0
9d004bb4:	01294821 	addu	t1,t1,t1
9d004bb8:	15400017 	bnez	t2,9d004c18 <i33>
9d004bbc:	012f4821 	addu	t1,t1,t7
9d004bc0:	01287825 	or	t7,t1,t0
9d004bc4:	11e00014 	beqz	t7,9d004c18 <i33>
9d004bc8:	00000000 	nop
9d004bcc:	15200008 	bnez	t1,9d004bf0 <L36>
9d004bd0:	00000000 	nop
9d004bd4:	15000003 	bnez	t0,9d004be4 <L37>
9d004bd8:	00000000 	nop
9d004bdc:	1000ff29 	b	9d004884 <Dlab1>
9d004be0:	240a0000 	li	t2,0

9d004be4 <L37>:
9d004be4:	01004825 	move	t1,t0
9d004be8:	24080000 	li	t0,0
9d004bec:	254affe0 	addiu	t2,t2,-32

9d004bf0 <L36>:
9d004bf0:	712e7020 	clz	t6,t1
9d004bf4:	11c0ff23 	beqz	t6,9d004884 <Dlab1>
9d004bf8:	00000000 	nop
9d004bfc:	014e5023 	subu	t2,t2,t6
9d004c00:	000e3022 	neg	a2,t6
9d004c04:	00c83006 	srlv	a2,t0,a2
9d004c08:	01c84004 	sllv	t0,t0,t6
9d004c0c:	01c94804 	sllv	t1,t1,t6
9d004c10:	1000ff1c 	b	9d004884 <Dlab1>
9d004c14:	01264825 	or	t1,t1,a2

9d004c18 <i33>:
9d004c18:	154d0005 	bne	t2,t5,9d004c30 <i35>
9d004c1c:	00000000 	nop
9d004c20:	000c7840 	sll	t7,t4,0x1
9d004c24:	01eb7825 	or	t7,t7,t3
9d004c28:	11e0002b 	beqz	t7,9d004cd8 <Dnan>
9d004c2c:	00000000 	nop

9d004c30 <i35>:
9d004c30:	240107ff 	li	at,2047
9d004c34:	11a1000a 	beq	t5,at,9d004c60 <DspecB>
9d004c38:	00000000 	nop
9d004c3c:	1140ffbb 	beqz	t2,9d004b2c <Dret>
9d004c40:	00000000 	nop
9d004c44:	01287825 	or	t7,t1,t0
9d004c48:	15e00023 	bnez	t7,9d004cd8 <Dnan>
9d004c4c:	00000000 	nop

9d004c50 <Dinf>:
9d004c50:	3c017ff0 	lui	at,0x7ff0
9d004c54:	00a12825 	or	a1,a1,at
9d004c58:	1000ffb4 	b	9d004b2c <Dret>
9d004c5c:	24040000 	li	a0,0

9d004c60 <DspecB>:
9d004c60:	0160782a 	slt	t7,t3,zero
9d004c64:	016b5821 	addu	t3,t3,t3
9d004c68:	018c6021 	addu	t4,t4,t4
9d004c6c:	15a00017 	bnez	t5,9d004ccc <i36>
9d004c70:	018f6021 	addu	t4,t4,t7
9d004c74:	018b7825 	or	t7,t4,t3
9d004c78:	11e0fff5 	beqz	t7,9d004c50 <Dinf>
9d004c7c:	00000000 	nop
9d004c80:	15800008 	bnez	t4,9d004ca4 <L39>
9d004c84:	00000000 	nop
9d004c88:	15600003 	bnez	t3,9d004c98 <L40>
9d004c8c:	00000000 	nop
9d004c90:	1000ff00 	b	9d004894 <Dlab2>
9d004c94:	240d0000 	li	t5,0

9d004c98 <L40>:
9d004c98:	01606025 	move	t4,t3
9d004c9c:	240b0000 	li	t3,0
9d004ca0:	25adffe0 	addiu	t5,t5,-32

9d004ca4 <L39>:
9d004ca4:	718e7020 	clz	t6,t4
9d004ca8:	11c0fefa 	beqz	t6,9d004894 <Dlab2>
9d004cac:	00000000 	nop
9d004cb0:	01ae6823 	subu	t5,t5,t6
9d004cb4:	000e3022 	neg	a2,t6
9d004cb8:	00cb3006 	srlv	a2,t3,a2
9d004cbc:	01cb5804 	sllv	t3,t3,t6
9d004cc0:	01cc6004 	sllv	t4,t4,t6
9d004cc4:	1000fef3 	b	9d004894 <Dlab2>
9d004cc8:	01866025 	or	t4,t4,a2

9d004ccc <i36>:
9d004ccc:	018b7825 	or	t7,t4,t3
9d004cd0:	11e00002 	beqz	t7,9d004cdc <i38>
9d004cd4:	00000000 	nop

9d004cd8 <Dnan>:
9d004cd8:	3c05fff8 	lui	a1,0xfff8

9d004cdc <i38>:
9d004cdc:	1000ff93 	b	9d004b2c <Dret>
9d004ce0:	24040000 	li	a0,0
9d004ce4:	00000000 	nop

Disassembly of section .text:

9d004ce8 <__divdi3>:
9d004ce8:	04a00052 	bltz	a1,9d004e34 <__divdi3+0x14c>
9d004cec:	00004821 	move	t1,zero
9d004cf0:	04e20057 	bltzl	a3,9d004e50 <__divdi3+0x168>
9d004cf4:	00063023 	negu	a2,a2
9d004cf8:	00c04021 	move	t0,a2
9d004cfc:	00805021 	move	t2,a0
9d004d00:	14e00046 	bnez	a3,9d004e1c <__divdi3+0x134>
9d004d04:	00a01821 	move	v1,a1
9d004d08:	00a6102b 	sltu	v0,a1,a2
9d004d0c:	1040005d 	beqz	v0,9d004e84 <__divdi3+0x19c>
9d004d10:	70c21020 	clz	v0,a2
9d004d14:	50400008 	beqzl	v0,9d004d38 <__divdi3+0x50>
9d004d18:	00082c02 	srl	a1,t0,0x10
9d004d1c:	00022023 	negu	a0,v0
9d004d20:	008a2006 	srlv	a0,t2,a0
9d004d24:	00451804 	sllv	v1,a1,v0
9d004d28:	00464004 	sllv	t0,a2,v0
9d004d2c:	00831825 	or	v1,a0,v1
9d004d30:	004a5004 	sllv	t2,t2,v0
9d004d34:	00082c02 	srl	a1,t0,0x10
9d004d38:	0065001b 	divu	zero,v1,a1
9d004d3c:	00a001f4 	teq	a1,zero,0x7
9d004d40:	00006010 	mfhi	t4
9d004d44:	00005812 	mflo	t3
9d004d48:	3107ffff 	andi	a3,t0,0xffff
9d004d4c:	000a2402 	srl	a0,t2,0x10
9d004d50:	00001012 	mflo	v0
9d004d54:	71673002 	mul	a2,t3,a3
9d004d58:	000c6400 	sll	t4,t4,0x10
9d004d5c:	01842025 	or	a0,t4,a0
9d004d60:	0086602b 	sltu	t4,a0,a2
9d004d64:	0065001b 	divu	zero,v1,a1
9d004d68:	00a001f4 	teq	a1,zero,0x7
9d004d6c:	1180000b 	beqz	t4,9d004d9c <__divdi3+0xb4>
9d004d70:	00861823 	subu	v1,a0,a2
9d004d74:	00882021 	addu	a0,a0,t0
9d004d78:	0088182b 	sltu	v1,a0,t0
9d004d7c:	14600006 	bnez	v1,9d004d98 <__divdi3+0xb0>
9d004d80:	2562ffff 	addiu	v0,t3,-1
9d004d84:	0086182b 	sltu	v1,a0,a2
9d004d88:	10600004 	beqz	v1,9d004d9c <__divdi3+0xb4>
9d004d8c:	00861823 	subu	v1,a0,a2
9d004d90:	2562fffe 	addiu	v0,t3,-2
9d004d94:	00882021 	addu	a0,a0,t0
9d004d98:	00861823 	subu	v1,a0,a2
9d004d9c:	314affff 	andi	t2,t2,0xffff
9d004da0:	0065001b 	divu	zero,v1,a1
9d004da4:	00a001f4 	teq	a1,zero,0x7
9d004da8:	00005810 	mfhi	t3
9d004dac:	00003012 	mflo	a2
9d004db0:	00002012 	mflo	a0
9d004db4:	70c73802 	mul	a3,a2,a3
9d004db8:	000b5c00 	sll	t3,t3,0x10
9d004dbc:	016a5025 	or	t2,t3,t2
9d004dc0:	0147582b 	sltu	t3,t2,a3
9d004dc4:	0065001b 	divu	zero,v1,a1
9d004dc8:	00a001f4 	teq	a1,zero,0x7
9d004dcc:	51600009 	beqzl	t3,9d004df4 <__divdi3+0x10c>
9d004dd0:	00021400 	sll	v0,v0,0x10
9d004dd4:	01485021 	addu	t2,t2,t0
9d004dd8:	0148402b 	sltu	t0,t2,t0
9d004ddc:	15000004 	bnez	t0,9d004df0 <__divdi3+0x108>
9d004de0:	24c4ffff 	addiu	a0,a2,-1
9d004de4:	0147382b 	sltu	a3,t2,a3
9d004de8:	24c6fffe 	addiu	a2,a2,-2
9d004dec:	00c7200b 	movn	a0,a2,a3
9d004df0:	00021400 	sll	v0,v0,0x10
9d004df4:	00821025 	or	v0,a0,v0
9d004df8:	00001821 	move	v1,zero
9d004dfc:	11200005 	beqz	t1,9d004e14 <__divdi3+0x12c>
9d004e00:	00000000 	nop
9d004e04:	00021023 	negu	v0,v0
9d004e08:	0002202b 	sltu	a0,zero,v0
9d004e0c:	00031823 	negu	v1,v1
9d004e10:	00641823 	subu	v1,v1,a0
9d004e14:	03e00008 	jr	ra
9d004e18:	00000000 	nop
9d004e1c:	00a7102b 	sltu	v0,a1,a3
9d004e20:	10400010 	beqz	v0,9d004e64 <__divdi3+0x17c>
9d004e24:	70e84020 	clz	t0,a3
9d004e28:	00001821 	move	v1,zero
9d004e2c:	0b40137f 	j	9d004dfc <__divdi3+0x114>
9d004e30:	00001021 	move	v0,zero
9d004e34:	00042023 	negu	a0,a0
9d004e38:	0004102b 	sltu	v0,zero,a0
9d004e3c:	00052823 	negu	a1,a1
9d004e40:	00a22823 	subu	a1,a1,v0
9d004e44:	04e1ffac 	bgez	a3,9d004cf8 <__divdi3+0x10>
9d004e48:	2409ffff 	li	t1,-1
9d004e4c:	00063023 	negu	a2,a2
9d004e50:	0006102b 	sltu	v0,zero,a2
9d004e54:	00073823 	negu	a3,a3
9d004e58:	00094827 	nor	t1,zero,t1
9d004e5c:	0b40133e 	j	9d004cf8 <__divdi3+0x10>
9d004e60:	00e23823 	subu	a3,a3,v0
9d004e64:	1500007e 	bnez	t0,9d005060 <__divdi3+0x378>
9d004e68:	24020020 	li	v0,32
9d004e6c:	00e5282b 	sltu	a1,a3,a1
9d004e70:	14a000c6 	bnez	a1,9d00518c <__divdi3+0x4a4>
9d004e74:	00001821 	move	v1,zero
9d004e78:	0086102b 	sltu	v0,a0,a2
9d004e7c:	0b40137f 	j	9d004dfc <__divdi3+0x114>
9d004e80:	38420001 	xori	v0,v0,0x1
9d004e84:	14c00006 	bnez	a2,9d004ea0 <__divdi3+0x1b8>
9d004e88:	71021020 	clz	v0,t0
9d004e8c:	24080001 	li	t0,1
9d004e90:	0107001b 	divu	zero,t0,a3
9d004e94:	00e001f4 	teq	a3,zero,0x7
9d004e98:	00004012 	mflo	t0
9d004e9c:	71021020 	clz	v0,t0
9d004ea0:	54400033 	bnezl	v0,9d004f70 <__divdi3+0x288>
9d004ea4:	00484004 	sllv	t0,t0,v0
9d004ea8:	00a82023 	subu	a0,a1,t0
9d004eac:	00083c02 	srl	a3,t0,0x10
9d004eb0:	310cffff 	andi	t4,t0,0xffff
9d004eb4:	24030001 	li	v1,1
9d004eb8:	000a3402 	srl	a2,t2,0x10
9d004ebc:	0087001b 	divu	zero,a0,a3
9d004ec0:	00e001f4 	teq	a3,zero,0x7
9d004ec4:	00007010 	mfhi	t6
9d004ec8:	00006812 	mflo	t5
9d004ecc:	00001012 	mflo	v0
9d004ed0:	71ac5802 	mul	t3,t5,t4
9d004ed4:	000e7400 	sll	t6,t6,0x10
9d004ed8:	01c63025 	or	a2,t6,a2
9d004edc:	00cb702b 	sltu	t6,a2,t3
9d004ee0:	0087001b 	divu	zero,a0,a3
9d004ee4:	00e001f4 	teq	a3,zero,0x7
9d004ee8:	11c00009 	beqz	t6,9d004f10 <__divdi3+0x228>
9d004eec:	00cb2823 	subu	a1,a2,t3
9d004ef0:	00c83021 	addu	a2,a2,t0
9d004ef4:	00c8202b 	sltu	a0,a2,t0
9d004ef8:	14800004 	bnez	a0,9d004f0c <__divdi3+0x224>
9d004efc:	25a2ffff 	addiu	v0,t5,-1
9d004f00:	00cb202b 	sltu	a0,a2,t3
9d004f04:	548000a3 	bnezl	a0,9d005194 <__divdi3+0x4ac>
9d004f08:	25a2fffe 	addiu	v0,t5,-2
9d004f0c:	00cb2823 	subu	a1,a2,t3
9d004f10:	314affff 	andi	t2,t2,0xffff
9d004f14:	00a7001b 	divu	zero,a1,a3
9d004f18:	00e001f4 	teq	a3,zero,0x7
9d004f1c:	00005810 	mfhi	t3
9d004f20:	00003012 	mflo	a2
9d004f24:	00002012 	mflo	a0
9d004f28:	70cc6002 	mul	t4,a2,t4
9d004f2c:	000b5c00 	sll	t3,t3,0x10
9d004f30:	016a5025 	or	t2,t3,t2
9d004f34:	014c582b 	sltu	t3,t2,t4
9d004f38:	00a7001b 	divu	zero,a1,a3
9d004f3c:	00e001f4 	teq	a3,zero,0x7
9d004f40:	51600009 	beqzl	t3,9d004f68 <__divdi3+0x280>
9d004f44:	00021400 	sll	v0,v0,0x10
9d004f48:	01485021 	addu	t2,t2,t0
9d004f4c:	0148402b 	sltu	t0,t2,t0
9d004f50:	15000004 	bnez	t0,9d004f64 <__divdi3+0x27c>
9d004f54:	24c4ffff 	addiu	a0,a2,-1
9d004f58:	014c502b 	sltu	t2,t2,t4
9d004f5c:	24c6fffe 	addiu	a2,a2,-2
9d004f60:	00ca200b 	movn	a0,a2,t2
9d004f64:	00021400 	sll	v0,v0,0x10
9d004f68:	0b40137f 	j	9d004dfc <__divdi3+0x114>
9d004f6c:	00821025 	or	v0,a0,v0
9d004f70:	24030020 	li	v1,32
9d004f74:	00621823 	subu	v1,v1,v0
9d004f78:	00653006 	srlv	a2,a1,v1
9d004f7c:	00083c02 	srl	a3,t0,0x10
9d004f80:	00c7001b 	divu	zero,a2,a3
9d004f84:	00e001f4 	teq	a3,zero,0x7
9d004f88:	00007810 	mfhi	t7
9d004f8c:	00006812 	mflo	t5
9d004f90:	310cffff 	andi	t4,t0,0xffff
9d004f94:	00452804 	sllv	a1,a1,v0
9d004f98:	00641806 	srlv	v1,a0,v1
9d004f9c:	00652825 	or	a1,v1,a1
9d004fa0:	00057402 	srl	t6,a1,0x10
9d004fa4:	00445004 	sllv	t2,a0,v0
9d004fa8:	00001812 	mflo	v1
9d004fac:	71ac5802 	mul	t3,t5,t4
9d004fb0:	000f1400 	sll	v0,t7,0x10
9d004fb4:	01c21025 	or	v0,t6,v0
9d004fb8:	004b202b 	sltu	a0,v0,t3
9d004fbc:	00c7001b 	divu	zero,a2,a3
9d004fc0:	00e001f4 	teq	a3,zero,0x7
9d004fc4:	5080000b 	beqzl	a0,9d004ff4 <__divdi3+0x30c>
9d004fc8:	004b1023 	subu	v0,v0,t3
9d004fcc:	00481021 	addu	v0,v0,t0
9d004fd0:	0048202b 	sltu	a0,v0,t0
9d004fd4:	14800006 	bnez	a0,9d004ff0 <__divdi3+0x308>
9d004fd8:	25a3ffff 	addiu	v1,t5,-1
9d004fdc:	004b202b 	sltu	a0,v0,t3
9d004fe0:	50800004 	beqzl	a0,9d004ff4 <__divdi3+0x30c>
9d004fe4:	004b1023 	subu	v0,v0,t3
9d004fe8:	25a3fffe 	addiu	v1,t5,-2
9d004fec:	00481021 	addu	v0,v0,t0
9d004ff0:	004b1023 	subu	v0,v0,t3
9d004ff4:	30adffff 	andi	t5,a1,0xffff
9d004ff8:	0047001b 	divu	zero,v0,a3
9d004ffc:	00e001f4 	teq	a3,zero,0x7
9d005000:	00002010 	mfhi	a0
9d005004:	00005812 	mflo	t3
9d005008:	00003012 	mflo	a2
9d00500c:	716c2802 	mul	a1,t3,t4
9d005010:	00042400 	sll	a0,a0,0x10
9d005014:	008d2025 	or	a0,a0,t5
9d005018:	0085682b 	sltu	t5,a0,a1
9d00501c:	0047001b 	divu	zero,v0,a3
9d005020:	00e001f4 	teq	a3,zero,0x7
9d005024:	51a0000b 	beqzl	t5,9d005054 <__divdi3+0x36c>
9d005028:	00031c00 	sll	v1,v1,0x10
9d00502c:	00882021 	addu	a0,a0,t0
9d005030:	0088102b 	sltu	v0,a0,t0
9d005034:	14400006 	bnez	v0,9d005050 <__divdi3+0x368>
9d005038:	2566ffff 	addiu	a2,t3,-1
9d00503c:	0085102b 	sltu	v0,a0,a1
9d005040:	50400004 	beqzl	v0,9d005054 <__divdi3+0x36c>
9d005044:	00031c00 	sll	v1,v1,0x10
9d005048:	2566fffe 	addiu	a2,t3,-2
9d00504c:	00882021 	addu	a0,a0,t0
9d005050:	00031c00 	sll	v1,v1,0x10
9d005054:	00852023 	subu	a0,a0,a1
9d005058:	0b4013ae 	j	9d004eb8 <__divdi3+0x1d0>
9d00505c:	00c31825 	or	v1,a2,v1
9d005060:	00481023 	subu	v0,v0,t0
9d005064:	01073804 	sllv	a3,a3,t0
9d005068:	00461806 	srlv	v1,a2,v0
9d00506c:	00673825 	or	a3,v1,a3
9d005070:	00455806 	srlv	t3,a1,v0
9d005074:	00071c02 	srl	v1,a3,0x10
9d005078:	0163001b 	divu	zero,t3,v1
9d00507c:	006001f4 	teq	v1,zero,0x7
9d005080:	00005010 	mfhi	t2
9d005084:	00007012 	mflo	t6
9d005088:	30ecffff 	andi	t4,a3,0xffff
9d00508c:	01052804 	sllv	a1,a1,t0
9d005090:	00441006 	srlv	v0,a0,v0
9d005094:	00452825 	or	a1,v0,a1
9d005098:	00057c02 	srl	t7,a1,0x10
9d00509c:	00001012 	mflo	v0
9d0050a0:	71cc6802 	mul	t5,t6,t4
9d0050a4:	000a5400 	sll	t2,t2,0x10
9d0050a8:	014f5025 	or	t2,t2,t7
9d0050ac:	014d782b 	sltu	t7,t2,t5
9d0050b0:	0163001b 	divu	zero,t3,v1
9d0050b4:	006001f4 	teq	v1,zero,0x7
9d0050b8:	11e0000a 	beqz	t7,9d0050e4 <__divdi3+0x3fc>
9d0050bc:	01063004 	sllv	a2,a2,t0
9d0050c0:	01475021 	addu	t2,t2,a3
9d0050c4:	0147582b 	sltu	t3,t2,a3
9d0050c8:	15600006 	bnez	t3,9d0050e4 <__divdi3+0x3fc>
9d0050cc:	25c2ffff 	addiu	v0,t6,-1
9d0050d0:	014d582b 	sltu	t3,t2,t5
9d0050d4:	51600004 	beqzl	t3,9d0050e8 <__divdi3+0x400>
9d0050d8:	014d5023 	subu	t2,t2,t5
9d0050dc:	25c2fffe 	addiu	v0,t6,-2
9d0050e0:	01475021 	addu	t2,t2,a3
9d0050e4:	014d5023 	subu	t2,t2,t5
9d0050e8:	30a5ffff 	andi	a1,a1,0xffff
9d0050ec:	0143001b 	divu	zero,t2,v1
9d0050f0:	006001f4 	teq	v1,zero,0x7
9d0050f4:	00007010 	mfhi	t6
9d0050f8:	00006812 	mflo	t5
9d0050fc:	00005812 	mflo	t3
9d005100:	71ac6002 	mul	t4,t5,t4
9d005104:	000e7400 	sll	t6,t6,0x10
9d005108:	01c52825 	or	a1,t6,a1
9d00510c:	00ac702b 	sltu	t6,a1,t4
9d005110:	0143001b 	divu	zero,t2,v1
9d005114:	006001f4 	teq	v1,zero,0x7
9d005118:	51c0000b 	beqzl	t6,9d005148 <__divdi3+0x460>
9d00511c:	00021400 	sll	v0,v0,0x10
9d005120:	00a72821 	addu	a1,a1,a3
9d005124:	00a7182b 	sltu	v1,a1,a3
9d005128:	14600006 	bnez	v1,9d005144 <__divdi3+0x45c>
9d00512c:	25abffff 	addiu	t3,t5,-1
9d005130:	00ac182b 	sltu	v1,a1,t4
9d005134:	50600004 	beqzl	v1,9d005148 <__divdi3+0x460>
9d005138:	00021400 	sll	v0,v0,0x10
9d00513c:	25abfffe 	addiu	t3,t5,-2
9d005140:	00a72821 	addu	a1,a1,a3
9d005144:	00021400 	sll	v0,v0,0x10
9d005148:	01621025 	or	v0,t3,v0
9d00514c:	00ac2823 	subu	a1,a1,t4
9d005150:	00460019 	multu	v0,a2
9d005154:	00003810 	mfhi	a3
9d005158:	00a7182b 	sltu	v1,a1,a3
9d00515c:	14600008 	bnez	v1,9d005180 <__divdi3+0x498>
9d005160:	00003012 	mflo	a2
9d005164:	50a70003 	beql	a1,a3,9d005174 <__divdi3+0x48c>
9d005168:	01042004 	sllv	a0,a0,t0
9d00516c:	0b40137f 	j	9d004dfc <__divdi3+0x114>
9d005170:	00001821 	move	v1,zero
9d005174:	0086302b 	sltu	a2,a0,a2
9d005178:	50c0ff20 	beqzl	a2,9d004dfc <__divdi3+0x114>
9d00517c:	00001821 	move	v1,zero
9d005180:	2442ffff 	addiu	v0,v0,-1
9d005184:	0b40137f 	j	9d004dfc <__divdi3+0x114>
9d005188:	00001821 	move	v1,zero
9d00518c:	0b40137f 	j	9d004dfc <__divdi3+0x114>
9d005190:	24020001 	li	v0,1
9d005194:	0b4013c3 	j	9d004f0c <__divdi3+0x224>
9d005198:	00c83021 	addu	a2,a2,t0

9d00519c <__umoddi3>:
9d00519c:	00c04021 	move	t0,a2
9d0051a0:	00804821 	move	t1,a0
9d0051a4:	14e0003b 	bnez	a3,9d005294 <__umoddi3+0xf8>
9d0051a8:	00a01821 	move	v1,a1
9d0051ac:	00a6102b 	sltu	v0,a1,a2
9d0051b0:	10400048 	beqz	v0,9d0052d4 <__umoddi3+0x138>
9d0051b4:	70c21020 	clz	v0,a2
9d0051b8:	50400008 	beqzl	v0,9d0051dc <__umoddi3+0x40>
9d0051bc:	00083402 	srl	a2,t0,0x10
9d0051c0:	00021823 	negu	v1,v0
9d0051c4:	00452804 	sllv	a1,a1,v0
9d0051c8:	00641806 	srlv	v1,a0,v1
9d0051cc:	00464004 	sllv	t0,a2,v0
9d0051d0:	00651825 	or	v1,v1,a1
9d0051d4:	00444804 	sllv	t1,a0,v0
9d0051d8:	00083402 	srl	a2,t0,0x10
9d0051dc:	0066001b 	divu	zero,v1,a2
9d0051e0:	00c001f4 	teq	a2,zero,0x7
9d0051e4:	00002010 	mfhi	a0
9d0051e8:	00005812 	mflo	t3
9d0051ec:	310cffff 	andi	t4,t0,0xffff
9d0051f0:	00095402 	srl	t2,t1,0x10
9d0051f4:	716c5802 	mul	t3,t3,t4
9d0051f8:	00042400 	sll	a0,a0,0x10
9d0051fc:	008a5025 	or	t2,a0,t2
9d005200:	014b682b 	sltu	t5,t2,t3
9d005204:	0066001b 	divu	zero,v1,a2
9d005208:	00c001f4 	teq	a2,zero,0x7
9d00520c:	51a00009 	beqzl	t5,9d005234 <__umoddi3+0x98>
9d005210:	014b5023 	subu	t2,t2,t3
9d005214:	01485021 	addu	t2,t2,t0
9d005218:	0148182b 	sltu	v1,t2,t0
9d00521c:	54600005 	bnezl	v1,9d005234 <__umoddi3+0x98>
9d005220:	014b5023 	subu	t2,t2,t3
9d005224:	014b202b 	sltu	a0,t2,t3
9d005228:	01481821 	addu	v1,t2,t0
9d00522c:	0064500b 	movn	t2,v1,a0
9d005230:	014b5023 	subu	t2,t2,t3
9d005234:	3123ffff 	andi	v1,t1,0xffff
9d005238:	0146001b 	divu	zero,t2,a2
9d00523c:	00c001f4 	teq	a2,zero,0x7
9d005240:	00004810 	mfhi	t1
9d005244:	00002012 	mflo	a0
9d005248:	708c2002 	mul	a0,a0,t4
9d00524c:	00094c00 	sll	t1,t1,0x10
9d005250:	01234825 	or	t1,t1,v1
9d005254:	0124182b 	sltu	v1,t1,a0
9d005258:	0146001b 	divu	zero,t2,a2
9d00525c:	00c001f4 	teq	a2,zero,0x7
9d005260:	50600009 	beqzl	v1,9d005288 <__umoddi3+0xec>
9d005264:	01244823 	subu	t1,t1,a0
9d005268:	01284821 	addu	t1,t1,t0
9d00526c:	0128182b 	sltu	v1,t1,t0
9d005270:	54600005 	bnezl	v1,9d005288 <__umoddi3+0xec>
9d005274:	01244823 	subu	t1,t1,a0
9d005278:	0124182b 	sltu	v1,t1,a0
9d00527c:	01284021 	addu	t0,t1,t0
9d005280:	0103480b 	movn	t1,t0,v1
9d005284:	01244823 	subu	t1,t1,a0
9d005288:	00491006 	srlv	v0,t1,v0
9d00528c:	03e00008 	jr	ra
9d005290:	00001821 	move	v1,zero
9d005294:	00a7102b 	sltu	v0,a1,a3
9d005298:	14400047 	bnez	v0,9d0053b8 <__umoddi3+0x21c>
9d00529c:	70ea5020 	clz	t2,a3
9d0052a0:	15400048 	bnez	t2,9d0053c4 <__umoddi3+0x228>
9d0052a4:	240b0020 	li	t3,32
9d0052a8:	00e5102b 	sltu	v0,a3,a1
9d0052ac:	14400005 	bnez	v0,9d0052c4 <__umoddi3+0x128>
9d0052b0:	00861023 	subu	v0,a0,a2
9d0052b4:	0086402b 	sltu	t0,a0,a2
9d0052b8:	15000089 	bnez	t0,9d0054e0 <__umoddi3+0x344>
9d0052bc:	00801021 	move	v0,a0
9d0052c0:	00861023 	subu	v0,a0,a2
9d0052c4:	00a72823 	subu	a1,a1,a3
9d0052c8:	0082202b 	sltu	a0,a0,v0
9d0052cc:	03e00008 	jr	ra
9d0052d0:	00a41823 	subu	v1,a1,a0
9d0052d4:	14c00006 	bnez	a2,9d0052f0 <__umoddi3+0x154>
9d0052d8:	71021020 	clz	v0,t0
9d0052dc:	24020001 	li	v0,1
9d0052e0:	0046001b 	divu	zero,v0,a2
9d0052e4:	00c001f4 	teq	a2,zero,0x7
9d0052e8:	00004012 	mflo	t0
9d0052ec:	71021020 	clz	v0,t0
9d0052f0:	5440007d 	bnezl	v0,9d0054e8 <__umoddi3+0x34c>
9d0052f4:	00484004 	sllv	t0,t0,v0
9d0052f8:	00a82823 	subu	a1,a1,t0
9d0052fc:	00081c02 	srl	v1,t0,0x10
9d005300:	3107ffff 	andi	a3,t0,0xffff
9d005304:	00092402 	srl	a0,t1,0x10
9d005308:	00a3001b 	divu	zero,a1,v1
9d00530c:	006001f4 	teq	v1,zero,0x7
9d005310:	00005010 	mfhi	t2
9d005314:	00003012 	mflo	a2
9d005318:	70c73002 	mul	a2,a2,a3
9d00531c:	000a5400 	sll	t2,t2,0x10
9d005320:	01442025 	or	a0,t2,a0
9d005324:	0086502b 	sltu	t2,a0,a2
9d005328:	00a3001b 	divu	zero,a1,v1
9d00532c:	006001f4 	teq	v1,zero,0x7
9d005330:	51400009 	beqzl	t2,9d005358 <__umoddi3+0x1bc>
9d005334:	00862023 	subu	a0,a0,a2
9d005338:	00882021 	addu	a0,a0,t0
9d00533c:	0088282b 	sltu	a1,a0,t0
9d005340:	54a00005 	bnezl	a1,9d005358 <__umoddi3+0x1bc>
9d005344:	00862023 	subu	a0,a0,a2
9d005348:	0086502b 	sltu	t2,a0,a2
9d00534c:	00882821 	addu	a1,a0,t0
9d005350:	00aa200b 	movn	a0,a1,t2
9d005354:	00862023 	subu	a0,a0,a2
9d005358:	3126ffff 	andi	a2,t1,0xffff
9d00535c:	0083001b 	divu	zero,a0,v1
9d005360:	006001f4 	teq	v1,zero,0x7
9d005364:	00004810 	mfhi	t1
9d005368:	00002812 	mflo	a1
9d00536c:	70a72802 	mul	a1,a1,a3
9d005370:	00094c00 	sll	t1,t1,0x10
9d005374:	01264825 	or	t1,t1,a2
9d005378:	0125302b 	sltu	a2,t1,a1
9d00537c:	0083001b 	divu	zero,a0,v1
9d005380:	006001f4 	teq	v1,zero,0x7
9d005384:	50c00009 	beqzl	a2,9d0053ac <__umoddi3+0x210>
9d005388:	01254823 	subu	t1,t1,a1
9d00538c:	01284821 	addu	t1,t1,t0
9d005390:	0128182b 	sltu	v1,t1,t0
9d005394:	54600005 	bnezl	v1,9d0053ac <__umoddi3+0x210>
9d005398:	01254823 	subu	t1,t1,a1
9d00539c:	0125182b 	sltu	v1,t1,a1
9d0053a0:	01284021 	addu	t0,t1,t0
9d0053a4:	0103480b 	movn	t1,t0,v1
9d0053a8:	01254823 	subu	t1,t1,a1
9d0053ac:	00491006 	srlv	v0,t1,v0
9d0053b0:	03e00008 	jr	ra
9d0053b4:	00001821 	move	v1,zero
9d0053b8:	00801021 	move	v0,a0
9d0053bc:	03e00008 	jr	ra
9d0053c0:	00a01821 	move	v1,a1
9d0053c4:	016a5823 	subu	t3,t3,t2
9d0053c8:	01473804 	sllv	a3,a3,t2
9d0053cc:	01661006 	srlv	v0,a2,t3
9d0053d0:	00473825 	or	a3,v0,a3
9d0053d4:	01656806 	srlv	t5,a1,t3
9d0053d8:	00074c02 	srl	t1,a3,0x10
9d0053dc:	01a9001b 	divu	zero,t5,t1
9d0053e0:	012001f4 	teq	t1,zero,0x7
9d0053e4:	00006010 	mfhi	t4
9d0053e8:	00001812 	mflo	v1
9d0053ec:	30eeffff 	andi	t6,a3,0xffff
9d0053f0:	01452804 	sllv	a1,a1,t2
9d0053f4:	01641006 	srlv	v0,a0,t3
9d0053f8:	00451025 	or	v0,v0,a1
9d0053fc:	00022c02 	srl	a1,v0,0x10
9d005400:	01463004 	sllv	a2,a2,t2
9d005404:	00004012 	mflo	t0
9d005408:	706e7802 	mul	t7,v1,t6
9d00540c:	000c6400 	sll	t4,t4,0x10
9d005410:	01856025 	or	t4,t4,a1
9d005414:	018f282b 	sltu	a1,t4,t7
9d005418:	01a9001b 	divu	zero,t5,t1
9d00541c:	012001f4 	teq	t1,zero,0x7
9d005420:	10a0000a 	beqz	a1,9d00544c <__umoddi3+0x2b0>
9d005424:	01442004 	sllv	a0,a0,t2
9d005428:	01876021 	addu	t4,t4,a3
9d00542c:	0187282b 	sltu	a1,t4,a3
9d005430:	14a00006 	bnez	a1,9d00544c <__umoddi3+0x2b0>
9d005434:	2468ffff 	addiu	t0,v1,-1
9d005438:	018f282b 	sltu	a1,t4,t7
9d00543c:	50a00004 	beqzl	a1,9d005450 <__umoddi3+0x2b4>
9d005440:	018f6023 	subu	t4,t4,t7
9d005444:	2468fffe 	addiu	t0,v1,-2
9d005448:	01876021 	addu	t4,t4,a3
9d00544c:	018f6023 	subu	t4,t4,t7
9d005450:	3042ffff 	andi	v0,v0,0xffff
9d005454:	0189001b 	divu	zero,t4,t1
9d005458:	012001f4 	teq	t1,zero,0x7
9d00545c:	00002810 	mfhi	a1
9d005460:	00001812 	mflo	v1
9d005464:	00006812 	mflo	t5
9d005468:	706e7002 	mul	t6,v1,t6
9d00546c:	00052c00 	sll	a1,a1,0x10
9d005470:	00a21025 	or	v0,a1,v0
9d005474:	004e282b 	sltu	a1,v0,t6
9d005478:	0189001b 	divu	zero,t4,t1
9d00547c:	012001f4 	teq	t1,zero,0x7
9d005480:	50a00006 	beqzl	a1,9d00549c <__umoddi3+0x300>
9d005484:	00084400 	sll	t0,t0,0x10
9d005488:	00471021 	addu	v0,v0,a3
9d00548c:	0047282b 	sltu	a1,v0,a3
9d005490:	10a0004c 	beqz	a1,9d0055c4 <__umoddi3+0x428>
9d005494:	246dffff 	addiu	t5,v1,-1
9d005498:	00084400 	sll	t0,t0,0x10
9d00549c:	01a84025 	or	t0,t5,t0
9d0054a0:	004e1023 	subu	v0,v0,t6
9d0054a4:	01060019 	multu	t0,a2
9d0054a8:	00004810 	mfhi	t1
9d0054ac:	0049182b 	sltu	v1,v0,t1
9d0054b0:	1460003e 	bnez	v1,9d0055ac <__umoddi3+0x410>
9d0054b4:	00004012 	mflo	t0
9d0054b8:	1049004b 	beq	v0,t1,9d0055e8 <__umoddi3+0x44c>
9d0054bc:	00491823 	subu	v1,v0,t1
9d0054c0:	00003012 	mflo	a2
9d0054c4:	00863023 	subu	a2,a0,a2
9d0054c8:	0086202b 	sltu	a0,a0,a2
9d0054cc:	00641823 	subu	v1,v1,a0
9d0054d0:	01631004 	sllv	v0,v1,t3
9d0054d4:	01463006 	srlv	a2,a2,t2
9d0054d8:	00461025 	or	v0,v0,a2
9d0054dc:	01431806 	srlv	v1,v1,t2
9d0054e0:	03e00008 	jr	ra
9d0054e4:	00000000 	nop
9d0054e8:	24090020 	li	t1,32
9d0054ec:	01224823 	subu	t1,t1,v0
9d0054f0:	01255006 	srlv	t2,a1,t1
9d0054f4:	00081c02 	srl	v1,t0,0x10
9d0054f8:	0143001b 	divu	zero,t2,v1
9d0054fc:	006001f4 	teq	v1,zero,0x7
9d005500:	00003010 	mfhi	a2
9d005504:	00005812 	mflo	t3
9d005508:	3107ffff 	andi	a3,t0,0xffff
9d00550c:	00452804 	sllv	a1,a1,v0
9d005510:	01244806 	srlv	t1,a0,t1
9d005514:	01252825 	or	a1,t1,a1
9d005518:	00056402 	srl	t4,a1,0x10
9d00551c:	00444804 	sllv	t1,a0,v0
9d005520:	71675802 	mul	t3,t3,a3
9d005524:	00063400 	sll	a2,a2,0x10
9d005528:	01863025 	or	a2,t4,a2
9d00552c:	00cb202b 	sltu	a0,a2,t3
9d005530:	0143001b 	divu	zero,t2,v1
9d005534:	006001f4 	teq	v1,zero,0x7
9d005538:	50800006 	beqzl	a0,9d005554 <__umoddi3+0x3b8>
9d00553c:	00cb3023 	subu	a2,a2,t3
9d005540:	00c83021 	addu	a2,a2,t0
9d005544:	00c8202b 	sltu	a0,a2,t0
9d005548:	10800024 	beqz	a0,9d0055dc <__umoddi3+0x440>
9d00554c:	00cb502b 	sltu	t2,a2,t3
9d005550:	00cb3023 	subu	a2,a2,t3
9d005554:	30aaffff 	andi	t2,a1,0xffff
9d005558:	00c3001b 	divu	zero,a2,v1
9d00555c:	006001f4 	teq	v1,zero,0x7
9d005560:	00002010 	mfhi	a0
9d005564:	00002812 	mflo	a1
9d005568:	70a72802 	mul	a1,a1,a3
9d00556c:	00042400 	sll	a0,a0,0x10
9d005570:	008a2025 	or	a0,a0,t2
9d005574:	0085502b 	sltu	t2,a0,a1
9d005578:	00c3001b 	divu	zero,a2,v1
9d00557c:	006001f4 	teq	v1,zero,0x7
9d005580:	5140ff60 	beqzl	t2,9d005304 <__umoddi3+0x168>
9d005584:	00852823 	subu	a1,a0,a1
9d005588:	00882021 	addu	a0,a0,t0
9d00558c:	0088302b 	sltu	a2,a0,t0
9d005590:	54c0ff5c 	bnezl	a2,9d005304 <__umoddi3+0x168>
9d005594:	00852823 	subu	a1,a0,a1
9d005598:	0085502b 	sltu	t2,a0,a1
9d00559c:	00883021 	addu	a2,a0,t0
9d0055a0:	00ca200b 	movn	a0,a2,t2
9d0055a4:	0b4014c1 	j	9d005304 <__umoddi3+0x168>
9d0055a8:	00852823 	subu	a1,a0,a1
9d0055ac:	01063023 	subu	a2,t0,a2
9d0055b0:	01271823 	subu	v1,t1,a3
9d0055b4:	0106402b 	sltu	t0,t0,a2
9d0055b8:	00681823 	subu	v1,v1,t0
9d0055bc:	0b401531 	j	9d0054c4 <__umoddi3+0x328>
9d0055c0:	00431823 	subu	v1,v0,v1
9d0055c4:	004e282b 	sltu	a1,v0,t6
9d0055c8:	50a0ffb4 	beqzl	a1,9d00549c <__umoddi3+0x300>
9d0055cc:	00084400 	sll	t0,t0,0x10
9d0055d0:	246dfffe 	addiu	t5,v1,-2
9d0055d4:	0b401526 	j	9d005498 <__umoddi3+0x2fc>
9d0055d8:	00471021 	addu	v0,v0,a3
9d0055dc:	00c82021 	addu	a0,a2,t0
9d0055e0:	0b401554 	j	9d005550 <__umoddi3+0x3b4>
9d0055e4:	008a300b 	movn	a2,a0,t2
9d0055e8:	0088182b 	sltu	v1,a0,t0
9d0055ec:	5460fff0 	bnezl	v1,9d0055b0 <__umoddi3+0x414>
9d0055f0:	01063023 	subu	a2,t0,a2
9d0055f4:	00003012 	mflo	a2
9d0055f8:	0b401531 	j	9d0054c4 <__umoddi3+0x328>
9d0055fc:	00001821 	move	v1,zero

9d005600 <__udivdi3>:
9d005600:	00c04021 	move	t0,a2
9d005604:	00801021 	move	v0,a0
9d005608:	14e0003f 	bnez	a3,9d005708 <__udivdi3+0x108>
9d00560c:	00a04821 	move	t1,a1
9d005610:	00a6182b 	sltu	v1,a1,a2
9d005614:	10600047 	beqz	v1,9d005734 <__udivdi3+0x134>
9d005618:	70c31820 	clz	v1,a2
9d00561c:	50600008 	beqzl	v1,9d005640 <__udivdi3+0x40>
9d005620:	00081c02 	srl	v1,t0,0x10
9d005624:	00034823 	negu	t1,v1
9d005628:	00652804 	sllv	a1,a1,v1
9d00562c:	01244806 	srlv	t1,a0,t1
9d005630:	00664004 	sllv	t0,a2,v1
9d005634:	01254825 	or	t1,t1,a1
9d005638:	00641004 	sllv	v0,a0,v1
9d00563c:	00081c02 	srl	v1,t0,0x10
9d005640:	0123001b 	divu	zero,t1,v1
9d005644:	006001f4 	teq	v1,zero,0x7
9d005648:	00006010 	mfhi	t4
9d00564c:	00005812 	mflo	t3
9d005650:	310affff 	andi	t2,t0,0xffff
9d005654:	00022402 	srl	a0,v0,0x10
9d005658:	00003012 	mflo	a2
9d00565c:	716a3802 	mul	a3,t3,t2
9d005660:	000c6400 	sll	t4,t4,0x10
9d005664:	01842025 	or	a0,t4,a0
9d005668:	0087602b 	sltu	t4,a0,a3
9d00566c:	0123001b 	divu	zero,t1,v1
9d005670:	006001f4 	teq	v1,zero,0x7
9d005674:	1180000b 	beqz	t4,9d0056a4 <__udivdi3+0xa4>
9d005678:	00872823 	subu	a1,a0,a3
9d00567c:	00882021 	addu	a0,a0,t0
9d005680:	0088282b 	sltu	a1,a0,t0
9d005684:	14a00006 	bnez	a1,9d0056a0 <__udivdi3+0xa0>
9d005688:	2566ffff 	addiu	a2,t3,-1
9d00568c:	0087282b 	sltu	a1,a0,a3
9d005690:	10a00004 	beqz	a1,9d0056a4 <__udivdi3+0xa4>
9d005694:	00872823 	subu	a1,a0,a3
9d005698:	2566fffe 	addiu	a2,t3,-2
9d00569c:	00882021 	addu	a0,a0,t0
9d0056a0:	00872823 	subu	a1,a0,a3
9d0056a4:	3042ffff 	andi	v0,v0,0xffff
9d0056a8:	00a3001b 	divu	zero,a1,v1
9d0056ac:	006001f4 	teq	v1,zero,0x7
9d0056b0:	00004810 	mfhi	t1
9d0056b4:	00003812 	mflo	a3
9d0056b8:	00002012 	mflo	a0
9d0056bc:	70ea5002 	mul	t2,a3,t2
9d0056c0:	00094c00 	sll	t1,t1,0x10
9d0056c4:	01221025 	or	v0,t1,v0
9d0056c8:	004a482b 	sltu	t1,v0,t2
9d0056cc:	00a3001b 	divu	zero,a1,v1
9d0056d0:	006001f4 	teq	v1,zero,0x7
9d0056d4:	51200009 	beqzl	t1,9d0056fc <__udivdi3+0xfc>
9d0056d8:	00061400 	sll	v0,a2,0x10
9d0056dc:	00481021 	addu	v0,v0,t0
9d0056e0:	0048402b 	sltu	t0,v0,t0
9d0056e4:	15000004 	bnez	t0,9d0056f8 <__udivdi3+0xf8>
9d0056e8:	24e4ffff 	addiu	a0,a3,-1
9d0056ec:	004a502b 	sltu	t2,v0,t2
9d0056f0:	24e7fffe 	addiu	a3,a3,-2
9d0056f4:	00ea200b 	movn	a0,a3,t2
9d0056f8:	00061400 	sll	v0,a2,0x10
9d0056fc:	00821025 	or	v0,a0,v0
9d005700:	03e00008 	jr	ra
9d005704:	00001821 	move	v1,zero
9d005708:	00a7102b 	sltu	v0,a1,a3
9d00570c:	14400044 	bnez	v0,9d005820 <__udivdi3+0x220>
9d005710:	70e84020 	clz	t0,a3
9d005714:	55000045 	bnezl	t0,9d00582c <__udivdi3+0x22c>
9d005718:	24020020 	li	v0,32
9d00571c:	00e5282b 	sltu	a1,a3,a1
9d005720:	14a000c8 	bnez	a1,9d005a44 <__udivdi3+0x444>
9d005724:	0086302b 	sltu	a2,a0,a2
9d005728:	38c20001 	xori	v0,a2,0x1
9d00572c:	03e00008 	jr	ra
9d005730:	00001821 	move	v1,zero
9d005734:	14c00006 	bnez	a2,9d005750 <__udivdi3+0x150>
9d005738:	71031820 	clz	v1,t0
9d00573c:	24030001 	li	v1,1
9d005740:	0066001b 	divu	zero,v1,a2
9d005744:	00c001f4 	teq	a2,zero,0x7
9d005748:	00004012 	mflo	t0
9d00574c:	71031820 	clz	v1,t0
9d005750:	5460007b 	bnezl	v1,9d005940 <__udivdi3+0x340>
9d005754:	00684004 	sllv	t0,t0,v1
9d005758:	00a82023 	subu	a0,a1,t0
9d00575c:	00083c02 	srl	a3,t0,0x10
9d005760:	310bffff 	andi	t3,t0,0xffff
9d005764:	24030001 	li	v1,1
9d005768:	00023402 	srl	a2,v0,0x10
9d00576c:	0087001b 	divu	zero,a0,a3
9d005770:	00e001f4 	teq	a3,zero,0x7
9d005774:	00006810 	mfhi	t5
9d005778:	00006012 	mflo	t4
9d00577c:	00004812 	mflo	t1
9d005780:	718b5002 	mul	t2,t4,t3
9d005784:	000d6c00 	sll	t5,t5,0x10
9d005788:	01a63025 	or	a2,t5,a2
9d00578c:	00ca682b 	sltu	t5,a2,t2
9d005790:	0087001b 	divu	zero,a0,a3
9d005794:	00e001f4 	teq	a3,zero,0x7
9d005798:	11a00009 	beqz	t5,9d0057c0 <__udivdi3+0x1c0>
9d00579c:	00ca2823 	subu	a1,a2,t2
9d0057a0:	00c83021 	addu	a2,a2,t0
9d0057a4:	00c8202b 	sltu	a0,a2,t0
9d0057a8:	14800004 	bnez	a0,9d0057bc <__udivdi3+0x1bc>
9d0057ac:	2589ffff 	addiu	t1,t4,-1
9d0057b0:	00ca202b 	sltu	a0,a2,t2
9d0057b4:	548000a6 	bnezl	a0,9d005a50 <__udivdi3+0x450>
9d0057b8:	2589fffe 	addiu	t1,t4,-2
9d0057bc:	00ca2823 	subu	a1,a2,t2
9d0057c0:	3042ffff 	andi	v0,v0,0xffff
9d0057c4:	00a7001b 	divu	zero,a1,a3
9d0057c8:	00e001f4 	teq	a3,zero,0x7
9d0057cc:	00005010 	mfhi	t2
9d0057d0:	00003012 	mflo	a2
9d0057d4:	00002012 	mflo	a0
9d0057d8:	70cb5802 	mul	t3,a2,t3
9d0057dc:	000a5400 	sll	t2,t2,0x10
9d0057e0:	01421025 	or	v0,t2,v0
9d0057e4:	004b502b 	sltu	t2,v0,t3
9d0057e8:	00a7001b 	divu	zero,a1,a3
9d0057ec:	00e001f4 	teq	a3,zero,0x7
9d0057f0:	51400009 	beqzl	t2,9d005818 <__udivdi3+0x218>
9d0057f4:	00091400 	sll	v0,t1,0x10
9d0057f8:	00481021 	addu	v0,v0,t0
9d0057fc:	0048402b 	sltu	t0,v0,t0
9d005800:	15000004 	bnez	t0,9d005814 <__udivdi3+0x214>
9d005804:	24c4ffff 	addiu	a0,a2,-1
9d005808:	004b582b 	sltu	t3,v0,t3
9d00580c:	24c6fffe 	addiu	a2,a2,-2
9d005810:	00cb200b 	movn	a0,a2,t3
9d005814:	00091400 	sll	v0,t1,0x10
9d005818:	03e00008 	jr	ra
9d00581c:	00821025 	or	v0,a0,v0
9d005820:	00001821 	move	v1,zero
9d005824:	03e00008 	jr	ra
9d005828:	00001021 	move	v0,zero
9d00582c:	00481023 	subu	v0,v0,t0
9d005830:	01073804 	sllv	a3,a3,t0
9d005834:	00461806 	srlv	v1,a2,v0
9d005838:	00673825 	or	a3,v1,a3
9d00583c:	00455006 	srlv	t2,a1,v0
9d005840:	00071c02 	srl	v1,a3,0x10
9d005844:	0143001b 	divu	zero,t2,v1
9d005848:	006001f4 	teq	v1,zero,0x7
9d00584c:	00004810 	mfhi	t1
9d005850:	00006812 	mflo	t5
9d005854:	30ebffff 	andi	t3,a3,0xffff
9d005858:	01052804 	sllv	a1,a1,t0
9d00585c:	00441006 	srlv	v0,a0,v0
9d005860:	00452825 	or	a1,v0,a1
9d005864:	00057402 	srl	t6,a1,0x10
9d005868:	00001012 	mflo	v0
9d00586c:	71ab6002 	mul	t4,t5,t3
9d005870:	00094c00 	sll	t1,t1,0x10
9d005874:	012e4825 	or	t1,t1,t6
9d005878:	012c702b 	sltu	t6,t1,t4
9d00587c:	0143001b 	divu	zero,t2,v1
9d005880:	006001f4 	teq	v1,zero,0x7
9d005884:	11c0000a 	beqz	t6,9d0058b0 <__udivdi3+0x2b0>
9d005888:	01063004 	sllv	a2,a2,t0
9d00588c:	01274821 	addu	t1,t1,a3
9d005890:	0127502b 	sltu	t2,t1,a3
9d005894:	15400006 	bnez	t2,9d0058b0 <__udivdi3+0x2b0>
9d005898:	25a2ffff 	addiu	v0,t5,-1
9d00589c:	012c502b 	sltu	t2,t1,t4
9d0058a0:	51400004 	beqzl	t2,9d0058b4 <__udivdi3+0x2b4>
9d0058a4:	012c4823 	subu	t1,t1,t4
9d0058a8:	25a2fffe 	addiu	v0,t5,-2
9d0058ac:	01274821 	addu	t1,t1,a3
9d0058b0:	012c4823 	subu	t1,t1,t4
9d0058b4:	30a5ffff 	andi	a1,a1,0xffff
9d0058b8:	0123001b 	divu	zero,t1,v1
9d0058bc:	006001f4 	teq	v1,zero,0x7
9d0058c0:	00006810 	mfhi	t5
9d0058c4:	00006012 	mflo	t4
9d0058c8:	00005012 	mflo	t2
9d0058cc:	718b5802 	mul	t3,t4,t3
9d0058d0:	000d6c00 	sll	t5,t5,0x10
9d0058d4:	01a52825 	or	a1,t5,a1
9d0058d8:	00ab682b 	sltu	t5,a1,t3
9d0058dc:	0123001b 	divu	zero,t1,v1
9d0058e0:	006001f4 	teq	v1,zero,0x7
9d0058e4:	51a0000b 	beqzl	t5,9d005914 <__udivdi3+0x314>
9d0058e8:	00021400 	sll	v0,v0,0x10
9d0058ec:	00a72821 	addu	a1,a1,a3
9d0058f0:	00a7182b 	sltu	v1,a1,a3
9d0058f4:	14600006 	bnez	v1,9d005910 <__udivdi3+0x310>
9d0058f8:	258affff 	addiu	t2,t4,-1
9d0058fc:	00ab182b 	sltu	v1,a1,t3
9d005900:	50600004 	beqzl	v1,9d005914 <__udivdi3+0x314>
9d005904:	00021400 	sll	v0,v0,0x10
9d005908:	258afffe 	addiu	t2,t4,-2
9d00590c:	00a72821 	addu	a1,a1,a3
9d005910:	00021400 	sll	v0,v0,0x10
9d005914:	01421025 	or	v0,t2,v0
9d005918:	00ab2823 	subu	a1,a1,t3
9d00591c:	00460019 	multu	v0,a2
9d005920:	00003810 	mfhi	a3
9d005924:	00a7182b 	sltu	v1,a1,a3
9d005928:	14600044 	bnez	v1,9d005a3c <__udivdi3+0x43c>
9d00592c:	00003012 	mflo	a2
9d005930:	10a7003f 	beq	a1,a3,9d005a30 <__udivdi3+0x430>
9d005934:	01042004 	sllv	a0,a0,t0
9d005938:	03e00008 	jr	ra
9d00593c:	00001821 	move	v1,zero
9d005940:	24020020 	li	v0,32
9d005944:	00431023 	subu	v0,v0,v1
9d005948:	00454806 	srlv	t1,a1,v0
9d00594c:	00083c02 	srl	a3,t0,0x10
9d005950:	0127001b 	divu	zero,t1,a3
9d005954:	00e001f4 	teq	a3,zero,0x7
9d005958:	00003010 	mfhi	a2
9d00595c:	00006012 	mflo	t4
9d005960:	310bffff 	andi	t3,t0,0xffff
9d005964:	00652804 	sllv	a1,a1,v1
9d005968:	00441006 	srlv	v0,a0,v0
9d00596c:	00452825 	or	a1,v0,a1
9d005970:	00056c02 	srl	t5,a1,0x10
9d005974:	00641004 	sllv	v0,a0,v1
9d005978:	00001812 	mflo	v1
9d00597c:	718b5002 	mul	t2,t4,t3
9d005980:	00063400 	sll	a2,a2,0x10
9d005984:	01a63025 	or	a2,t5,a2
9d005988:	00ca202b 	sltu	a0,a2,t2
9d00598c:	0127001b 	divu	zero,t1,a3
9d005990:	00e001f4 	teq	a3,zero,0x7
9d005994:	5080000b 	beqzl	a0,9d0059c4 <__udivdi3+0x3c4>
9d005998:	00ca3023 	subu	a2,a2,t2
9d00599c:	00c83021 	addu	a2,a2,t0
9d0059a0:	00c8202b 	sltu	a0,a2,t0
9d0059a4:	14800006 	bnez	a0,9d0059c0 <__udivdi3+0x3c0>
9d0059a8:	2583ffff 	addiu	v1,t4,-1
9d0059ac:	00ca202b 	sltu	a0,a2,t2
9d0059b0:	50800004 	beqzl	a0,9d0059c4 <__udivdi3+0x3c4>
9d0059b4:	00ca3023 	subu	a2,a2,t2
9d0059b8:	2583fffe 	addiu	v1,t4,-2
9d0059bc:	00c83021 	addu	a2,a2,t0
9d0059c0:	00ca3023 	subu	a2,a2,t2
9d0059c4:	30acffff 	andi	t4,a1,0xffff
9d0059c8:	00c7001b 	divu	zero,a2,a3
9d0059cc:	00e001f4 	teq	a3,zero,0x7
9d0059d0:	00002010 	mfhi	a0
9d0059d4:	00005012 	mflo	t2
9d0059d8:	00004812 	mflo	t1
9d0059dc:	714b2802 	mul	a1,t2,t3
9d0059e0:	00042400 	sll	a0,a0,0x10
9d0059e4:	008c2025 	or	a0,a0,t4
9d0059e8:	0085602b 	sltu	t4,a0,a1
9d0059ec:	00c7001b 	divu	zero,a2,a3
9d0059f0:	00e001f4 	teq	a3,zero,0x7
9d0059f4:	5180000b 	beqzl	t4,9d005a24 <__udivdi3+0x424>
9d0059f8:	00031c00 	sll	v1,v1,0x10
9d0059fc:	00882021 	addu	a0,a0,t0
9d005a00:	0088302b 	sltu	a2,a0,t0
9d005a04:	14c00006 	bnez	a2,9d005a20 <__udivdi3+0x420>
9d005a08:	2549ffff 	addiu	t1,t2,-1
9d005a0c:	0085302b 	sltu	a2,a0,a1
9d005a10:	50c00004 	beqzl	a2,9d005a24 <__udivdi3+0x424>
9d005a14:	00031c00 	sll	v1,v1,0x10
9d005a18:	2549fffe 	addiu	t1,t2,-2
9d005a1c:	00882021 	addu	a0,a0,t0
9d005a20:	00031c00 	sll	v1,v1,0x10
9d005a24:	00852023 	subu	a0,a0,a1
9d005a28:	0b4015da 	j	9d005768 <__udivdi3+0x168>
9d005a2c:	01231825 	or	v1,t1,v1
9d005a30:	0086302b 	sltu	a2,a0,a2
9d005a34:	10c0ffc0 	beqz	a2,9d005938 <__udivdi3+0x338>
9d005a38:	00000000 	nop
9d005a3c:	0b40164e 	j	9d005938 <__udivdi3+0x338>
9d005a40:	2442ffff 	addiu	v0,v0,-1
9d005a44:	00001821 	move	v1,zero
9d005a48:	03e00008 	jr	ra
9d005a4c:	24020001 	li	v0,1
9d005a50:	0b4015ef 	j	9d0057bc <__udivdi3+0x1bc>
9d005a54:	00c83021 	addu	a2,a2,t0

Disassembly of section .text.dp32subadd:

9d005a58 <__subdf3>:
9d005a58:	3c018000 00e13826                       ...<&8..

9d005a60 <__adddf3>:
9d005a60:	00055840 000b5d42 000552c0 00047d42     @X..B]...R..B}..
9d005a70:	014f5025 00044ac0 3c088000 01485025     %PO..J.....<%PH.
9d005a80:	00077040 000e7542 00076ac0 00067d42     @p..Bu...j..B}..
9d005a90:	01af6825 000662c0 01a86825 256fffff     %h...b..%h....o%
9d005aa0:	2de107fe 1020008d 00000000              ...-.. .....

9d005aac <Blab1>:
9d005aac:	25cfffff 	addiu	t7,t6,-1
9d005ab0:	2de107fe 	sltiu	at,t7,2046
9d005ab4:	102000bb 	beqz	at,9d005da4 <BspecB>
9d005ab8:	00000000 	nop

9d005abc <Blab2>:
9d005abc:	3c018000 	lui	at,0x8000
9d005ac0:	00a12824 	and	a1,a1,at
9d005ac4:	016e4023 	subu	t0,t3,t6
9d005ac8:	1100002c 	beqz	t0,9d005b7c <Badd3>
9d005acc:	00000000 	nop
9d005ad0:	19000015 	blez	t0,9d005b28 <i1>
9d005ad4:	00000000 	nop

9d005ad8 <L1>:
9d005ad8:	2d010020 	sltiu	at,t0,32
9d005adc:	14200007 	bnez	at,9d005afc <L2>
9d005ae0:	00000000 	nop
9d005ae4:	2108ffe0 	addi	t0,t0,-32
9d005ae8:	000c302b 	sltu	a2,zero,t4
9d005aec:	100d0023 	beq	zero,t5,9d005b7c <Badd3>
9d005af0:	01a66025 	or	t4,t5,a2
9d005af4:	1000fff8 	b	9d005ad8 <L1>
9d005af8:	340d0000 	li	t5,0x0

9d005afc <L2>:
9d005afc:	1100001f 	beqz	t0,9d005b7c <Badd3>
9d005b00:	00000000 	nop
9d005b04:	00082022 	neg	a0,t0
9d005b08:	008c3004 	sllv	a2,t4,a0
9d005b0c:	008d2004 	sllv	a0,t5,a0
9d005b10:	010c6006 	srlv	t4,t4,t0
9d005b14:	010d6806 	srlv	t5,t5,t0
9d005b18:	10c00018 	beqz	a2,9d005b7c <Badd3>
9d005b1c:	008c6025 	or	t4,a0,t4
9d005b20:	10000016 	b	9d005b7c <Badd3>
9d005b24:	358c0002 	ori	t4,t4,0x2

9d005b28 <i1>:
9d005b28:	000e5825 	or	t3,zero,t6
9d005b2c:	00084023 	negu	t0,t0

9d005b30 <L4>:
9d005b30:	2d010020 	sltiu	at,t0,32
9d005b34:	14200007 	bnez	at,9d005b54 <L5>
9d005b38:	00000000 	nop
9d005b3c:	2108ffe0 	addi	t0,t0,-32
9d005b40:	0009302b 	sltu	a2,zero,t1
9d005b44:	100a000d 	beq	zero,t2,9d005b7c <Badd3>
9d005b48:	01464825 	or	t1,t2,a2
9d005b4c:	1000fff8 	b	9d005b30 <L4>
9d005b50:	340a0000 	li	t2,0x0

9d005b54 <L5>:
9d005b54:	11000009 	beqz	t0,9d005b7c <Badd3>
9d005b58:	00000000 	nop
9d005b5c:	00082022 	neg	a0,t0
9d005b60:	00893004 	sllv	a2,t1,a0
9d005b64:	008a2004 	sllv	a0,t2,a0
9d005b68:	01094806 	srlv	t1,t1,t0
9d005b6c:	010a5006 	srlv	t2,t2,t0
9d005b70:	10c00002 	beqz	a2,9d005b7c <Badd3>
9d005b74:	00894825 	or	t1,a0,t1
9d005b78:	35290002 	ori	t1,t1,0x2

9d005b7c <Badd3>:
9d005b7c:	00a77826 	xor	t7,a1,a3
9d005b80:	05e0001c 	bltz	t7,9d005bf4 <Bsub1>
9d005b84:	00000000 	nop
9d005b88:	012c4821 	addu	t1,t1,t4
9d005b8c:	012c782b 	sltu	t7,t1,t4
9d005b90:	014d5021 	addu	t2,t2,t5
9d005b94:	014f5021 	addu	t2,t2,t7
9d005b98:	114d0002 	beq	t2,t5,9d005ba4 <L7>
9d005b9c:	00000000 	nop
9d005ba0:	014d782b 	sltu	t7,t2,t5

9d005ba4 <L7>:
9d005ba4:	11e00037 	beqz	t7,9d005c84 <Bres>
9d005ba8:	00000000 	nop
9d005bac:	312f0001 	andi	t7,t1,0x1
9d005bb0:	11e00002 	beqz	t7,9d005bbc <i3>
9d005bb4:	00000000 	nop
9d005bb8:	35290002 	ori	t1,t1,0x2

9d005bbc <i3>:
9d005bbc:	00094842 	srl	t1,t1,0x1
9d005bc0:	000a7fc0 	sll	t7,t2,0x1f
9d005bc4:	012f4825 	or	t1,t1,t7
9d005bc8:	000a5042 	srl	t2,t2,0x1
9d005bcc:	3c018000 	lui	at,0x8000
9d005bd0:	01415025 	or	t2,t2,at
9d005bd4:	256b0001 	addiu	t3,t3,1
9d005bd8:	240107ff 	li	at,2047
9d005bdc:	15610029 	bne	t3,at,9d005c84 <Bres>
9d005be0:	00000000 	nop
9d005be4:	3c017ff0 	lui	at,0x7ff0
9d005be8:	00a12825 	or	a1,a1,at
9d005bec:	10000037 	b	9d005ccc <BretA>
9d005bf0:	24040000 	li	a0,0

9d005bf4 <Bsub1>:
9d005bf4:	012c782b 	sltu	t7,t1,t4
9d005bf8:	012c4823 	subu	t1,t1,t4
9d005bfc:	014f102b 	sltu	v0,t2,t7
9d005c00:	014f5023 	subu	t2,t2,t7
9d005c04:	014d782b 	sltu	t7,t2,t5
9d005c08:	01e27825 	or	t7,t7,v0
9d005c0c:	11e00007 	beqz	t7,9d005c2c <i5>
9d005c10:	014d5023 	subu	t2,t2,t5
9d005c14:	3c018000 	lui	at,0x8000
9d005c18:	00a12826 	xor	a1,a1,at
9d005c1c:	0009782b 	sltu	t7,zero,t1
9d005c20:	00094823 	negu	t1,t1
9d005c24:	000a5023 	negu	t2,t2
9d005c28:	014f5023 	subu	t2,t2,t7

9d005c2c <i5>:
9d005c2c:	15400008 	bnez	t2,9d005c50 <L8>
9d005c30:	00000000 	nop
9d005c34:	15200003 	bnez	t1,9d005c44 <L9>
9d005c38:	00000000 	nop
9d005c3c:	1000000d 	b	9d005c74 <L10>
9d005c40:	240b0000 	li	t3,0

9d005c44 <L9>:
9d005c44:	01205025 	move	t2,t1
9d005c48:	24090000 	li	t1,0
9d005c4c:	256bffe0 	addiu	t3,t3,-32

9d005c50 <L8>:
9d005c50:	71484020 	clz	t0,t2
9d005c54:	11000007 	beqz	t0,9d005c74 <L10>
9d005c58:	00000000 	nop
9d005c5c:	01685823 	subu	t3,t3,t0
9d005c60:	00082022 	neg	a0,t0
9d005c64:	00892006 	srlv	a0,t1,a0
9d005c68:	01094804 	sllv	t1,t1,t0
9d005c6c:	010a5004 	sllv	t2,t2,t0
9d005c70:	01445025 	or	t2,t2,a0

9d005c74 <L10>:
9d005c74:	01497825 	or	t7,t2,t1
9d005c78:	15e00002 	bnez	t7,9d005c84 <Bres>
9d005c7c:	00000000 	nop
9d005c80:	24050000 	li	a1,0

9d005c84 <Bres>:
9d005c84:	19600068 	blez	t3,9d005e28 <Bund>
9d005c88:	00000000 	nop

9d005c8c <Blab8>:
9d005c8c:	25290400 	addiu	t1,t1,1024
9d005c90:	2d2f0400 	sltiu	t7,t1,1024
9d005c94:	014f5021 	addu	t2,t2,t7
9d005c98:	014f782b 	sltu	t7,t2,t7
9d005c9c:	016f5821 	addu	t3,t3,t7
9d005ca0:	00097ac2 	srl	t7,t1,0xb
9d005ca4:	31ef0001 	andi	t7,t7,0x1
9d005ca8:	012f4823 	subu	t1,t1,t7
9d005cac:	000922c2 	srl	a0,t1,0xb
9d005cb0:	000a7d40 	sll	t7,t2,0x15
9d005cb4:	008f2025 	or	a0,a0,t7
9d005cb8:	000a7840 	sll	t7,t2,0x1
9d005cbc:	000f7b02 	srl	t7,t7,0xc
9d005cc0:	00af2825 	or	a1,a1,t7
9d005cc4:	000b7d00 	sll	t7,t3,0x14
9d005cc8:	00af2825 	or	a1,a1,t7

9d005ccc <BretA>:
9d005ccc:	00041025 	or	v0,zero,a0
9d005cd0:	00051825 	or	v1,zero,a1

9d005cd4 <B999>:
9d005cd4:	03e00008 	jr	ra
9d005cd8:	00000000 	nop

9d005cdc <BspecA>:
9d005cdc:	0120782a 	slt	t7,t1,zero
9d005ce0:	01294821 	addu	t1,t1,t1
9d005ce4:	014a5021 	addu	t2,t2,t2
9d005ce8:	15600023 	bnez	t3,9d005d78 <i7>
9d005cec:	014f5021 	addu	t2,t2,t7
9d005cf0:	01497825 	or	t7,t2,t1
9d005cf4:	11e00014 	beqz	t7,9d005d48 <i8>
9d005cf8:	00000000 	nop
9d005cfc:	15400008 	bnez	t2,9d005d20 <L11>
9d005d00:	00000000 	nop
9d005d04:	15200003 	bnez	t1,9d005d14 <L12>
9d005d08:	00000000 	nop
9d005d0c:	1000ff67 	b	9d005aac <Blab1>
9d005d10:	240b0000 	li	t3,0

9d005d14 <L12>:
9d005d14:	01205025 	move	t2,t1
9d005d18:	24090000 	li	t1,0
9d005d1c:	256bffe0 	addiu	t3,t3,-32

9d005d20 <L11>:
9d005d20:	71484020 	clz	t0,t2
9d005d24:	1100ff61 	beqz	t0,9d005aac <Blab1>
9d005d28:	00000000 	nop
9d005d2c:	01685823 	subu	t3,t3,t0
9d005d30:	00082022 	neg	a0,t0
9d005d34:	00892006 	srlv	a0,t1,a0
9d005d38:	01094804 	sllv	t1,t1,t0
9d005d3c:	010a5004 	sllv	t2,t2,t0
9d005d40:	1000ff5a 	b	9d005aac <Blab1>
9d005d44:	01445025 	or	t2,t2,a0

9d005d48 <i8>:
9d005d48:	240107ff 	li	at,2047
9d005d4c:	11c10015 	beq	t6,at,9d005da4 <BspecB>
9d005d50:	00000000 	nop
9d005d54:	00e74021 	addu	t0,a3,a3
9d005d58:	01067825 	or	t7,t0,a2
9d005d5c:	15e00003 	bnez	t7,9d005d6c <BretB>
9d005d60:	00000000 	nop
9d005d64:	04e0ffd9 	bltz	a3,9d005ccc <BretA>
9d005d68:	00000000 	nop

9d005d6c <BretB>:
9d005d6c:	00061025 	or	v0,zero,a2
9d005d70:	1000ffd8 	b	9d005cd4 <B999>
9d005d74:	00071825 	or	v1,zero,a3

9d005d78 <i7>:
9d005d78:	01497825 	or	t7,t2,t1
9d005d7c:	15e00027 	bnez	t7,9d005e1c <Bnan>
9d005d80:	00000000 	nop
9d005d84:	240107ff 	li	at,2047
9d005d88:	15c1ffd0 	bne	t6,at,9d005ccc <BretA>
9d005d8c:	00000000 	nop
9d005d90:	00a77826 	xor	t7,a1,a3
9d005d94:	05e00021 	bltz	t7,9d005e1c <Bnan>
9d005d98:	00000000 	nop
9d005d9c:	1000fff3 	b	9d005d6c <BretB>
9d005da0:	00000000 	nop

9d005da4 <BspecB>:
9d005da4:	0180782a 	slt	t7,t4,zero
9d005da8:	018c6021 	addu	t4,t4,t4
9d005dac:	01ad6821 	addu	t5,t5,t5
9d005db0:	15c00017 	bnez	t6,9d005e10 <i11>
9d005db4:	01af6821 	addu	t5,t5,t7
9d005db8:	01ac7825 	or	t7,t5,t4
9d005dbc:	11e0ffc3 	beqz	t7,9d005ccc <BretA>
9d005dc0:	00000000 	nop
9d005dc4:	15a00008 	bnez	t5,9d005de8 <L14>
9d005dc8:	00000000 	nop
9d005dcc:	15800003 	bnez	t4,9d005ddc <L15>
9d005dd0:	00000000 	nop
9d005dd4:	1000ff39 	b	9d005abc <Blab2>
9d005dd8:	240e0000 	li	t6,0

9d005ddc <L15>:
9d005ddc:	01806825 	move	t5,t4
9d005de0:	240c0000 	li	t4,0
9d005de4:	25ceffe0 	addiu	t6,t6,-32

9d005de8 <L14>:
9d005de8:	71a84020 	clz	t0,t5
9d005dec:	1100ff33 	beqz	t0,9d005abc <Blab2>
9d005df0:	00000000 	nop
9d005df4:	01c87023 	subu	t6,t6,t0
9d005df8:	00082022 	neg	a0,t0
9d005dfc:	008c2006 	srlv	a0,t4,a0
9d005e00:	010c6004 	sllv	t4,t4,t0
9d005e04:	010d6804 	sllv	t5,t5,t0
9d005e08:	1000ff2c 	b	9d005abc <Blab2>
9d005e0c:	01a46825 	or	t5,t5,a0

9d005e10 <i11>:
9d005e10:	01ac7825 	or	t7,t5,t4
9d005e14:	11e0ffd5 	beqz	t7,9d005d6c <BretB>
9d005e18:	00000000 	nop

9d005e1c <Bnan>:
9d005e1c:	3c05fff8 	lui	a1,0xfff8
9d005e20:	1000ffaa 	b	9d005ccc <BretA>
9d005e24:	24040000 	li	a0,0

9d005e28 <Bund>:
9d005e28:	24080001 	li	t0,1
9d005e2c:	010b4023 	subu	t0,t0,t3

9d005e30 <L17>:
9d005e30:	2d010020 	sltiu	at,t0,32
9d005e34:	14200007 	bnez	at,9d005e54 <L18>
9d005e38:	00000000 	nop
9d005e3c:	2108ffe0 	addi	t0,t0,-32
9d005e40:	0009302b 	sltu	a2,zero,t1
9d005e44:	100a000d 	beq	zero,t2,9d005e7c <L19>
9d005e48:	01464825 	or	t1,t2,a2
9d005e4c:	1000fff8 	b	9d005e30 <L17>
9d005e50:	340a0000 	li	t2,0x0

9d005e54 <L18>:
9d005e54:	11000009 	beqz	t0,9d005e7c <L19>
9d005e58:	00000000 	nop
9d005e5c:	00082022 	neg	a0,t0
9d005e60:	00893004 	sllv	a2,t1,a0
9d005e64:	008a2004 	sllv	a0,t2,a0
9d005e68:	01094806 	srlv	t1,t1,t0
9d005e6c:	010a5006 	srlv	t2,t2,t0
9d005e70:	10c00002 	beqz	a2,9d005e7c <L19>
9d005e74:	00894825 	or	t1,a0,t1
9d005e78:	35290002 	ori	t1,t1,0x2

9d005e7c <L19>:
9d005e7c:	1000ff83 	b	9d005c8c <Blab8>
9d005e80:	240b0000 	li	t3,0
9d005e84:	00000000 	nop

Disassembly of section .text.__strtod:

9d005e88 <__strtod>:
9d005e88:	27bdffc8 	addiu	sp,sp,-56
9d005e8c:	afbf0034 	sw	ra,52(sp)
9d005e90:	afbe0030 	sw	s8,48(sp)
9d005e94:	afb7002c 	sw	s7,44(sp)
9d005e98:	afb60028 	sw	s6,40(sp)
9d005e9c:	afb50024 	sw	s5,36(sp)
9d005ea0:	afb40020 	sw	s4,32(sp)
9d005ea4:	afb3001c 	sw	s3,28(sp)
9d005ea8:	afb20018 	sw	s2,24(sp)
9d005eac:	afb10014 	sw	s1,20(sp)
9d005eb0:	afb00010 	sw	s0,16(sp)
9d005eb4:	0080b821 	move	s7,a0
9d005eb8:	80820000 	lb	v0,0(a0)
9d005ebc:	3c1e9d01 	lui	s8,0x9d01
9d005ec0:	27de8cf1 	addiu	s8,s8,-29455
9d005ec4:	03c21821 	addu	v1,s8,v0
9d005ec8:	80630000 	lb	v1,0(v1)
9d005ecc:	00a0a821 	move	s5,a1
9d005ed0:	30630088 	andi	v1,v1,0x88
9d005ed4:	10600008 	beqz	v1,9d005ef8 <__strtod+0x70>
9d005ed8:	0080a021 	move	s4,a0
9d005edc:	26940001 	addiu	s4,s4,1
9d005ee0:	82820000 	lb	v0,0(s4)
9d005ee4:	03c21821 	addu	v1,s8,v0
9d005ee8:	80630000 	lb	v1,0(v1)
9d005eec:	30630088 	andi	v1,v1,0x88
9d005ef0:	5460fffb 	bnezl	v1,9d005ee0 <__strtod+0x58>
9d005ef4:	26940001 	addiu	s4,s4,1
9d005ef8:	2403002d 	li	v1,45
9d005efc:	10430098 	beq	v0,v1,9d006160 <__strtod+0x2d8>
9d005f00:	3842002b 	xori	v0,v0,0x2b
9d005f04:	2c420001 	sltiu	v0,v0,1
9d005f08:	00009821 	move	s3,zero
9d005f0c:	0282a021 	addu	s4,s4,v0
9d005f10:	82860000 	lb	a2,0(s4)
9d005f14:	03c61021 	addu	v0,s8,a2
9d005f18:	90420000 	lbu	v0,0(v0)
9d005f1c:	30420004 	andi	v0,v0,0x4
9d005f20:	00008821 	move	s1,zero
9d005f24:	104000bc 	beqz	v0,9d006218 <__strtod+0x390>
9d005f28:	00008021 	move	s0,zero
9d005f2c:	00009021 	move	s2,zero
9d005f30:	24d6ffd0 	addiu	s6,a2,-48
9d005f34:	02002821 	move	a1,s0
9d005f38:	02202021 	move	a0,s1
9d005f3c:	00003021 	move	a2,zero
9d005f40:	0f401b33 	jal	9d006ccc <.LFE23>
9d005f44:	3c074024 	lui	a3,0x4024
9d005f48:	00408021 	move	s0,v0
9d005f4c:	00608821 	move	s1,v1
9d005f50:	0f4026b4 	jal	9d009ad0 <__floatsidf>
9d005f54:	02c02021 	move	a0,s6
9d005f58:	02002021 	move	a0,s0
9d005f5c:	02202821 	move	a1,s1
9d005f60:	00403021 	move	a2,v0
9d005f64:	00603821 	move	a3,v1
9d005f68:	0f401698 	jal	9d005a60 <__adddf3>
9d005f6c:	26940001 	addiu	s4,s4,1
9d005f70:	00408821 	move	s1,v0
9d005f74:	00608021 	move	s0,v1
9d005f78:	82860000 	lb	a2,0(s4)
9d005f7c:	03c61021 	addu	v0,s8,a2
9d005f80:	90420000 	lbu	v0,0(v0)
9d005f84:	30420004 	andi	v0,v0,0x4
9d005f88:	1440ffe9 	bnez	v0,9d005f30 <__strtod+0xa8>
9d005f8c:	02569025 	or	s2,s2,s6
9d005f90:	24030001 	li	v1,1
9d005f94:	2402002e 	li	v0,46
9d005f98:	50c20048 	beql	a2,v0,9d0060bc <__strtod+0x234>
9d005f9c:	82820001 	lb	v0,1(s4)
9d005fa0:	54600072 	bnezl	v1,9d00616c <__strtod+0x2e4>
9d005fa4:	82820000 	lb	v0,0(s4)
9d005fa8:	12a0002a 	beqz	s5,9d006054 <__strtod+0x1cc>
9d005fac:	00000000 	nop
9d005fb0:	02e0a021 	move	s4,s7
9d005fb4:	0000b821 	move	s7,zero
9d005fb8:	aeb40000 	sw	s4,0(s5)
9d005fbc:	12e00025 	beqz	s7,9d006054 <__strtod+0x1cc>
9d005fc0:	00004021 	move	t0,zero
9d005fc4:	001717c3 	sra	v0,s7,0x1f
9d005fc8:	0057b026 	xor	s6,v0,s7
9d005fcc:	02c2b023 	subu	s6,s6,v0
9d005fd0:	3c159d01 	lui	s5,0x9d01
9d005fd4:	26b5a028 	addiu	s5,s5,-24536
9d005fd8:	3c093ff0 	lui	t1,0x3ff0
9d005fdc:	0b4017fb 	j	9d005fec <__strtod+0x164>
9d005fe0:	24140009 	li	s4,9
9d005fe4:	1280000e 	beqz	s4,9d006020 <__strtod+0x198>
9d005fe8:	26b5fff8 	addiu	s5,s5,-8
9d005fec:	2694ffff 	addiu	s4,s4,-1
9d005ff0:	02961007 	srav	v0,s6,s4
9d005ff4:	30420001 	andi	v0,v0,0x1
9d005ff8:	1040fffa 	beqz	v0,9d005fe4 <__strtod+0x15c>
9d005ffc:	01002021 	move	a0,t0
9d006000:	8ea60000 	lw	a2,0(s5)
9d006004:	8ea70004 	lw	a3,4(s5)
9d006008:	0f401b33 	jal	9d006ccc <.LFE23>
9d00600c:	01202821 	move	a1,t1
9d006010:	00404021 	move	t0,v0
9d006014:	00604821 	move	t1,v1
9d006018:	1680fff4 	bnez	s4,9d005fec <__strtod+0x164>
9d00601c:	26b5fff8 	addiu	s5,s5,-8
9d006020:	02202021 	move	a0,s1
9d006024:	02002821 	move	a1,s0
9d006028:	01003021 	move	a2,t0
9d00602c:	06e00075 	bltz	s7,9d006204 <__strtod+0x37c>
9d006030:	01203821 	move	a3,t1
9d006034:	0f401b33 	jal	9d006ccc <.LFE23>
9d006038:	00000000 	nop
9d00603c:	00402021 	move	a0,v0
9d006040:	00602821 	move	a1,v1
9d006044:	0f40214c 	jal	9d008530 <__ldexp>
9d006048:	02e03021 	move	a2,s7
9d00604c:	00408821 	move	s1,v0
9d006050:	00608021 	move	s0,v1
9d006054:	1220007b 	beqz	s1,9d006244 <__strtod+0x3bc>
9d006058:	7e02f000 	ext	v0,s0,0x0,0x1f
9d00605c:	02301025 	or	v0,s1,s0
9d006060:	10400073 	beqz	v0,9d006230 <__strtod+0x3a8>
9d006064:	00000000 	nop
9d006068:	12600007 	beqz	s3,9d006088 <__strtod+0x200>
9d00606c:	02201021 	move	v0,s1
9d006070:	02202021 	move	a0,s1
9d006074:	0f4028f2 	jal	9d00a3c8 <__negdf2>
9d006078:	02002821 	move	a1,s0
9d00607c:	00408821 	move	s1,v0
9d006080:	00608021 	move	s0,v1
9d006084:	02201021 	move	v0,s1
9d006088:	02001821 	move	v1,s0
9d00608c:	8fbf0034 	lw	ra,52(sp)
9d006090:	8fbe0030 	lw	s8,48(sp)
9d006094:	8fb7002c 	lw	s7,44(sp)
9d006098:	8fb60028 	lw	s6,40(sp)
9d00609c:	8fb50024 	lw	s5,36(sp)
9d0060a0:	8fb40020 	lw	s4,32(sp)
9d0060a4:	8fb3001c 	lw	s3,28(sp)
9d0060a8:	8fb20018 	lw	s2,24(sp)
9d0060ac:	8fb10014 	lw	s1,20(sp)
9d0060b0:	8fb00010 	lw	s0,16(sp)
9d0060b4:	03e00008 	jr	ra
9d0060b8:	27bd0038 	addiu	sp,sp,56
9d0060bc:	03c22021 	addu	a0,s8,v0
9d0060c0:	90840000 	lbu	a0,0(a0)
9d0060c4:	30840004 	andi	a0,a0,0x4
9d0060c8:	1080ffb5 	beqz	a0,9d005fa0 <__strtod+0x118>
9d0060cc:	26940001 	addiu	s4,s4,1
9d0060d0:	0000b821 	move	s7,zero
9d0060d4:	2456ffd0 	addiu	s6,v0,-48
9d0060d8:	02002821 	move	a1,s0
9d0060dc:	02202021 	move	a0,s1
9d0060e0:	00003021 	move	a2,zero
9d0060e4:	0f401b33 	jal	9d006ccc <.LFE23>
9d0060e8:	3c074024 	lui	a3,0x4024
9d0060ec:	00408021 	move	s0,v0
9d0060f0:	00608821 	move	s1,v1
9d0060f4:	0f4026b4 	jal	9d009ad0 <__floatsidf>
9d0060f8:	02c02021 	move	a0,s6
9d0060fc:	02002021 	move	a0,s0
9d006100:	02202821 	move	a1,s1
9d006104:	00403021 	move	a2,v0
9d006108:	00603821 	move	a3,v1
9d00610c:	0f401698 	jal	9d005a60 <__adddf3>
9d006110:	26940001 	addiu	s4,s4,1
9d006114:	00408821 	move	s1,v0
9d006118:	00608021 	move	s0,v1
9d00611c:	82820000 	lb	v0,0(s4)
9d006120:	02569025 	or	s2,s2,s6
9d006124:	03c21821 	addu	v1,s8,v0
9d006128:	90630000 	lbu	v1,0(v1)
9d00612c:	30630004 	andi	v1,v1,0x4
9d006130:	1460ffe8 	bnez	v1,9d0060d4 <__strtod+0x24c>
9d006134:	26f7ffff 	addiu	s7,s7,-1
9d006138:	2403ffdf 	li	v1,-33
9d00613c:	00431824 	and	v1,v0,v1
9d006140:	7c031c20 	seb	v1,v1
9d006144:	24020045 	li	v0,69
9d006148:	5062000f 	beql	v1,v0,9d006188 <__strtod+0x300>
9d00614c:	82830001 	lb	v1,1(s4)
9d006150:	56a0ff9a 	bnezl	s5,9d005fbc <__strtod+0x134>
9d006154:	aeb40000 	sw	s4,0(s5)
9d006158:	0b4017ef 	j	9d005fbc <__strtod+0x134>
9d00615c:	00000000 	nop
9d006160:	26940001 	addiu	s4,s4,1
9d006164:	0b4017c4 	j	9d005f10 <__strtod+0x88>
9d006168:	24130001 	li	s3,1
9d00616c:	2403ffdf 	li	v1,-33
9d006170:	00431824 	and	v1,v0,v1
9d006174:	7c031c20 	seb	v1,v1
9d006178:	24020045 	li	v0,69
9d00617c:	1462fff4 	bne	v1,v0,9d006150 <__strtod+0x2c8>
9d006180:	0000b821 	move	s7,zero
9d006184:	82830001 	lb	v1,1(s4)
9d006188:	2402002d 	li	v0,45
9d00618c:	10620019 	beq	v1,v0,9d0061f4 <__strtod+0x36c>
9d006190:	2402002b 	li	v0,43
9d006194:	50620023 	beql	v1,v0,9d006224 <__strtod+0x39c>
9d006198:	82830002 	lb	v1,2(s4)
9d00619c:	26940001 	addiu	s4,s4,1
9d0061a0:	00003821 	move	a3,zero
9d0061a4:	03c31021 	addu	v0,s8,v1
9d0061a8:	90420000 	lbu	v0,0(v0)
9d0061ac:	30420004 	andi	v0,v0,0x4
9d0061b0:	1040000c 	beqz	v0,9d0061e4 <__strtod+0x35c>
9d0061b4:	00001021 	move	v0,zero
9d0061b8:	26940001 	addiu	s4,s4,1
9d0061bc:	2465ffd0 	addiu	a1,v1,-48
9d0061c0:	82830000 	lb	v1,0(s4)
9d0061c4:	00023040 	sll	a2,v0,0x1
9d0061c8:	000210c0 	sll	v0,v0,0x3
9d0061cc:	03c32021 	addu	a0,s8,v1
9d0061d0:	90840000 	lbu	a0,0(a0)
9d0061d4:	00c21021 	addu	v0,a2,v0
9d0061d8:	30840004 	andi	a0,a0,0x4
9d0061dc:	1480fff6 	bnez	a0,9d0061b8 <__strtod+0x330>
9d0061e0:	00451021 	addu	v0,v0,a1
9d0061e4:	00021823 	negu	v1,v0
9d0061e8:	0067100b 	movn	v0,v1,a3
9d0061ec:	0b401854 	j	9d006150 <__strtod+0x2c8>
9d0061f0:	02e2b821 	addu	s7,s7,v0
9d0061f4:	82830002 	lb	v1,2(s4)
9d0061f8:	24070001 	li	a3,1
9d0061fc:	0b401869 	j	9d0061a4 <__strtod+0x31c>
9d006200:	26940002 	addiu	s4,s4,2
9d006204:	0f40120c 	jal	9d004830 <__divdf3>
9d006208:	00000000 	nop
9d00620c:	00402021 	move	a0,v0
9d006210:	0b401811 	j	9d006044 <__strtod+0x1bc>
9d006214:	00602821 	move	a1,v1
9d006218:	00001821 	move	v1,zero
9d00621c:	0b4017e5 	j	9d005f94 <__strtod+0x10c>
9d006220:	00009021 	move	s2,zero
9d006224:	00003821 	move	a3,zero
9d006228:	0b401869 	j	9d0061a4 <__strtod+0x31c>
9d00622c:	26940002 	addiu	s4,s4,2
9d006230:	1240ff8d 	beqz	s2,9d006068 <__strtod+0x1e0>
9d006234:	24030022 	li	v1,34
9d006238:	3c02a000 	lui	v0,0xa000
9d00623c:	0b40181a 	j	9d006068 <__strtod+0x1e0>
9d006240:	ac430020 	sw	v1,32(v0)
9d006244:	3c037ff0 	lui	v1,0x7ff0
9d006248:	1443ff85 	bne	v0,v1,9d006060 <__strtod+0x1d8>
9d00624c:	02301025 	or	v0,s1,s0
9d006250:	0b40188e 	j	9d006238 <__strtod+0x3b0>
9d006254:	24030022 	li	v1,34

Disassembly of section .text:

9d006258 <makeWaveform>:


void makeWaveform()
{
  int i = 0, center = 10000, A = 5000; // center= (PR2+1)/2, A = center/2
  for (i = 0; i < NUMSAMPS; ++i)
9d006258:	00001021 	move	v0,zero
  {
    if ( i < NUMSAMPS/2) {
      Waveform[i] = center + A;
    } else {
      Waveform[i] = center - A;
9d00625c:	3c05a000 	lui	a1,0xa000
9d006260:	24a50664 	addiu	a1,a1,1636
9d006264:	24071388 	li	a3,5000
{
  int i = 0, center = 10000, A = 5000; // center= (PR2+1)/2, A = center/2
  for (i = 0; i < NUMSAMPS; ++i)
  {
    if ( i < NUMSAMPS/2) {
      Waveform[i] = center + A;
9d006268:	24063a98 	li	a2,15000


void makeWaveform()
{
  int i = 0, center = 10000, A = 5000; // center= (PR2+1)/2, A = center/2
  for (i = 0; i < NUMSAMPS; ++i)
9d00626c:	240403e8 	li	a0,1000
  {
    if ( i < NUMSAMPS/2) {
9d006270:	284301f4 	slti	v1,v0,500
9d006274:	10600005 	beqz	v1,9d00628c <makeWaveform+0x34>
9d006278:	00021880 	sll	v1,v0,0x2
      Waveform[i] = center + A;
9d00627c:	00651821 	addu	v1,v1,a1
9d006280:	ac660000 	sw	a2,0(v1)
9d006284:	0b4018a6 	j	9d006298 <makeWaveform+0x40>
9d006288:	24420001 	addiu	v0,v0,1
    } else {
      Waveform[i] = center - A;
9d00628c:	00651821 	addu	v1,v1,a1
9d006290:	ac670000 	sw	a3,0(v1)


void makeWaveform()
{
  int i = 0, center = 10000, A = 5000; // center= (PR2+1)/2, A = center/2
  for (i = 0; i < NUMSAMPS; ++i)
9d006294:	24420001 	addiu	v0,v0,1
9d006298:	1444fff6 	bne	v0,a0,9d006274 <makeWaveform+0x1c>
9d00629c:	284301f4 	slti	v1,v0,500
      Waveform[i] = center + A;
    } else {
      Waveform[i] = center - A;
    }
  }
}
9d0062a0:	03e00008 	jr	ra
9d0062a4:	00000000 	nop

9d0062a8 <main>:

void makeWaveform();

void __ISR(_TIMER_2_VECTOR, IPL5SOFT) Controller(void);

int main(void){
9d0062a8:	27bdff58 	addiu	sp,sp,-168
9d0062ac:	afbf00a4 	sw	ra,164(sp)
9d0062b0:	afb500a0 	sw	s5,160(sp)
9d0062b4:	afb4009c 	sw	s4,156(sp)
9d0062b8:	afb30098 	sw	s3,152(sp)
9d0062bc:	afb20094 	sw	s2,148(sp)
9d0062c0:	afb10090 	sw	s1,144(sp)
9d0062c4:	afb0008c 	sw	s0,140(sp)
  char message[100];
  float kptemp = 0, kitemp = 0;
9d0062c8:	00001021 	move	v0,zero
9d0062cc:	afa2007c 	sw	v0,124(sp)
  int i = 0;
  
  NU32_Startup();          // cache on, interrupts on, LED/button init, UART init
9d0062d0:	0f40206c 	jal	9d0081b0 <NU32_Startup>
9d0062d4:	afa20080 	sw	v0,128(sp)

9d0062d8 <.LVL4>:
  T3CONbits.TCKPS = 0;     // Timer3 prescaler N=1 (1:1)
9d0062d8:	3c03bf80 	lui	v1,0xbf80
9d0062dc:	94620a00 	lhu	v0,2560(v1)
9d0062e0:	7c023104 	ins	v0,zero,0x4,0x3
9d0062e4:	a4620a00 	sh	v0,2560(v1)
  PR3 = 3999;              // period = (PR3+1) * N(=1) * 12.5 ns = 200 us, 20 kHz
9d0062e8:	24040f9f 	li	a0,3999
9d0062ec:	3c02bf80 	lui	v0,0xbf80
9d0062f0:	ac440a20 	sw	a0,2592(v0)
  TMR3 = 0;                // initial TMR3 count is 0
9d0062f4:	3c02bf80 	lui	v0,0xbf80
9d0062f8:	ac400a10 	sw	zero,2576(v0)
  OC1CONbits.OCM = 0b110;  // PWM mode without fault pin; other OC1CON bits are defaults
9d0062fc:	3c02bf80 	lui	v0,0xbf80
9d006300:	94443000 	lhu	a0,12288(v0)
9d006304:	24050006 	li	a1,6
9d006308:	7ca41004 	ins	a0,a1,0x0,0x3
9d00630c:	a4443000 	sh	a0,12288(v0)
  OC1CONbits.OCTSEL = 0;    // enable OC1COn
9d006310:	94443000 	lhu	a0,12288(v0)
9d006314:	7c0418c4 	ins	a0,zero,0x3,0x1
9d006318:	a4443000 	sh	a0,12288(v0)
  OC1R = 3000;              // initialize before turning OC1 on; afterward it is read-only
9d00631c:	24050bb8 	li	a1,3000
9d006320:	3c04bf80 	lui	a0,0xbf80
9d006324:	ac853010 	sw	a1,12304(a0)
  T3CONbits.ON = 1;        // turn on Timer3
9d006328:	94650a00 	lhu	a1,2560(v1)
9d00632c:	24040001 	li	a0,1
9d006330:	7c857bc4 	ins	a1,a0,0xf,0x1
9d006334:	a4650a00 	sh	a1,2560(v1)
  OC1CONbits.ON = 1;       // turn on OC1
9d006338:	94433000 	lhu	v1,12288(v0)
9d00633c:	7c837bc4 	ins	v1,a0,0xf,0x1
9d006340:	a4433000 	sh	v1,12288(v0)
  T2CONbits.TCKPS = 2;      // Timer2 prescaler 
9d006344:	3c02bf80 	lui	v0,0xbf80
9d006348:	94430800 	lhu	v1,2048(v0)
9d00634c:	24050002 	li	a1,2
9d006350:	7ca33104 	ins	v1,a1,0x4,0x3
9d006354:	a4430800 	sh	v1,2048(v0)
  PR2 = 19999;              //period = (PR2+1) * N() * 12.5 ns 
9d006358:	24054e1f 	li	a1,19999
9d00635c:	3c03bf80 	lui	v1,0xbf80
9d006360:	ac650820 	sw	a1,2080(v1)
  TMR2= 0;                  // initial TMR2 count is 0F
9d006364:	3c03bf80 	lui	v1,0xbf80
9d006368:	ac600810 	sw	zero,2064(v1)
  T2CONbits.ON = 1;  // turn on Timer2
9d00636c:	94430800 	lhu	v1,2048(v0)
9d006370:	7c837bc4 	ins	v1,a0,0xf,0x1
9d006374:	a4430800 	sh	v1,2048(v0)
  
  makeWaveform();
9d006378:	0f401896 	jal	9d006258 <makeWaveform>
9d00637c:	00000000 	nop

9d006380 <.LVL5>:

  __builtin_disable_interrupts();
9d006380:	41626000 	di	v0
9d006384:	000000c0 	ehb
  IPC2bits.T2IP = 5;
9d006388:	3c02bf88 	lui	v0,0xbf88
9d00638c:	8c4310b0 	lw	v1,4272(v0)
9d006390:	24040005 	li	a0,5
9d006394:	7c832084 	ins	v1,a0,0x2,0x3
9d006398:	ac4310b0 	sw	v1,4272(v0)
  IPC2bits.T2IS = 1;
9d00639c:	8c4310b0 	lw	v1,4272(v0)
9d0063a0:	24040001 	li	a0,1
9d0063a4:	7c830804 	ins	v1,a0,0x0,0x2
9d0063a8:	ac4310b0 	sw	v1,4272(v0)
  IFS0bits.T2IF = 0;
9d0063ac:	3c02bf88 	lui	v0,0xbf88
9d0063b0:	8c431030 	lw	v1,4144(v0)
9d0063b4:	7c034204 	ins	v1,zero,0x8,0x1
9d0063b8:	ac431030 	sw	v1,4144(v0)
  IEC0bits.T2IE = 1;
9d0063bc:	3c02bf88 	lui	v0,0xbf88
9d0063c0:	8c431060 	lw	v1,4192(v0)
9d0063c4:	7c834204 	ins	v1,a0,0x8,0x1
9d0063c8:	ac431060 	sw	v1,4192(v0)
  __builtin_enable_interrupts();
9d0063cc:	41626020 	ei	v0

  _CP0_SET_COUNT(0);
9d0063d0:	00001021 	move	v0,zero
9d0063d4:	40824800 	mtc0	v0,c0_count
9d0063d8:	000000c0 	ehb

  while(_CP0_GET_COUNT() < 4 * 40000000){
9d0063dc:	3c020989 	lui	v0,0x989
9d0063e0:	24426800 	addiu	v0,v0,26624
9d0063e4:	40034800 	mfc0	v1,c0_count
9d0063e8:	0062182b 	sltu	v1,v1,v0
9d0063ec:	1460fffd 	bnez	v1,9d0063e4 <.LVL5+0x64>
9d0063f0:	3c159d01 	lui	s5,0x9d01
    ;
  }
  while(1) { // infinite loop
    NU32_ReadUART3(message, sizeof(message));
    sscanf(message, "%f %f", &kptemp, &kitemp);
9d0063f4:	26b5a414 	addiu	s5,s5,-23532
    StoringData = 1;
    while(StoringData) {
    ;                  
  }
  for (i=0; i<PLOTPTS; i++){
    sprintf(message, "%d %d %d\r\n", PLOTPTS-i, ADCarray[i], REFarray[i]);
9d0063f8:	3c14a000 	lui	s4,0xa000
9d0063fc:	26940344 	addiu	s4,s4,836
9d006400:	3c13a000 	lui	s3,0xa000
9d006404:	26730024 	addiu	s3,s3,36
9d006408:	3c129d01 	lui	s2,0x9d01
9d00640c:	2652a41c 	addiu	s2,s2,-23524

  while(_CP0_GET_COUNT() < 4 * 40000000){
    ;
  }
  while(1) { // infinite loop
    NU32_ReadUART3(message, sizeof(message));
9d006410:	27a40018 	addiu	a0,sp,24
9d006414:	0f4020b1 	jal	9d0082c4 <NU32_ReadUART3>
9d006418:	24050064 	li	a1,100

9d00641c <.LVL7>:
    sscanf(message, "%f %f", &kptemp, &kitemp);
9d00641c:	27a40018 	addiu	a0,sp,24
9d006420:	02a02821 	move	a1,s5
9d006424:	27a6007c 	addiu	a2,sp,124
9d006428:	0f4026d2 	jal	9d009b48 <_sscanf_fF>
9d00642c:	27a70080 	addiu	a3,sp,128

9d006430 <.LVL8>:
    __builtin_disable_interrupts();
9d006430:	41626000 	di	v0
9d006434:	000000c0 	ehb
    kp = kptemp;
9d006438:	8fa2007c 	lw	v0,124(sp)
9d00643c:	af828028 	sw	v0,-32728(gp)
    ki = kitemp;
9d006440:	8fa20080 	lw	v0,128(sp)
9d006444:	af828024 	sw	v0,-32732(gp)
    __builtin_enable_interrupts();
9d006448:	41626020 	ei	v0
    StoringData = 1;
9d00644c:	24020001 	li	v0,1
9d006450:	af82802c 	sw	v0,-32724(gp)
    while(StoringData) {
9d006454:	8f82802c 	lw	v0,-32724(gp)
9d006458:	1440fffe 	bnez	v0,9d006454 <.LVL8+0x24>
9d00645c:	00008021 	move	s0,zero
9d006460:	241100c8 	li	s1,200
    ;                  
  }
  for (i=0; i<PLOTPTS; i++){
    sprintf(message, "%d %d %d\r\n", PLOTPTS-i, ADCarray[i], REFarray[i]);
9d006464:	00101080 	sll	v0,s0,0x2
9d006468:	00541821 	addu	v1,v0,s4
9d00646c:	8c670000 	lw	a3,0(v1)
9d006470:	00531021 	addu	v0,v0,s3
9d006474:	8c420000 	lw	v0,0(v0)
9d006478:	afa20010 	sw	v0,16(sp)
9d00647c:	27a40018 	addiu	a0,sp,24
9d006480:	02402821 	move	a1,s2
9d006484:	0f4026ef 	jal	9d009bbc <_sprintf_cdnopuxX>
9d006488:	02303023 	subu	a2,s1,s0

9d00648c <.LVL10>:
    NU32_WriteUART3(message);
9d00648c:	0f4020ce 	jal	9d008338 <NU32_WriteUART3>
9d006490:	27a40018 	addiu	a0,sp,24

9d006494 <.LVL11>:
    __builtin_enable_interrupts();
    StoringData = 1;
    while(StoringData) {
    ;                  
  }
  for (i=0; i<PLOTPTS; i++){
9d006494:	26100001 	addiu	s0,s0,1
9d006498:	1611fff3 	bne	s0,s1,9d006468 <.LVL8+0x38>
9d00649c:	00101080 	sll	v0,s0,0x2
9d0064a0:	0b401905 	j	9d006414 <.LVL5+0x94>
9d0064a4:	27a40018 	addiu	a0,sp,24

9d0064a8 <Controller>:
    }
  }
}


void __ISR(_TIMER_2_VECTOR, IPL5SOFT) Controller(void) { // _TIMER_2_VECTOR = 8
9d0064a8:	415de800 	rdpgpr	sp,sp
9d0064ac:	401a7000 	mfc0	k0,c0_epc
9d0064b0:	401b6000 	mfc0	k1,c0_status
9d0064b4:	27bdffd8 	addiu	sp,sp,-40
9d0064b8:	afba0024 	sw	k0,36(sp)
9d0064bc:	401a6002 	mfc0	k0,c0_srsctl
9d0064c0:	afbb0020 	sw	k1,32(sp)
9d0064c4:	afba001c 	sw	k0,28(sp)
9d0064c8:	7c1b7844 	ins	k1,zero,0x1,0xf
9d0064cc:	377b1400 	ori	k1,k1,0x1400
9d0064d0:	409b6000 	mtc0	k1,c0_status
9d0064d4:	afa60014 	sw	a2,20(sp)
9d0064d8:	afa50010 	sw	a1,16(sp)
9d0064dc:	afa4000c 	sw	a0,12(sp)
9d0064e0:	afa30008 	sw	v1,8(sp)
9d0064e4:	afa20004 	sw	v0,4(sp)
  static int counter = 0;  // initialize counter once
  static int plotind = 0;
  static int decctr = 0;
  static int adcval = 0;
 
  OC1RS = Waveform[counter]; // insert line(s) to set OC1RS
9d0064e8:	8f828020 	lw	v0,-32736(gp)
9d0064ec:	00022080 	sll	a0,v0,0x2
9d0064f0:	3c03a000 	lui	v1,0xa000
9d0064f4:	24630664 	addiu	v1,v1,1636
9d0064f8:	00831821 	addu	v1,a0,v1
9d0064fc:	8c640000 	lw	a0,0(v1)
9d006500:	3c03bf80 	lui	v1,0xbf80
9d006504:	ac643020 	sw	a0,12320(v1)
  //counter++;                        // add one to counter every time ISR is entered      
                         
  if (StoringData) {
9d006508:	8f83802c 	lw	v1,-32724(gp)
9d00650c:	50600020 	beqzl	v1,9d006590 <Controller+0xe8>
9d006510:	24420001 	addiu	v0,v0,1
    decctr++;
9d006514:	8f83801c 	lw	v1,-32740(gp)
9d006518:	24630001 	addiu	v1,v1,1
    if (decctr == DECIMATION) {
9d00651c:	2404000a 	li	a0,10
9d006520:	50640003 	beql	v1,a0,9d006530 <Controller+0x88>
9d006524:	af80801c 	sw	zero,-32740(gp)
 
  OC1RS = Waveform[counter]; // insert line(s) to set OC1RS
  //counter++;                        // add one to counter every time ISR is entered      
                         
  if (StoringData) {
    decctr++;
9d006528:	0b40195d 	j	9d006574 <Controller+0xcc>
9d00652c:	af83801c 	sw	v1,-32740(gp)
    if (decctr == DECIMATION) {
    decctr = 0;
    ADCarray[plotind] = adcval;
9d006530:	8f838018 	lw	v1,-32744(gp)
9d006534:	00032080 	sll	a0,v1,0x2
9d006538:	3c05a000 	lui	a1,0xa000
9d00653c:	24a50344 	addiu	a1,a1,836
9d006540:	00852821 	addu	a1,a0,a1
9d006544:	aca00000 	sw	zero,0(a1)
    REFarray[plotind] = Waveform[counter];
9d006548:	00022880 	sll	a1,v0,0x2
9d00654c:	3c06a000 	lui	a2,0xa000
9d006550:	24c60664 	addiu	a2,a2,1636
9d006554:	00a62821 	addu	a1,a1,a2
9d006558:	8ca50000 	lw	a1,0(a1)
9d00655c:	3c06a000 	lui	a2,0xa000
9d006560:	24c60024 	addiu	a2,a2,36
9d006564:	00862021 	addu	a0,a0,a2
9d006568:	ac850000 	sw	a1,0(a0)
    plotind++;
9d00656c:	24630001 	addiu	v1,v1,1
9d006570:	af838018 	sw	v1,-32744(gp)
  }
  if (plotind == PLOTPTS) {
9d006574:	240300c8 	li	v1,200
9d006578:	8f848018 	lw	a0,-32744(gp)
9d00657c:	54830004 	bnel	a0,v1,9d006590 <Controller+0xe8>
9d006580:	24420001 	addiu	v0,v0,1
    plotind = 0;
9d006584:	af808018 	sw	zero,-32744(gp)
    StoringData = 0;
9d006588:	af80802c 	sw	zero,-32724(gp)
  }
  }
  counter++;
9d00658c:	24420001 	addiu	v0,v0,1
9d006590:	384303e8 	xori	v1,v0,0x3e8
9d006594:	0003100a 	movz	v0,zero,v1
9d006598:	af828020 	sw	v0,-32736(gp)
  if (counter == NUMSAMPS){
    counter = 0;
   }
   IFS0bits.T2IF = 0; // insert line to clear interrupt flag
9d00659c:	3c02bf88 	lui	v0,0xbf88
9d0065a0:	8c431030 	lw	v1,4144(v0)
9d0065a4:	7c034204 	ins	v1,zero,0x8,0x1
9d0065a8:	ac431030 	sw	v1,4144(v0)
  }
9d0065ac:	8fa60014 	lw	a2,20(sp)
9d0065b0:	8fa50010 	lw	a1,16(sp)
9d0065b4:	8fa4000c 	lw	a0,12(sp)
9d0065b8:	8fa30008 	lw	v1,8(sp)
9d0065bc:	8fa20004 	lw	v0,4(sp)
9d0065c0:	41606000 	di
9d0065c4:	000000c0 	ehb
9d0065c8:	8fba0024 	lw	k0,36(sp)
9d0065cc:	8fbb0020 	lw	k1,32(sp)
9d0065d0:	409a7000 	mtc0	k0,c0_epc
9d0065d4:	8fba001c 	lw	k0,28(sp)
9d0065d8:	27bd0028 	addiu	sp,sp,40
9d0065dc:	409a6002 	mtc0	k0,c0_srsctl
9d0065e0:	41dde800 	wrpgpr	sp,sp
9d0065e4:	409b6000 	mtc0	k1,c0_status
9d0065e8:	42000018 	eret

Disassembly of section .text.strtoll:

9d0065ec <strtoll>:
9d0065ec:	27bdffd0 	addiu	sp,sp,-48
9d0065f0:	afbf002c 	sw	ra,44(sp)
9d0065f4:	afb60028 	sw	s6,40(sp)
9d0065f8:	afb50024 	sw	s5,36(sp)
9d0065fc:	afb40020 	sw	s4,32(sp)
9d006600:	afb3001c 	sw	s3,28(sp)
9d006604:	afb20018 	sw	s2,24(sp)
9d006608:	afb10014 	sw	s1,20(sp)
9d00660c:	afb00010 	sw	s0,16(sp)
9d006610:	00809821 	move	s3,a0
9d006614:	80820000 	lb	v0,0(a0)
9d006618:	00a0a021 	move	s4,a1
9d00661c:	104000c0 	beqz	v0,9d006920 <strtoll+0x334>
9d006620:	00c09021 	move	s2,a2
9d006624:	3c049d01 	lui	a0,0x9d01
9d006628:	24848cf1 	addiu	a0,a0,-29455
9d00662c:	00821821 	addu	v1,a0,v0
9d006630:	80630000 	lb	v1,0(v1)
9d006634:	30630088 	andi	v1,v1,0x88
9d006638:	14600007 	bnez	v1,9d006658 <strtoll+0x6c>
9d00663c:	02608821 	move	s1,s3
9d006640:	0b401a16 	j	9d006858 <strtoll+0x26c>
9d006644:	2403002b 	li	v1,43
9d006648:	80630000 	lb	v1,0(v1)
9d00664c:	30630088 	andi	v1,v1,0x88
9d006650:	50600081 	beqzl	v1,9d006858 <strtoll+0x26c>
9d006654:	2403002b 	li	v1,43
9d006658:	26310001 	addiu	s1,s1,1
9d00665c:	82220000 	lb	v0,0(s1)
9d006660:	1440fff9 	bnez	v0,9d006648 <strtoll+0x5c>
9d006664:	00821821 	addu	v1,a0,v0
9d006668:	00008021 	move	s0,zero
9d00666c:	0000b021 	move	s6,zero
9d006670:	16400063 	bnez	s2,9d006800 <strtoll+0x214>
9d006674:	24020010 	li	v0,16
9d006678:	24020030 	li	v0,48
9d00667c:	12020090 	beq	s0,v0,9d0068c0 <strtoll+0x2d4>
9d006680:	3c0fcccc 	lui	t7,0xcccc
9d006684:	35efcccc 	ori	t7,t7,0xcccc
9d006688:	3c0b0ccc 	lui	t3,0xccc
9d00668c:	356bcccc 	ori	t3,t3,0xcccc
9d006690:	240c000a 	li	t4,10
9d006694:	0000a821 	move	s5,zero
9d006698:	00002021 	move	a0,zero
9d00669c:	2412000a 	li	s2,10
9d0066a0:	2628ffff 	addiu	t0,s1,-1
9d0066a4:	00002821 	move	a1,zero
9d0066a8:	00001021 	move	v0,zero
9d0066ac:	00001821 	move	v1,zero
9d0066b0:	3c079d01 	lui	a3,0x9d01
9d0066b4:	24e78cf1 	addiu	a3,a3,-29455
9d0066b8:	240e0061 	li	t6,97
9d0066bc:	240d0041 	li	t5,65
9d0066c0:	3c187fff 	lui	t8,0x7fff
9d0066c4:	3718ffff 	ori	t8,t8,0xffff
9d0066c8:	1200002c 	beqz	s0,9d00677c <strtoll+0x190>
9d0066cc:	25080001 	addiu	t0,t0,1
9d0066d0:	02074821 	addu	t1,s0,a3
9d0066d4:	91290000 	lbu	t1,0(t1)
9d0066d8:	312a0004 	andi	t2,t1,0x4
9d0066dc:	11400041 	beqz	t2,9d0067e4 <strtoll+0x1f8>
9d0066e0:	31260003 	andi	a2,t1,0x3
9d0066e4:	2610ffd0 	addiu	s0,s0,-48
9d0066e8:	06000024 	bltz	s0,9d00677c <strtoll+0x190>
9d0066ec:	0212482a 	slt	t1,s0,s2
9d0066f0:	11200022 	beqz	t1,9d00677c <strtoll+0x190>
9d0066f4:	0163482a 	slt	t1,t3,v1
9d0066f8:	55200037 	bnezl	t1,9d0067d8 <strtoll+0x1ec>
9d0066fc:	24050001 	li	a1,1
9d006700:	146b0003 	bne	v1,t3,9d006710 <strtoll+0x124>
9d006704:	01e2202b 	sltu	a0,t7,v0
9d006708:	54800033 	bnezl	a0,9d0067d8 <strtoll+0x1ec>
9d00670c:	24050001 	li	a1,1
9d006710:	14a00030 	bnez	a1,9d0067d4 <strtoll+0x1e8>
9d006714:	02a20018 	mult	s5,v0
9d006718:	001027c3 	sra	a0,s0,0x1f
9d00671c:	71830000 	madd	t4,v1
9d006720:	00003012 	mflo	a2
9d006724:	004c0019 	multu	v0,t4
9d006728:	00001012 	mflo	v0
9d00672c:	00001810 	mfhi	v1
9d006730:	00c31821 	addu	v1,a2,v1
9d006734:	03033023 	subu	a2,t8,v1
9d006738:	00c4482a 	slt	t1,a2,a0
9d00673c:	15200025 	bnez	t1,9d0067d4 <strtoll+0x1e8>
9d006740:	00025027 	nor	t2,zero,v0
9d006744:	54860005 	bnel	a0,a2,9d00675c <strtoll+0x170>
9d006748:	02028021 	addu	s0,s0,v0
9d00674c:	0150502b 	sltu	t2,t2,s0
9d006750:	55400021 	bnezl	t2,9d0067d8 <strtoll+0x1ec>
9d006754:	24050001 	li	a1,1
9d006758:	02028021 	addu	s0,s0,v0
9d00675c:	0202302b 	sltu	a2,s0,v0
9d006760:	00642021 	addu	a0,v1,a0
9d006764:	02001021 	move	v0,s0
9d006768:	00c41821 	addu	v1,a2,a0
9d00676c:	81100001 	lb	s0,1(t0)
9d006770:	24040001 	li	a0,1
9d006774:	1600ffd6 	bnez	s0,9d0066d0 <strtoll+0xe4>
9d006778:	25080001 	addiu	t0,t0,1
9d00677c:	12c0002d 	beqz	s6,9d006834 <strtoll+0x248>
9d006780:	00000000 	nop
9d006784:	54a0003b 	bnezl	a1,9d006874 <strtoll+0x288>
9d006788:	24030022 	li	v1,34
9d00678c:	00023823 	negu	a3,v0
9d006790:	0007282b 	sltu	a1,zero,a3
9d006794:	00033023 	negu	a2,v1
9d006798:	00e01021 	move	v0,a3
9d00679c:	00c51823 	subu	v1,a2,a1
9d0067a0:	12800002 	beqz	s4,9d0067ac <strtoll+0x1c0>
9d0067a4:	0264400a 	movz	t0,s3,a0
9d0067a8:	ae880000 	sw	t0,0(s4)
9d0067ac:	8fbf002c 	lw	ra,44(sp)
9d0067b0:	8fb60028 	lw	s6,40(sp)
9d0067b4:	8fb50024 	lw	s5,36(sp)
9d0067b8:	8fb40020 	lw	s4,32(sp)
9d0067bc:	8fb3001c 	lw	s3,28(sp)
9d0067c0:	8fb20018 	lw	s2,24(sp)
9d0067c4:	8fb10014 	lw	s1,20(sp)
9d0067c8:	8fb00010 	lw	s0,16(sp)
9d0067cc:	03e00008 	jr	ra
9d0067d0:	27bd0030 	addiu	sp,sp,48
9d0067d4:	24050001 	li	a1,1
9d0067d8:	81100001 	lb	s0,1(t0)
9d0067dc:	0b4019dd 	j	9d006774 <strtoll+0x188>
9d0067e0:	24040001 	li	a0,1
9d0067e4:	10c0ffe5 	beqz	a2,9d00677c <strtoll+0x190>
9d0067e8:	31290001 	andi	t1,t1,0x1
9d0067ec:	01a03021 	move	a2,t5
9d0067f0:	01c9300a 	movz	a2,t6,t1
9d0067f4:	02068023 	subu	s0,s0,a2
9d0067f8:	0b4019ba 	j	9d0066e8 <strtoll+0xfc>
9d0067fc:	2610000a 	addiu	s0,s0,10
9d006800:	12420026 	beq	s2,v0,9d00689c <strtoll+0x2b0>
9d006804:	0012afc3 	sra	s5,s2,0x1f
9d006808:	2404ffff 	li	a0,-1
9d00680c:	3c057fff 	lui	a1,0x7fff
9d006810:	34a5ffff 	ori	a1,a1,0xffff
9d006814:	02403021 	move	a2,s2
9d006818:	0f40133a 	jal	9d004ce8 <__divdi3>
9d00681c:	02a03821 	move	a3,s5
9d006820:	02406021 	move	t4,s2
9d006824:	00407821 	move	t7,v0
9d006828:	00605821 	move	t3,v1
9d00682c:	0b4019a8 	j	9d0066a0 <strtoll+0xb4>
9d006830:	00002021 	move	a0,zero
9d006834:	10a0ffda 	beqz	a1,9d0067a0 <strtoll+0x1b4>
9d006838:	00000000 	nop
9d00683c:	24030022 	li	v1,34
9d006840:	3c02a000 	lui	v0,0xa000
9d006844:	ac430020 	sw	v1,32(v0)
9d006848:	2402ffff 	li	v0,-1
9d00684c:	3c037fff 	lui	v1,0x7fff
9d006850:	0b4019e8 	j	9d0067a0 <strtoll+0x1b4>
9d006854:	3463ffff 	ori	v1,v1,0xffff
9d006858:	5443000b 	bnel	v0,v1,9d006888 <strtoll+0x29c>
9d00685c:	2403002d 	li	v1,45
9d006860:	3842002d 	xori	v0,v0,0x2d
9d006864:	82300001 	lb	s0,1(s1)
9d006868:	2c560001 	sltiu	s6,v0,1
9d00686c:	0b40199c 	j	9d006670 <strtoll+0x84>
9d006870:	26310001 	addiu	s1,s1,1
9d006874:	3c02a000 	lui	v0,0xa000
9d006878:	ac430020 	sw	v1,32(v0)
9d00687c:	00001021 	move	v0,zero
9d006880:	0b4019e8 	j	9d0067a0 <strtoll+0x1b4>
9d006884:	3c038000 	lui	v1,0x8000
9d006888:	5043fff6 	beql	v0,v1,9d006864 <strtoll+0x278>
9d00688c:	3842002d 	xori	v0,v0,0x2d
9d006890:	82300000 	lb	s0,0(s1)
9d006894:	0b40199c 	j	9d006670 <strtoll+0x84>
9d006898:	0000b021 	move	s6,zero
9d00689c:	24020030 	li	v0,48
9d0068a0:	12020023 	beq	s0,v0,9d006930 <strtoll+0x344>
9d0068a4:	240fffff 	li	t7,-1
9d0068a8:	3c0b07ff 	lui	t3,0x7ff
9d0068ac:	356bffff 	ori	t3,t3,0xffff
9d0068b0:	240c0010 	li	t4,16
9d0068b4:	0000a821 	move	s5,zero
9d0068b8:	0b4019a8 	j	9d0066a0 <strtoll+0xb4>
9d0068bc:	00002021 	move	a0,zero
9d0068c0:	82300001 	lb	s0,1(s1)
9d0068c4:	2403ffdf 	li	v1,-33
9d0068c8:	02031824 	and	v1,s0,v1
9d0068cc:	24020058 	li	v0,88
9d0068d0:	5062000a 	beql	v1,v0,9d0068fc <strtoll+0x310>
9d0068d4:	82300002 	lb	s0,2(s1)
9d0068d8:	26310001 	addiu	s1,s1,1
9d0068dc:	240fffff 	li	t7,-1
9d0068e0:	3c0b0fff 	lui	t3,0xfff
9d0068e4:	356bffff 	ori	t3,t3,0xffff
9d0068e8:	240c0008 	li	t4,8
9d0068ec:	0000a821 	move	s5,zero
9d0068f0:	24040001 	li	a0,1
9d0068f4:	0b4019a8 	j	9d0066a0 <strtoll+0xb4>
9d0068f8:	24120008 	li	s2,8
9d0068fc:	240fffff 	li	t7,-1
9d006900:	26310002 	addiu	s1,s1,2
9d006904:	3c0b07ff 	lui	t3,0x7ff
9d006908:	356bffff 	ori	t3,t3,0xffff
9d00690c:	240c0010 	li	t4,16
9d006910:	0000a821 	move	s5,zero
9d006914:	24040001 	li	a0,1
9d006918:	0b4019a8 	j	9d0066a0 <strtoll+0xb4>
9d00691c:	24120010 	li	s2,16
9d006920:	00008021 	move	s0,zero
9d006924:	00808821 	move	s1,a0
9d006928:	0b40199c 	j	9d006670 <strtoll+0x84>
9d00692c:	0000b021 	move	s6,zero
9d006930:	82300001 	lb	s0,1(s1)
9d006934:	2403ffdf 	li	v1,-33
9d006938:	02031824 	and	v1,s0,v1
9d00693c:	24020058 	li	v0,88
9d006940:	50620009 	beql	v1,v0,9d006968 <strtoll+0x37c>
9d006944:	82300002 	lb	s0,2(s1)
9d006948:	26310001 	addiu	s1,s1,1
9d00694c:	240fffff 	li	t7,-1
9d006950:	3c0b07ff 	lui	t3,0x7ff
9d006954:	356bffff 	ori	t3,t3,0xffff
9d006958:	240c0010 	li	t4,16
9d00695c:	0000a821 	move	s5,zero
9d006960:	0b4019a8 	j	9d0066a0 <strtoll+0xb4>
9d006964:	24040001 	li	a0,1
9d006968:	240fffff 	li	t7,-1
9d00696c:	0b401a54 	j	9d006950 <strtoll+0x364>
9d006970:	26310002 	addiu	s1,s1,2

Disassembly of section .text.__strtof:

9d006974 <__strtof>:
9d006974:	27bdffc8 	addiu	sp,sp,-56
9d006978:	afbf0034 	sw	ra,52(sp)
9d00697c:	afb70030 	sw	s7,48(sp)
9d006980:	afb6002c 	sw	s6,44(sp)
9d006984:	afb50028 	sw	s5,40(sp)
9d006988:	afb40024 	sw	s4,36(sp)
9d00698c:	afb30020 	sw	s3,32(sp)
9d006990:	afb2001c 	sw	s2,28(sp)
9d006994:	afb10018 	sw	s1,24(sp)
9d006998:	afb00014 	sw	s0,20(sp)
9d00699c:	0080a821 	move	s5,a0
9d0069a0:	80820000 	lb	v0,0(a0)
9d0069a4:	3c139d01 	lui	s3,0x9d01
9d0069a8:	26738cf1 	addiu	s3,s3,-29455
9d0069ac:	02621821 	addu	v1,s3,v0
9d0069b0:	80630000 	lb	v1,0(v1)
9d0069b4:	00a0b021 	move	s6,a1
9d0069b8:	30630088 	andi	v1,v1,0x88
9d0069bc:	10600008 	beqz	v1,9d0069e0 <__strtof+0x6c>
9d0069c0:	00808021 	move	s0,a0
9d0069c4:	26100001 	addiu	s0,s0,1
9d0069c8:	82020000 	lb	v0,0(s0)
9d0069cc:	02621821 	addu	v1,s3,v0
9d0069d0:	80630000 	lb	v1,0(v1)
9d0069d4:	30630088 	andi	v1,v1,0x88
9d0069d8:	5460fffb 	bnezl	v1,9d0069c8 <__strtof+0x54>
9d0069dc:	26100001 	addiu	s0,s0,1
9d0069e0:	2403002d 	li	v1,45
9d0069e4:	10430081 	beq	v0,v1,9d006bec <__strtof+0x278>
9d0069e8:	3842002b 	xori	v0,v0,0x2b
9d0069ec:	2c420001 	sltiu	v0,v0,1
9d0069f0:	0000b821 	move	s7,zero
9d0069f4:	02028021 	addu	s0,s0,v0
9d0069f8:	82030000 	lb	v1,0(s0)
9d0069fc:	02631021 	addu	v0,s3,v1
9d006a00:	90420000 	lbu	v0,0(v0)
9d006a04:	30420004 	andi	v0,v0,0x4
9d006a08:	104000a5 	beqz	v0,9d006ca0 <__strtof+0x32c>
9d006a0c:	00008821 	move	s1,zero
9d006a10:	0000a021 	move	s4,zero
9d006a14:	2472ffd0 	addiu	s2,v1,-48
9d006a18:	02202021 	move	a0,s1
9d006a1c:	0f4020dd 	jal	9d008374 <.LFE4>
9d006a20:	3c054120 	lui	a1,0x4120
9d006a24:	00408821 	move	s1,v0
9d006a28:	0f402770 	jal	9d009dc0 <__floatsisf>
9d006a2c:	02402021 	move	a0,s2
9d006a30:	02202021 	move	a0,s1
9d006a34:	00402821 	move	a1,v0
9d006a38:	0f401f44 	jal	9d007d10 <__addsf3>
9d006a3c:	26100001 	addiu	s0,s0,1
9d006a40:	00408821 	move	s1,v0
9d006a44:	82030000 	lb	v1,0(s0)
9d006a48:	02631021 	addu	v0,s3,v1
9d006a4c:	90420000 	lbu	v0,0(v0)
9d006a50:	30420004 	andi	v0,v0,0x4
9d006a54:	1440ffef 	bnez	v0,9d006a14 <__strtof+0xa0>
9d006a58:	0292a025 	or	s4,s4,s2
9d006a5c:	24040001 	li	a0,1
9d006a60:	2402002e 	li	v0,46
9d006a64:	5062003e 	beql	v1,v0,9d006b60 <__strtof+0x1ec>
9d006a68:	82020001 	lb	v0,1(s0)
9d006a6c:	54800062 	bnezl	a0,9d006bf8 <__strtof+0x284>
9d006a70:	82020000 	lb	v0,0(s0)
9d006a74:	12c00024 	beqz	s6,9d006b08 <__strtof+0x194>
9d006a78:	00111840 	sll	v1,s1,0x1
9d006a7c:	02a08021 	move	s0,s5
9d006a80:	00009021 	move	s2,zero
9d006a84:	aed00000 	sw	s0,0(s6)
9d006a88:	1240001f 	beqz	s2,9d006b08 <__strtof+0x194>
9d006a8c:	00111840 	sll	v1,s1,0x1
9d006a90:	001217c3 	sra	v0,s2,0x1f
9d006a94:	0052a826 	xor	s5,v0,s2
9d006a98:	02a2a823 	subu	s5,s5,v0
9d006a9c:	3c139d01 	lui	s3,0x9d01
9d006aa0:	2673a410 	addiu	s3,s3,-23536
9d006aa4:	24100006 	li	s0,6
9d006aa8:	0b401aae 	j	9d006ab8 <__strtof+0x144>
9d006aac:	3c023f80 	lui	v0,0x3f80
9d006ab0:	1200000b 	beqz	s0,9d006ae0 <__strtof+0x16c>
9d006ab4:	2673fffc 	addiu	s3,s3,-4
9d006ab8:	2610ffff 	addiu	s0,s0,-1
9d006abc:	02151807 	srav	v1,s5,s0
9d006ac0:	30630001 	andi	v1,v1,0x1
9d006ac4:	1060fffa 	beqz	v1,9d006ab0 <__strtof+0x13c>
9d006ac8:	00000000 	nop
9d006acc:	8e650000 	lw	a1,0(s3)
9d006ad0:	0f4020dd 	jal	9d008374 <.LFE4>
9d006ad4:	00402021 	move	a0,v0
9d006ad8:	1600fff7 	bnez	s0,9d006ab8 <__strtof+0x144>
9d006adc:	2673fffc 	addiu	s3,s3,-4
9d006ae0:	02202021 	move	a0,s1
9d006ae4:	0640006a 	bltz	s2,9d006c90 <__strtof+0x31c>
9d006ae8:	00402821 	move	a1,v0
9d006aec:	0f4020dd 	jal	9d008374 <.LFE4>
9d006af0:	00000000 	nop
9d006af4:	00402021 	move	a0,v0
9d006af8:	0f40237d 	jal	9d008df4 <__ldexpf>
9d006afc:	02402821 	move	a1,s2
9d006b00:	00408821 	move	s1,v0
9d006b04:	00111840 	sll	v1,s1,0x1
9d006b08:	3c02ff00 	lui	v0,0xff00
9d006b0c:	5062006c 	beql	v1,v0,9d006cc0 <__strtof+0x34c>
9d006b10:	24030022 	li	v1,34
9d006b14:	12200068 	beqz	s1,9d006cb8 <__strtof+0x344>
9d006b18:	00000000 	nop
9d006b1c:	12e00005 	beqz	s7,9d006b34 <__strtof+0x1c0>
9d006b20:	02201021 	move	v0,s1
9d006b24:	0f40291e 	jal	9d00a478 <__negsf2>
9d006b28:	02202021 	move	a0,s1
9d006b2c:	00408821 	move	s1,v0
9d006b30:	02201021 	move	v0,s1
9d006b34:	8fbf0034 	lw	ra,52(sp)
9d006b38:	8fb70030 	lw	s7,48(sp)
9d006b3c:	8fb6002c 	lw	s6,44(sp)
9d006b40:	8fb50028 	lw	s5,40(sp)
9d006b44:	8fb40024 	lw	s4,36(sp)
9d006b48:	8fb30020 	lw	s3,32(sp)
9d006b4c:	8fb2001c 	lw	s2,28(sp)
9d006b50:	8fb10018 	lw	s1,24(sp)
9d006b54:	8fb00014 	lw	s0,20(sp)
9d006b58:	03e00008 	jr	ra
9d006b5c:	27bd0038 	addiu	sp,sp,56
9d006b60:	02621821 	addu	v1,s3,v0
9d006b64:	90630000 	lbu	v1,0(v1)
9d006b68:	30630004 	andi	v1,v1,0x4
9d006b6c:	1060ffbf 	beqz	v1,9d006a6c <__strtof+0xf8>
9d006b70:	26100001 	addiu	s0,s0,1
9d006b74:	00009021 	move	s2,zero
9d006b78:	2455ffd0 	addiu	s5,v0,-48
9d006b7c:	02202021 	move	a0,s1
9d006b80:	0f4020dd 	jal	9d008374 <.LFE4>
9d006b84:	3c054120 	lui	a1,0x4120
9d006b88:	00408821 	move	s1,v0
9d006b8c:	0f402770 	jal	9d009dc0 <__floatsisf>
9d006b90:	02a02021 	move	a0,s5
9d006b94:	02202021 	move	a0,s1
9d006b98:	00402821 	move	a1,v0
9d006b9c:	0f401f44 	jal	9d007d10 <__addsf3>
9d006ba0:	26100001 	addiu	s0,s0,1
9d006ba4:	00408821 	move	s1,v0
9d006ba8:	82020000 	lb	v0,0(s0)
9d006bac:	0295a025 	or	s4,s4,s5
9d006bb0:	02621821 	addu	v1,s3,v0
9d006bb4:	90630000 	lbu	v1,0(v1)
9d006bb8:	30630004 	andi	v1,v1,0x4
9d006bbc:	1460ffee 	bnez	v1,9d006b78 <__strtof+0x204>
9d006bc0:	2652ffff 	addiu	s2,s2,-1
9d006bc4:	2403ffdf 	li	v1,-33
9d006bc8:	00431824 	and	v1,v0,v1
9d006bcc:	7c031c20 	seb	v1,v1
9d006bd0:	24020045 	li	v0,69
9d006bd4:	5062000f 	beql	v1,v0,9d006c14 <__strtof+0x2a0>
9d006bd8:	82030001 	lb	v1,1(s0)
9d006bdc:	56c0ffaa 	bnezl	s6,9d006a88 <__strtof+0x114>
9d006be0:	aed00000 	sw	s0,0(s6)
9d006be4:	0b401aa2 	j	9d006a88 <__strtof+0x114>
9d006be8:	00000000 	nop
9d006bec:	26100001 	addiu	s0,s0,1
9d006bf0:	0b401a7e 	j	9d0069f8 <__strtof+0x84>
9d006bf4:	24170001 	li	s7,1
9d006bf8:	2403ffdf 	li	v1,-33
9d006bfc:	00431824 	and	v1,v0,v1
9d006c00:	7c031c20 	seb	v1,v1
9d006c04:	24020045 	li	v0,69
9d006c08:	1462fff4 	bne	v1,v0,9d006bdc <__strtof+0x268>
9d006c0c:	00009021 	move	s2,zero
9d006c10:	82030001 	lb	v1,1(s0)
9d006c14:	2402002d 	li	v0,45
9d006c18:	10620019 	beq	v1,v0,9d006c80 <__strtof+0x30c>
9d006c1c:	2402002b 	li	v0,43
9d006c20:	50620022 	beql	v1,v0,9d006cac <__strtof+0x338>
9d006c24:	82030002 	lb	v1,2(s0)
9d006c28:	26100001 	addiu	s0,s0,1
9d006c2c:	00003821 	move	a3,zero
9d006c30:	02631021 	addu	v0,s3,v1
9d006c34:	90420000 	lbu	v0,0(v0)
9d006c38:	30420004 	andi	v0,v0,0x4
9d006c3c:	1040000c 	beqz	v0,9d006c70 <__strtof+0x2fc>
9d006c40:	00001021 	move	v0,zero
9d006c44:	26100001 	addiu	s0,s0,1
9d006c48:	2465ffd0 	addiu	a1,v1,-48
9d006c4c:	82030000 	lb	v1,0(s0)
9d006c50:	00023040 	sll	a2,v0,0x1
9d006c54:	000210c0 	sll	v0,v0,0x3
9d006c58:	02632021 	addu	a0,s3,v1
9d006c5c:	90840000 	lbu	a0,0(a0)
9d006c60:	00c21021 	addu	v0,a2,v0
9d006c64:	30840004 	andi	a0,a0,0x4
9d006c68:	1480fff6 	bnez	a0,9d006c44 <__strtof+0x2d0>
9d006c6c:	00451021 	addu	v0,v0,a1
9d006c70:	00021823 	negu	v1,v0
9d006c74:	0067100b 	movn	v0,v1,a3
9d006c78:	0b401af7 	j	9d006bdc <__strtof+0x268>
9d006c7c:	02429021 	addu	s2,s2,v0
9d006c80:	82030002 	lb	v1,2(s0)
9d006c84:	24070001 	li	a3,1
9d006c88:	0b401b0c 	j	9d006c30 <__strtof+0x2bc>
9d006c8c:	26100002 	addiu	s0,s0,2
9d006c90:	0f401fe0 	jal	9d007f80 <__divsf3>
9d006c94:	00000000 	nop
9d006c98:	0b401abe 	j	9d006af8 <__strtof+0x184>
9d006c9c:	00402021 	move	a0,v0
9d006ca0:	00002021 	move	a0,zero
9d006ca4:	0b401a98 	j	9d006a60 <__strtof+0xec>
9d006ca8:	0000a021 	move	s4,zero
9d006cac:	00003821 	move	a3,zero
9d006cb0:	0b401b0c 	j	9d006c30 <__strtof+0x2bc>
9d006cb4:	26100002 	addiu	s0,s0,2
9d006cb8:	1280ff98 	beqz	s4,9d006b1c <__strtof+0x1a8>
9d006cbc:	24030022 	li	v1,34
9d006cc0:	3c02a000 	lui	v0,0xa000
9d006cc4:	0b401ac7 	j	9d006b1c <__strtof+0x1a8>
9d006cc8:	ac430020 	sw	v1,32(v0)

Disassembly of section .text.dp32mul:

9d006ccc <__muldf3>:
9d006ccc:	00055040 000a5542 00054ac0 00047d42     @P..BU...J..B}..
9d006cdc:	012f4825 000442c0 3c0e8000 012e4825     %H/..B.....<%H..
9d006cec:	00076840 000d6d42 000762c0 00067d42     @h..Bm...b..B}..
9d006cfc:	018f6025 00065ac0 018e6025 00a72826     %`...Z..%`..&(..
9d006d0c:	00ae2824 254fffff 2de107fe 10200047     $(....O%...-G. .
9d006d1c:	00000000                                ....

9d006d20 <Clab1>:
9d006d20:	25afffff 	addiu	t7,t5,-1
9d006d24:	2de107fe 	sltiu	at,t7,2046
9d006d28:	1020006f 	beqz	at,9d006ee8 <CspecB>
9d006d2c:	00000000 	nop

9d006d30 <Clab2>:
9d006d30:	25affc02 	addiu	t7,t5,-1022
9d006d34:	014f5021 	addu	t2,t2,t7
9d006d38:	012c0019 	multu	t1,t4
9d006d3c:	00003812 	mflo	a3
9d006d40:	00007010 	mfhi	t6
9d006d44:	010b0019 	multu	t0,t3
9d006d48:	00002012 	mflo	a0
9d006d4c:	00003010 	mfhi	a2
9d006d50:	012b0019 	multu	t1,t3
9d006d54:	00005812 	mflo	t3
9d006d58:	00006810 	mfhi	t5
9d006d5c:	00cb3021 	addu	a2,a2,t3
9d006d60:	00cb782b 	sltu	t7,a2,t3
9d006d64:	00ed3821 	addu	a3,a3,t5
9d006d68:	00ef3821 	addu	a3,a3,t7
9d006d6c:	10ed0002 	beq	a3,t5,9d006d78 <L20>
9d006d70:	00000000 	nop
9d006d74:	00ed782b 	sltu	t7,a3,t5

9d006d78 <L20>:
9d006d78:	01cf7021 	addu	t6,t6,t7
9d006d7c:	010c0019 	multu	t0,t4
9d006d80:	00004012 	mflo	t0
9d006d84:	00004810 	mfhi	t1
9d006d88:	00c83021 	addu	a2,a2,t0
9d006d8c:	00c8782b 	sltu	t7,a2,t0
9d006d90:	00e93821 	addu	a3,a3,t1
9d006d94:	00ef3821 	addu	a3,a3,t7
9d006d98:	10e90002 	beq	a3,t1,9d006da4 <L21>
9d006d9c:	00000000 	nop
9d006da0:	00e9782b 	sltu	t7,a3,t1

9d006da4 <L21>:
9d006da4:	01cf7021 	addu	t6,t6,t7
9d006da8:	00867825 	or	t7,a0,a2
9d006dac:	11e00002 	beqz	t7,9d006db8 <i13>
9d006db0:	00000000 	nop
9d006db4:	34e70001 	ori	a3,a3,0x1

9d006db8 <i13>:
9d006db8:	000e4825 	or	t1,zero,t6
9d006dbc:	05200006 	bltz	t1,9d006dd8 <i14>
9d006dc0:	00074025 	or	t0,zero,a3
9d006dc4:	0100782a 	slt	t7,t0,zero
9d006dc8:	01084021 	addu	t0,t0,t0
9d006dcc:	01294821 	addu	t1,t1,t1
9d006dd0:	012f4821 	addu	t1,t1,t7
9d006dd4:	254affff 	addiu	t2,t2,-1

9d006dd8 <i14>:
9d006dd8:	254fffff 	addiu	t7,t2,-1
9d006ddc:	2de107fe 	sltiu	at,t7,2046
9d006de0:	10200068 	beqz	at,9d006f84 <Coveund>
9d006de4:	00000000 	nop
9d006de8:	25080400 	addiu	t0,t0,1024
9d006dec:	2d0f0400 	sltiu	t7,t0,1024
9d006df0:	012f4821 	addu	t1,t1,t7
9d006df4:	012f782b 	sltu	t7,t1,t7
9d006df8:	014f5021 	addu	t2,t2,t7

9d006dfc <Clab8>:
9d006dfc:	00087ac2 	srl	t7,t0,0xb
9d006e00:	31ef0001 	andi	t7,t7,0x1
9d006e04:	010f4023 	subu	t0,t0,t7
9d006e08:	000822c2 	srl	a0,t0,0xb
9d006e0c:	00097d40 	sll	t7,t1,0x15
9d006e10:	008f2025 	or	a0,a0,t7
9d006e14:	00097840 	sll	t7,t1,0x1
9d006e18:	000f7b02 	srl	t7,t7,0xc
9d006e1c:	00af2825 	or	a1,a1,t7
9d006e20:	000a7d00 	sll	t7,t2,0x14
9d006e24:	00af2825 	or	a1,a1,t7

9d006e28 <Cret>:
9d006e28:	00041025 	or	v0,zero,a0
9d006e2c:	00051825 	or	v1,zero,a1

9d006e30 <C999>:
9d006e30:	03e00008 	jr	ra
9d006e34:	00000000 	nop

9d006e38 <CspecA>:
9d006e38:	0100782a 	slt	t7,t0,zero
9d006e3c:	01084021 	addu	t0,t0,t0
9d006e40:	01294821 	addu	t1,t1,t1
9d006e44:	1540001c 	bnez	t2,9d006eb8 <i15>
9d006e48:	012f4821 	addu	t1,t1,t7
9d006e4c:	01287825 	or	t7,t1,t0
9d006e50:	11e00014 	beqz	t7,9d006ea4 <i16>
9d006e54:	00000000 	nop
9d006e58:	15200008 	bnez	t1,9d006e7c <L22>
9d006e5c:	00000000 	nop
9d006e60:	15000003 	bnez	t0,9d006e70 <L23>
9d006e64:	00000000 	nop
9d006e68:	1000ffad 	b	9d006d20 <Clab1>
9d006e6c:	240a0000 	li	t2,0

9d006e70 <L23>:
9d006e70:	01004825 	move	t1,t0
9d006e74:	24080000 	li	t0,0
9d006e78:	254affe0 	addiu	t2,t2,-32

9d006e7c <L22>:
9d006e7c:	712e7020 	clz	t6,t1
9d006e80:	11c0ffa7 	beqz	t6,9d006d20 <Clab1>
9d006e84:	00000000 	nop
9d006e88:	014e5023 	subu	t2,t2,t6
9d006e8c:	000e3822 	neg	a3,t6
9d006e90:	00e83806 	srlv	a3,t0,a3
9d006e94:	01c84004 	sllv	t0,t0,t6
9d006e98:	01c94804 	sllv	t1,t1,t6
9d006e9c:	1000ffa0 	b	9d006d20 <Clab1>
9d006ea0:	01274825 	or	t1,t1,a3

9d006ea4 <i16>:
9d006ea4:	240107ff 	li	at,2047
9d006ea8:	11a10033 	beq	t5,at,9d006f78 <Cnan>
9d006eac:	00000000 	nop
9d006eb0:	1000ffdd 	b	9d006e28 <Cret>
9d006eb4:	00000000 	nop

9d006eb8 <i15>:
9d006eb8:	01287825 	or	t7,t1,t0
9d006ebc:	15e0002e 	bnez	t7,9d006f78 <Cnan>
9d006ec0:	00000000 	nop
9d006ec4:	15a00005 	bnez	t5,9d006edc <i17>
9d006ec8:	00000000 	nop
9d006ecc:	000c7840 	sll	t7,t4,0x1
9d006ed0:	01eb7825 	or	t7,t7,t3
9d006ed4:	11e00028 	beqz	t7,9d006f78 <Cnan>
9d006ed8:	00000000 	nop

9d006edc <i17>:
9d006edc:	240107ff 	li	at,2047
9d006ee0:	15a10021 	bne	t5,at,9d006f68 <Cinf>
9d006ee4:	00000000 	nop

9d006ee8 <CspecB>:
9d006ee8:	0160782a 	slt	t7,t3,zero
9d006eec:	016b5821 	addu	t3,t3,t3
9d006ef0:	018c6021 	addu	t4,t4,t4
9d006ef4:	15a00019 	bnez	t5,9d006f5c <i18>
9d006ef8:	018f6021 	addu	t4,t4,t7
9d006efc:	018b7825 	or	t7,t4,t3
9d006f00:	11e00014 	beqz	t7,9d006f54 <i19>
9d006f04:	00000000 	nop
9d006f08:	15800008 	bnez	t4,9d006f2c <L25>
9d006f0c:	00000000 	nop
9d006f10:	15600003 	bnez	t3,9d006f20 <L26>
9d006f14:	00000000 	nop
9d006f18:	1000ff85 	b	9d006d30 <Clab2>
9d006f1c:	240d0000 	li	t5,0

9d006f20 <L26>:
9d006f20:	01606025 	move	t4,t3
9d006f24:	240b0000 	li	t3,0
9d006f28:	25adffe0 	addiu	t5,t5,-32

9d006f2c <L25>:
9d006f2c:	71863020 	clz	a2,t4
9d006f30:	10c0ff7f 	beqz	a2,9d006d30 <Clab2>
9d006f34:	00000000 	nop
9d006f38:	01a66823 	subu	t5,t5,a2
9d006f3c:	00067022 	neg	t6,a2
9d006f40:	01cb7006 	srlv	t6,t3,t6
9d006f44:	00cb5804 	sllv	t3,t3,a2
9d006f48:	00cc6004 	sllv	t4,t4,a2
9d006f4c:	1000ff78 	b	9d006d30 <Clab2>
9d006f50:	018e6025 	or	t4,t4,t6

9d006f54 <i19>:
9d006f54:	1000ffb4 	b	9d006e28 <Cret>
9d006f58:	24040000 	li	a0,0

9d006f5c <i18>:
9d006f5c:	018b7825 	or	t7,t4,t3
9d006f60:	15e00005 	bnez	t7,9d006f78 <Cnan>
9d006f64:	00000000 	nop

9d006f68 <Cinf>:
9d006f68:	3c017ff0 	lui	at,0x7ff0
9d006f6c:	00a12825 	or	a1,a1,at
9d006f70:	1000ffad 	b	9d006e28 <Cret>
9d006f74:	24040000 	li	a0,0

9d006f78 <Cnan>:
9d006f78:	3c05fff8 	lui	a1,0xfff8
9d006f7c:	1000ffaa 	b	9d006e28 <Cret>
9d006f80:	24040000 	li	a0,0

9d006f84 <Coveund>:
9d006f84:	1d40fff8 	bgtz	t2,9d006f68 <Cinf>
9d006f88:	00000000 	nop
9d006f8c:	240e0001 	li	t6,1
9d006f90:	01ca7023 	subu	t6,t6,t2

9d006f94 <L28>:
9d006f94:	2dc10020 	sltiu	at,t6,32
9d006f98:	14200007 	bnez	at,9d006fb8 <L29>
9d006f9c:	00000000 	nop
9d006fa0:	21ceffe0 	addi	t6,t6,-32
9d006fa4:	0008302b 	sltu	a2,zero,t0
9d006fa8:	1009000d 	beq	zero,t1,9d006fe0 <L30>
9d006fac:	01264025 	or	t0,t1,a2
9d006fb0:	1000fff8 	b	9d006f94 <L28>
9d006fb4:	34090000 	li	t1,0x0

9d006fb8 <L29>:
9d006fb8:	11c00009 	beqz	t6,9d006fe0 <L30>
9d006fbc:	00000000 	nop
9d006fc0:	000e3822 	neg	a3,t6
9d006fc4:	00e83004 	sllv	a2,t0,a3
9d006fc8:	00e93804 	sllv	a3,t1,a3
9d006fcc:	01c84006 	srlv	t0,t0,t6
9d006fd0:	01c94806 	srlv	t1,t1,t6
9d006fd4:	10c00002 	beqz	a2,9d006fe0 <L30>
9d006fd8:	00e84025 	or	t0,a3,t0
9d006fdc:	35080002 	ori	t0,t0,0x2

9d006fe0 <L30>:
9d006fe0:	25080400 	addiu	t0,t0,1024
9d006fe4:	2d0f0400 	sltiu	t7,t0,1024
9d006fe8:	012f4821 	addu	t1,t1,t7
9d006fec:	1000ff83 	b	9d006dfc <Clab8>
9d006ff0:	000957c2 	srl	t2,t1,0x1f
9d006ff4:	00000000 	nop

Disassembly of section .text.strtoull:

9d006ff8 <strtoull>:
9d006ff8:	27bdffd0 	addiu	sp,sp,-48
9d006ffc:	afbf002c 	sw	ra,44(sp)
9d007000:	afb50028 	sw	s5,40(sp)
9d007004:	afb40024 	sw	s4,36(sp)
9d007008:	afb30020 	sw	s3,32(sp)
9d00700c:	afb2001c 	sw	s2,28(sp)
9d007010:	afb10018 	sw	s1,24(sp)
9d007014:	afb00014 	sw	s0,20(sp)
9d007018:	00808821 	move	s1,a0
9d00701c:	80820000 	lb	v0,0(a0)
9d007020:	00a09821 	move	s3,a1
9d007024:	1040001f 	beqz	v0,9d0070a4 <strtoull+0xac>
9d007028:	00c09021 	move	s2,a2
9d00702c:	3c049d01 	lui	a0,0x9d01
9d007030:	24848cf1 	addiu	a0,a0,-29455
9d007034:	0b401c12 	j	9d007048 <strtoull+0x50>
9d007038:	00821821 	addu	v1,a0,v0
9d00703c:	82220000 	lb	v0,0(s1)
9d007040:	10400018 	beqz	v0,9d0070a4 <strtoull+0xac>
9d007044:	00821821 	addu	v1,a0,v0
9d007048:	80630000 	lb	v1,0(v1)
9d00704c:	30630088 	andi	v1,v1,0x88
9d007050:	5460fffa 	bnezl	v1,9d00703c <strtoull+0x44>
9d007054:	26310001 	addiu	s1,s1,1
9d007058:	2403002b 	li	v1,43
9d00705c:	14430079 	bne	v0,v1,9d007244 <strtoull+0x24c>
9d007060:	2403002d 	li	v1,45
9d007064:	3842002d 	xori	v0,v0,0x2d
9d007068:	82300001 	lb	s0,1(s1)
9d00706c:	2c550001 	sltiu	s5,v0,1
9d007070:	26310001 	addiu	s1,s1,1
9d007074:	1640000f 	bnez	s2,9d0070b4 <strtoull+0xbc>
9d007078:	24020010 	li	v0,16
9d00707c:	24020030 	li	v0,48
9d007080:	12020075 	beq	s0,v0,9d007258 <strtoull+0x260>
9d007084:	3c0d9999 	lui	t5,0x9999
9d007088:	35ad9999 	ori	t5,t5,0x9999
9d00708c:	3c0a1999 	lui	t2,0x1999
9d007090:	354a9999 	ori	t2,t2,0x9999
9d007094:	240b000a 	li	t3,10
9d007098:	0000a021 	move	s4,zero
9d00709c:	0b401c37 	j	9d0070dc <strtoull+0xe4>
9d0070a0:	2412000a 	li	s2,10
9d0070a4:	00008021 	move	s0,zero
9d0070a8:	1240fff4 	beqz	s2,9d00707c <strtoull+0x84>
9d0070ac:	0000a821 	move	s5,zero
9d0070b0:	24020010 	li	v0,16
9d0070b4:	12420076 	beq	s2,v0,9d007290 <strtoull+0x298>
9d0070b8:	0012a7c3 	sra	s4,s2,0x1f
9d0070bc:	2404ffff 	li	a0,-1
9d0070c0:	2405ffff 	li	a1,-1
9d0070c4:	02403021 	move	a2,s2
9d0070c8:	0f401580 	jal	9d005600 <__udivdi3>
9d0070cc:	02803821 	move	a3,s4
9d0070d0:	02405821 	move	t3,s2
9d0070d4:	00406821 	move	t5,v0
9d0070d8:	00605021 	move	t2,v1
9d0070dc:	2624ffff 	addiu	a0,s1,-1
9d0070e0:	00002821 	move	a1,zero
9d0070e4:	00001021 	move	v0,zero
9d0070e8:	00001821 	move	v1,zero
9d0070ec:	3c079d01 	lui	a3,0x9d01
9d0070f0:	24e78cf1 	addiu	a3,a3,-29455
9d0070f4:	240e0061 	li	t6,97
9d0070f8:	240c0041 	li	t4,65
9d0070fc:	1200002b 	beqz	s0,9d0071ac <strtoull+0x1b4>
9d007100:	24840001 	addiu	a0,a0,1
9d007104:	02074021 	addu	t0,s0,a3
9d007108:	91080000 	lbu	t0,0(t0)
9d00710c:	31090004 	andi	t1,t0,0x4
9d007110:	1120003d 	beqz	t1,9d007208 <strtoull+0x210>
9d007114:	31060003 	andi	a2,t0,0x3
9d007118:	2610ffd0 	addiu	s0,s0,-48
9d00711c:	06000023 	bltz	s0,9d0071ac <strtoull+0x1b4>
9d007120:	0212402a 	slt	t0,s0,s2
9d007124:	11000021 	beqz	t0,9d0071ac <strtoull+0x1b4>
9d007128:	0143402b 	sltu	t0,t2,v1
9d00712c:	55000034 	bnezl	t0,9d007200 <strtoull+0x208>
9d007130:	24050001 	li	a1,1
9d007134:	146a0003 	bne	v1,t2,9d007144 <strtoull+0x14c>
9d007138:	01a2302b 	sltu	a2,t5,v0
9d00713c:	54c00030 	bnezl	a2,9d007200 <strtoull+0x208>
9d007140:	24050001 	li	a1,1
9d007144:	14a00016 	bnez	a1,9d0071a0 <strtoull+0x1a8>
9d007148:	02820018 	mult	s4,v0
9d00714c:	001047c3 	sra	t0,s0,0x1f
9d007150:	71630000 	madd	t3,v1
9d007154:	00003012 	mflo	a2
9d007158:	004b0019 	multu	v0,t3
9d00715c:	00001012 	mflo	v0
9d007160:	00001810 	mfhi	v1
9d007164:	00c31821 	addu	v1,a2,v1
9d007168:	00033027 	nor	a2,zero,v1
9d00716c:	00c8482b 	sltu	t1,a2,t0
9d007170:	15200022 	bnez	t1,9d0071fc <strtoull+0x204>
9d007174:	00027827 	nor	t7,zero,v0
9d007178:	55060005 	bnel	t0,a2,9d007190 <strtoull+0x198>
9d00717c:	02028021 	addu	s0,s0,v0
9d007180:	01f0782b 	sltu	t7,t7,s0
9d007184:	55e0001e 	bnezl	t7,9d007200 <strtoull+0x208>
9d007188:	24050001 	li	a1,1
9d00718c:	02028021 	addu	s0,s0,v0
9d007190:	0202302b 	sltu	a2,s0,v0
9d007194:	00684021 	addu	t0,v1,t0
9d007198:	02001021 	move	v0,s0
9d00719c:	00c81821 	addu	v1,a2,t0
9d0071a0:	80900001 	lb	s0,1(a0)
9d0071a4:	1600ffd7 	bnez	s0,9d007104 <strtoull+0x10c>
9d0071a8:	24840001 	addiu	a0,a0,1
9d0071ac:	12a0001d 	beqz	s5,9d007224 <strtoull+0x22c>
9d0071b0:	00000000 	nop
9d0071b4:	54a0001e 	bnezl	a1,9d007230 <strtoull+0x238>
9d0071b8:	24030022 	li	v1,34
9d0071bc:	00023823 	negu	a3,v0
9d0071c0:	0007282b 	sltu	a1,zero,a3
9d0071c4:	00033023 	negu	a2,v1
9d0071c8:	00e01021 	move	v0,a3
9d0071cc:	00c51823 	subu	v1,a2,a1
9d0071d0:	56600001 	bnezl	s3,9d0071d8 <strtoull+0x1e0>
9d0071d4:	ae640000 	sw	a0,0(s3)
9d0071d8:	8fbf002c 	lw	ra,44(sp)
9d0071dc:	8fb50028 	lw	s5,40(sp)
9d0071e0:	8fb40024 	lw	s4,36(sp)
9d0071e4:	8fb30020 	lw	s3,32(sp)
9d0071e8:	8fb2001c 	lw	s2,28(sp)
9d0071ec:	8fb10018 	lw	s1,24(sp)
9d0071f0:	8fb00014 	lw	s0,20(sp)
9d0071f4:	03e00008 	jr	ra
9d0071f8:	27bd0030 	addiu	sp,sp,48
9d0071fc:	24050001 	li	a1,1
9d007200:	0b401c69 	j	9d0071a4 <strtoull+0x1ac>
9d007204:	80900001 	lb	s0,1(a0)
9d007208:	10c0ffe8 	beqz	a2,9d0071ac <strtoull+0x1b4>
9d00720c:	31080001 	andi	t0,t0,0x1
9d007210:	01803021 	move	a2,t4
9d007214:	01c8300a 	movz	a2,t6,t0
9d007218:	02068023 	subu	s0,s0,a2
9d00721c:	0b401c47 	j	9d00711c <strtoull+0x124>
9d007220:	2610000a 	addiu	s0,s0,10
9d007224:	10a0ffea 	beqz	a1,9d0071d0 <strtoull+0x1d8>
9d007228:	00000000 	nop
9d00722c:	24030022 	li	v1,34
9d007230:	3c02a000 	lui	v0,0xa000
9d007234:	ac430020 	sw	v1,32(v0)
9d007238:	2402ffff 	li	v0,-1
9d00723c:	0b401c74 	j	9d0071d0 <strtoull+0x1d8>
9d007240:	2403ffff 	li	v1,-1
9d007244:	1043ff88 	beq	v0,v1,9d007068 <strtoull+0x70>
9d007248:	3842002d 	xori	v0,v0,0x2d
9d00724c:	82300000 	lb	s0,0(s1)
9d007250:	0b401c1d 	j	9d007074 <strtoull+0x7c>
9d007254:	0000a821 	move	s5,zero
9d007258:	82300001 	lb	s0,1(s1)
9d00725c:	2403ffdf 	li	v1,-33
9d007260:	02031824 	and	v1,s0,v1
9d007264:	24020058 	li	v0,88
9d007268:	50620012 	beql	v1,v0,9d0072b4 <strtoull+0x2bc>
9d00726c:	82300002 	lb	s0,2(s1)
9d007270:	26310001 	addiu	s1,s1,1
9d007274:	240dffff 	li	t5,-1
9d007278:	3c0a1fff 	lui	t2,0x1fff
9d00727c:	354affff 	ori	t2,t2,0xffff
9d007280:	240b0008 	li	t3,8
9d007284:	0000a021 	move	s4,zero
9d007288:	0b401c37 	j	9d0070dc <strtoull+0xe4>
9d00728c:	24120008 	li	s2,8
9d007290:	24020030 	li	v0,48
9d007294:	5202000f 	beql	s0,v0,9d0072d4 <strtoull+0x2dc>
9d007298:	82300001 	lb	s0,1(s1)
9d00729c:	240dffff 	li	t5,-1
9d0072a0:	3c0a0fff 	lui	t2,0xfff
9d0072a4:	354affff 	ori	t2,t2,0xffff
9d0072a8:	240b0010 	li	t3,16
9d0072ac:	0b401c37 	j	9d0070dc <strtoull+0xe4>
9d0072b0:	0000a021 	move	s4,zero
9d0072b4:	240dffff 	li	t5,-1
9d0072b8:	26310002 	addiu	s1,s1,2
9d0072bc:	3c0a0fff 	lui	t2,0xfff
9d0072c0:	354affff 	ori	t2,t2,0xffff
9d0072c4:	240b0010 	li	t3,16
9d0072c8:	0000a021 	move	s4,zero
9d0072cc:	0b401c37 	j	9d0070dc <strtoull+0xe4>
9d0072d0:	24120010 	li	s2,16
9d0072d4:	24020078 	li	v0,120
9d0072d8:	52020003 	beql	s0,v0,9d0072e8 <strtoull+0x2f0>
9d0072dc:	82300002 	lb	s0,2(s1)
9d0072e0:	0b401ca7 	j	9d00729c <strtoull+0x2a4>
9d0072e4:	26310001 	addiu	s1,s1,1
9d0072e8:	240dffff 	li	t5,-1
9d0072ec:	26310002 	addiu	s1,s1,2
9d0072f0:	3c0a0fff 	lui	t2,0xfff
9d0072f4:	354affff 	ori	t2,t2,0xffff
9d0072f8:	240b0010 	li	t3,16
9d0072fc:	0b401c37 	j	9d0070dc <strtoull+0xe4>
9d007300:	0000a021 	move	s4,zero

Disassembly of section .text._strtostr:

9d007304 <_strtostr>:
9d007304:	27bdfec8 	addiu	sp,sp,-312
9d007308:	afbf0134 	sw	ra,308(sp)
9d00730c:	afbe0130 	sw	s8,304(sp)
9d007310:	afb7012c 	sw	s7,300(sp)
9d007314:	afb60128 	sw	s6,296(sp)
9d007318:	afb50124 	sw	s5,292(sp)
9d00731c:	afb40120 	sw	s4,288(sp)
9d007320:	afb3011c 	sw	s3,284(sp)
9d007324:	afb20118 	sw	s2,280(sp)
9d007328:	afb10114 	sw	s1,276(sp)
9d00732c:	afb00110 	sw	s0,272(sp)
9d007330:	00808021 	move	s0,a0
9d007334:	afa5013c 	sw	a1,316(sp)
9d007338:	00c09821 	move	s3,a2
9d00733c:	00e0b021 	move	s6,a3
9d007340:	24020002 	li	v0,2
9d007344:	10820056 	beq	a0,v0,9d0074a0 <_strtostr+0x19c>
9d007348:	8fb20148 	lw	s2,328(sp)
9d00734c:	32730001 	andi	s3,s3,0x1
9d007350:	16600005 	bnez	s3,9d007368 <_strtostr+0x64>
9d007354:	00000000 	nop
9d007358:	8e42000c 	lw	v0,12(s2)
9d00735c:	24430004 	addiu	v1,v0,4
9d007360:	ae43000c 	sw	v1,12(s2)
9d007364:	8c510000 	lw	s1,0(v0)
9d007368:	12c00081 	beqz	s6,9d007570 <_strtostr+0x26c>
9d00736c:	02c0b821 	move	s7,s6
9d007370:	2414ffff 	li	s4,-1
9d007374:	24150001 	li	s5,1
9d007378:	3c1e9d01 	lui	s8,0x9d01
9d00737c:	27de8cf1 	addiu	s8,s8,-29455
9d007380:	0f40273e 	jal	9d009cf8 <gsgetc>
9d007384:	02402021 	move	a0,s2
9d007388:	50540011 	beql	v0,s4,9d0073d0 <_strtostr+0xcc>
9d00738c:	02e01821 	move	v1,s7
9d007390:	12150038 	beq	s0,s5,9d007474 <_strtostr+0x170>
9d007394:	26e3ffff 	addiu	v1,s7,-1
9d007398:	24040002 	li	a0,2
9d00739c:	1204002b 	beq	s0,a0,9d00744c <_strtostr+0x148>
9d0073a0:	27a50010 	addiu	a1,sp,16
9d0073a4:	16600003 	bnez	s3,9d0073b4 <_strtostr+0xb0>
9d0073a8:	00000000 	nop
9d0073ac:	a2220000 	sb	v0,0(s1)
9d0073b0:	26310001 	addiu	s1,s1,1
9d0073b4:	10600006 	beqz	v1,9d0073d0 <_strtostr+0xcc>
9d0073b8:	0060b821 	move	s7,v1
9d0073bc:	0f40273e 	jal	9d009cf8 <gsgetc>
9d0073c0:	02402021 	move	a0,s2
9d0073c4:	1454fff2 	bne	v0,s4,9d007390 <_strtostr+0x8c>
9d0073c8:	00000000 	nop
9d0073cc:	02e01821 	move	v1,s7
9d0073d0:	2402ffff 	li	v0,-1
9d0073d4:	8e440014 	lw	a0,20(s2)
9d0073d8:	24840001 	addiu	a0,a0,1
9d0073dc:	16600008 	bnez	s3,9d007400 <_strtostr+0xfc>
9d0073e0:	ae440014 	sw	a0,20(s2)
9d0073e4:	24040001 	li	a0,1
9d0073e8:	8fa6013c 	lw	a2,316(sp)
9d0073ec:	50c40001 	beql	a2,a0,9d0073f4 <_strtostr+0xf0>
9d0073f0:	a2200000 	sb	zero,0(s1)
9d0073f4:	8e440018 	lw	a0,24(s2)
9d0073f8:	24840001 	addiu	a0,a0,1
9d0073fc:	ae440018 	sw	a0,24(s2)
9d007400:	14760005 	bne	v1,s6,9d007418 <_strtostr+0x114>
9d007404:	00002021 	move	a0,zero
9d007408:	2404ffff 	li	a0,-1
9d00740c:	00021027 	nor	v0,zero,v0
9d007410:	24030001 	li	v1,1
9d007414:	0062200b 	movn	a0,v1,v0
9d007418:	00801021 	move	v0,a0
9d00741c:	8fbf0134 	lw	ra,308(sp)
9d007420:	8fbe0130 	lw	s8,304(sp)
9d007424:	8fb7012c 	lw	s7,300(sp)
9d007428:	8fb60128 	lw	s6,296(sp)
9d00742c:	8fb50124 	lw	s5,292(sp)
9d007430:	8fb40120 	lw	s4,288(sp)
9d007434:	8fb3011c 	lw	s3,284(sp)
9d007438:	8fb20118 	lw	s2,280(sp)
9d00743c:	8fb10114 	lw	s1,276(sp)
9d007440:	8fb00110 	lw	s0,272(sp)
9d007444:	03e00008 	jr	ra
9d007448:	27bd0138 	addiu	sp,sp,312
9d00744c:	00a22021 	addu	a0,a1,v0
9d007450:	80840000 	lb	a0,0(a0)
9d007454:	1480ffd3 	bnez	a0,9d0073a4 <_strtostr+0xa0>
9d007458:	00000000 	nop
9d00745c:	8e440010 	lw	a0,16(s2)
9d007460:	ae420004 	sw	v0,4(s2)
9d007464:	02e01821 	move	v1,s7
9d007468:	2484ffff 	addiu	a0,a0,-1
9d00746c:	0b401cf5 	j	9d0073d4 <_strtostr+0xd0>
9d007470:	ae440010 	sw	a0,16(s2)
9d007474:	005e2021 	addu	a0,v0,s8
9d007478:	80840000 	lb	a0,0(a0)
9d00747c:	30840088 	andi	a0,a0,0x88
9d007480:	1080ffc8 	beqz	a0,9d0073a4 <_strtostr+0xa0>
9d007484:	00000000 	nop
9d007488:	8e440010 	lw	a0,16(s2)
9d00748c:	ae420004 	sw	v0,4(s2)
9d007490:	02e01821 	move	v1,s7
9d007494:	2484ffff 	addiu	a0,a0,-1
9d007498:	0b401cf5 	j	9d0073d4 <_strtostr+0xd0>
9d00749c:	ae440010 	sw	a0,16(s2)
9d0074a0:	8e540008 	lw	s4,8(s2)
9d0074a4:	82830000 	lb	v1,0(s4)
9d0074a8:	2402005e 	li	v0,94
9d0074ac:	50620032 	beql	v1,v0,9d007578 <_strtostr+0x274>
9d0074b0:	26940001 	addiu	s4,s4,1
9d0074b4:	24150001 	li	s5,1
9d0074b8:	00002821 	move	a1,zero
9d0074bc:	27a40010 	addiu	a0,sp,16
9d0074c0:	0f4028ac 	jal	9d00a2b0 <memset>
9d0074c4:	24060100 	li	a2,256
9d0074c8:	82830000 	lb	v1,0(s4)
9d0074cc:	2405ffff 	li	a1,-1
9d0074d0:	2409ffff 	li	t1,-1
9d0074d4:	240a002d 	li	t2,45
9d0074d8:	2408005d 	li	t0,93
9d0074dc:	0b401d43 	j	9d00750c <_strtostr+0x208>
9d0074e0:	7c152420 	seb	a0,s5
9d0074e4:	00602821 	move	a1,v1
9d0074e8:	27a30010 	addiu	v1,sp,16
9d0074ec:	00651021 	addu	v0,v1,a1
9d0074f0:	a0550000 	sb	s5,0(v0)
9d0074f4:	02801021 	move	v0,s4
9d0074f8:	24540001 	addiu	s4,v0,1
9d0074fc:	ae540008 	sw	s4,8(s2)
9d007500:	80430001 	lb	v1,1(v0)
9d007504:	50680018 	beql	v1,t0,9d007568 <_strtostr+0x264>
9d007508:	24420002 	addiu	v0,v0,2
9d00750c:	10a9fff5 	beq	a1,t1,9d0074e4 <_strtostr+0x1e0>
9d007510:	82870001 	lb	a3,1(s4)
9d007514:	546afff4 	bnel	v1,t2,9d0074e8 <_strtostr+0x1e4>
9d007518:	00602821 	move	a1,v1
9d00751c:	10e8fff1 	beq	a3,t0,9d0074e4 <_strtostr+0x1e0>
9d007520:	24a20001 	addiu	v0,a1,1
9d007524:	00e2282a 	slt	a1,a3,v0
9d007528:	27a30010 	addiu	v1,sp,16
9d00752c:	00621021 	addu	v0,v1,v0
9d007530:	27a60011 	addiu	a2,sp,17
9d007534:	14a00005 	bnez	a1,9d00754c <_strtostr+0x248>
9d007538:	00c71821 	addu	v1,a2,a3
9d00753c:	a0440000 	sb	a0,0(v0)
9d007540:	24420001 	addiu	v0,v0,1
9d007544:	5443fffe 	bnel	v0,v1,9d007540 <_strtostr+0x23c>
9d007548:	a0440000 	sb	a0,0(v0)
9d00754c:	26820001 	addiu	v0,s4,1
9d007550:	24540001 	addiu	s4,v0,1
9d007554:	ae540008 	sw	s4,8(s2)
9d007558:	80430001 	lb	v1,1(v0)
9d00755c:	1468ffeb 	bne	v1,t0,9d00750c <_strtostr+0x208>
9d007560:	2405ffff 	li	a1,-1
9d007564:	24420002 	addiu	v0,v0,2
9d007568:	0b401cd3 	j	9d00734c <_strtostr+0x48>
9d00756c:	ae420008 	sw	v0,8(s2)
9d007570:	0b401cf4 	j	9d0073d0 <_strtostr+0xcc>
9d007574:	00001821 	move	v1,zero
9d007578:	ae540008 	sw	s4,8(s2)
9d00757c:	0000a821 	move	s5,zero
9d007580:	0b401d2f 	j	9d0074bc <_strtostr+0x1b8>
9d007584:	24050001 	li	a1,1

Disassembly of section .text.free:

9d007588 <free>:
9d007588:	10800076 	beqz	a0,9d007764 <free+0x1dc>
9d00758c:	2403fffe 	li	v1,-2
9d007590:	8c86fffc 	lw	a2,-4(a0)
9d007594:	2485fff8 	addiu	a1,a0,-8
9d007598:	00c31824 	and	v1,a2,v1
9d00759c:	00a31021 	addu	v0,a1,v1
9d0075a0:	8c470004 	lw	a3,4(v0)
9d0075a4:	30e80001 	andi	t0,a3,0x1
9d0075a8:	1100006e 	beqz	t0,9d007764 <free+0x1dc>
9d0075ac:	240afffc 	li	t2,-4
9d0075b0:	3c08a000 	lui	t0,0xa000
9d0075b4:	2508160c 	addiu	t0,t0,5644
9d0075b8:	8d090008 	lw	t1,8(t0)
9d0075bc:	00ea3824 	and	a3,a3,t2
9d0075c0:	10490058 	beq	v0,t1,9d007724 <free+0x19c>
9d0075c4:	30c60001 	andi	a2,a2,0x1
9d0075c8:	ac470004 	sw	a3,4(v0)
9d0075cc:	14c0000c 	bnez	a2,9d007600 <free+0x78>
9d0075d0:	00004821 	move	t1,zero
9d0075d4:	8c86fff8 	lw	a2,-8(a0)
9d0075d8:	00a62823 	subu	a1,a1,a2
9d0075dc:	8ca40008 	lw	a0,8(a1)
9d0075e0:	00661821 	addu	v1,v1,a2
9d0075e4:	3c06a000 	lui	a2,0xa000
9d0075e8:	24c61614 	addiu	a2,a2,5652
9d0075ec:	50860004 	beql	a0,a2,9d007600 <free+0x78>
9d0075f0:	24090001 	li	t1,1
9d0075f4:	8ca6000c 	lw	a2,12(a1)
9d0075f8:	ac86000c 	sw	a2,12(a0)
9d0075fc:	acc40008 	sw	a0,8(a2)
9d007600:	00472021 	addu	a0,v0,a3
9d007604:	8c840004 	lw	a0,4(a0)
9d007608:	30840001 	andi	a0,a0,0x1
9d00760c:	54800008 	bnezl	a0,9d007630 <free+0xa8>
9d007610:	34640001 	ori	a0,v1,0x1
9d007614:	00671821 	addu	v1,v1,a3
9d007618:	11200027 	beqz	t1,9d0076b8 <free+0x130>
9d00761c:	8c440008 	lw	a0,8(v0)
9d007620:	8c42000c 	lw	v0,12(v0)
9d007624:	ac82000c 	sw	v0,12(a0)
9d007628:	ac440008 	sw	a0,8(v0)
9d00762c:	34640001 	ori	a0,v1,0x1
9d007630:	00a31021 	addu	v0,a1,v1
9d007634:	aca40004 	sw	a0,4(a1)
9d007638:	1520004a 	bnez	t1,9d007764 <free+0x1dc>
9d00763c:	ac430000 	sw	v1,0(v0)
9d007640:	2c620200 	sltiu	v0,v1,512
9d007644:	54400029 	bnezl	v0,9d0076ec <free+0x164>
9d007648:	000318c2 	srl	v1,v1,0x3
9d00764c:	00031242 	srl	v0,v1,0x9
9d007650:	2c440005 	sltiu	a0,v0,5
9d007654:	1080004d 	beqz	a0,9d00778c <free+0x204>
9d007658:	2c440015 	sltiu	a0,v0,21
9d00765c:	00032182 	srl	a0,v1,0x6
9d007660:	24840038 	addiu	a0,a0,56
9d007664:	00043040 	sll	a2,a0,0x1
9d007668:	00063080 	sll	a2,a2,0x2
9d00766c:	01063021 	addu	a2,t0,a2
9d007670:	8cc20008 	lw	v0,8(a2)
9d007674:	5046004a 	beql	v0,a2,9d0077a0 <free+0x218>
9d007678:	8d030004 	lw	v1,4(t0)
9d00767c:	2407fffc 	li	a3,-4
9d007680:	8c440004 	lw	a0,4(v0)
9d007684:	00872024 	and	a0,a0,a3
9d007688:	0064202b 	sltu	a0,v1,a0
9d00768c:	50800005 	beqzl	a0,9d0076a4 <free+0x11c>
9d007690:	8c43000c 	lw	v1,12(v0)
9d007694:	8c420008 	lw	v0,8(v0)
9d007698:	54c2fffa 	bnel	a2,v0,9d007684 <free+0xfc>
9d00769c:	8c440004 	lw	a0,4(v0)
9d0076a0:	8c43000c 	lw	v1,12(v0)
9d0076a4:	aca3000c 	sw	v1,12(a1)
9d0076a8:	aca20008 	sw	v0,8(a1)
9d0076ac:	ac650008 	sw	a1,8(v1)
9d0076b0:	03e00008 	jr	ra
9d0076b4:	ac45000c 	sw	a1,12(v0)
9d0076b8:	3c06a000 	lui	a2,0xa000
9d0076bc:	24c61614 	addiu	a2,a2,5652
9d0076c0:	5486ffd8 	bnel	a0,a2,9d007624 <free+0x9c>
9d0076c4:	8c42000c 	lw	v0,12(v0)
9d0076c8:	34660001 	ori	a2,v1,0x1
9d0076cc:	00a31021 	addu	v0,a1,v1
9d0076d0:	ad050014 	sw	a1,20(t0)
9d0076d4:	ad050010 	sw	a1,16(t0)
9d0076d8:	aca4000c 	sw	a0,12(a1)
9d0076dc:	aca40008 	sw	a0,8(a1)
9d0076e0:	aca60004 	sw	a2,4(a1)
9d0076e4:	03e00008 	jr	ra
9d0076e8:	ac430000 	sw	v1,0(v0)
9d0076ec:	000310c0 	sll	v0,v1,0x3
9d0076f0:	01021021 	addu	v0,t0,v0
9d0076f4:	8d060004 	lw	a2,4(t0)
9d0076f8:	8c440008 	lw	a0,8(v0)
9d0076fc:	00031883 	sra	v1,v1,0x2
9d007700:	24070001 	li	a3,1
9d007704:	00671804 	sllv	v1,a3,v1
9d007708:	00661825 	or	v1,v1,a2
9d00770c:	aca2000c 	sw	v0,12(a1)
9d007710:	aca40008 	sw	a0,8(a1)
9d007714:	ad030004 	sw	v1,4(t0)
9d007718:	ac450008 	sw	a1,8(v0)
9d00771c:	03e00008 	jr	ra
9d007720:	ac85000c 	sw	a1,12(a0)
9d007724:	14c00008 	bnez	a2,9d007748 <free+0x1c0>
9d007728:	00e33821 	addu	a3,a3,v1
9d00772c:	8c84fff8 	lw	a0,-8(a0)
9d007730:	00a42823 	subu	a1,a1,a0
9d007734:	8ca2000c 	lw	v0,12(a1)
9d007738:	8ca30008 	lw	v1,8(a1)
9d00773c:	00e43821 	addu	a3,a3,a0
9d007740:	ac62000c 	sw	v0,12(v1)
9d007744:	ac430008 	sw	v1,8(v0)
9d007748:	3c02a000 	lui	v0,0xa000
9d00774c:	8c421608 	lw	v0,5640(v0)
9d007750:	34e30001 	ori	v1,a3,0x1
9d007754:	aca30004 	sw	v1,4(a1)
9d007758:	00e2382b 	sltu	a3,a3,v0
9d00775c:	10e00003 	beqz	a3,9d00776c <free+0x1e4>
9d007760:	ad050008 	sw	a1,8(t0)
9d007764:	03e00008 	jr	ra
9d007768:	00000000 	nop
9d00776c:	27bdffe8 	addiu	sp,sp,-24
9d007770:	afbf0014 	sw	ra,20(sp)
9d007774:	3c02a000 	lui	v0,0xa000
9d007778:	0f4022fa 	jal	9d008be8 <malloc_trim>
9d00777c:	8c441ba0 	lw	a0,7072(v0)
9d007780:	8fbf0014 	lw	ra,20(sp)
9d007784:	03e00008 	jr	ra
9d007788:	27bd0018 	addiu	sp,sp,24
9d00778c:	5080000b 	beqzl	a0,9d0077bc <free+0x234>
9d007790:	2c440055 	sltiu	a0,v0,85
9d007794:	2444005b 	addiu	a0,v0,91
9d007798:	0b401d9a 	j	9d007668 <free+0xe0>
9d00779c:	00043040 	sll	a2,a0,0x1
9d0077a0:	00042083 	sra	a0,a0,0x2
9d0077a4:	24060001 	li	a2,1
9d0077a8:	00862004 	sllv	a0,a2,a0
9d0077ac:	00831825 	or	v1,a0,v1
9d0077b0:	ad030004 	sw	v1,4(t0)
9d0077b4:	0b401da9 	j	9d0076a4 <free+0x11c>
9d0077b8:	00401821 	move	v1,v0
9d0077bc:	50800005 	beqzl	a0,9d0077d4 <free+0x24c>
9d0077c0:	2c440155 	sltiu	a0,v0,341
9d0077c4:	00032302 	srl	a0,v1,0xc
9d0077c8:	2484006e 	addiu	a0,a0,110
9d0077cc:	0b401d9a 	j	9d007668 <free+0xe0>
9d0077d0:	00043040 	sll	a2,a0,0x1
9d0077d4:	10800005 	beqz	a0,9d0077ec <free+0x264>
9d0077d8:	2c420555 	sltiu	v0,v0,1365
9d0077dc:	000323c2 	srl	a0,v1,0xf
9d0077e0:	24840077 	addiu	a0,a0,119
9d0077e4:	0b401d9a 	j	9d007668 <free+0xe0>
9d0077e8:	00043040 	sll	a2,a0,0x1
9d0077ec:	50400005 	beqzl	v0,9d007804 <free+0x27c>
9d0077f0:	240600fc 	li	a2,252
9d0077f4:	00032482 	srl	a0,v1,0x12
9d0077f8:	2484007c 	addiu	a0,a0,124
9d0077fc:	0b401d9a 	j	9d007668 <free+0xe0>
9d007800:	00043040 	sll	a2,a0,0x1
9d007804:	0b401d9a 	j	9d007668 <free+0xe0>
9d007808:	2404007e 	li	a0,126

Disassembly of section .text.strtoul:

9d00780c <strtoul>:
9d00780c:	80820000 	lb	v0,0(a0)
9d007810:	10400089 	beqz	v0,9d007a38 <strtoul+0x22c>
9d007814:	00001821 	move	v1,zero
9d007818:	3c089d01 	lui	t0,0x9d01
9d00781c:	25088cf1 	addiu	t0,t0,-29455
9d007820:	01021821 	addu	v1,t0,v0
9d007824:	80630000 	lb	v1,0(v1)
9d007828:	30630088 	andi	v1,v1,0x88
9d00782c:	14600007 	bnez	v1,9d00784c <strtoul+0x40>
9d007830:	00803821 	move	a3,a0
9d007834:	0b401e67 	j	9d00799c <strtoul+0x190>
9d007838:	2403002b 	li	v1,43
9d00783c:	80630000 	lb	v1,0(v1)
9d007840:	30630088 	andi	v1,v1,0x88
9d007844:	50600055 	beqzl	v1,9d00799c <strtoul+0x190>
9d007848:	2403002b 	li	v1,43
9d00784c:	24e70001 	addiu	a3,a3,1
9d007850:	80e20000 	lb	v0,0(a3)
9d007854:	1440fff9 	bnez	v0,9d00783c <strtoul+0x30>
9d007858:	01021821 	addu	v1,t0,v0
9d00785c:	00001821 	move	v1,zero
9d007860:	0000c021 	move	t8,zero
9d007864:	14c00041 	bnez	a2,9d00796c <strtoul+0x160>
9d007868:	24020010 	li	v0,16
9d00786c:	24020030 	li	v0,48
9d007870:	1062005d 	beq	v1,v0,9d0079e8 <strtoul+0x1dc>
9d007874:	3c0d1999 	lui	t5,0x1999
9d007878:	35ad9999 	ori	t5,t5,0x9999
9d00787c:	240f000a 	li	t7,10
9d007880:	00005821 	move	t3,zero
9d007884:	2406000a 	li	a2,10
9d007888:	24e7ffff 	addiu	a3,a3,-1
9d00788c:	00005021 	move	t2,zero
9d007890:	00001021 	move	v0,zero
9d007894:	3c0c9d01 	lui	t4,0x9d01
9d007898:	258c8cf1 	addiu	t4,t4,-29455
9d00789c:	24190061 	li	t9,97
9d0078a0:	240e0041 	li	t6,65
9d0078a4:	10600019 	beqz	v1,9d00790c <strtoul+0x100>
9d0078a8:	24e70001 	addiu	a3,a3,1
9d0078ac:	006c4021 	addu	t0,v1,t4
9d0078b0:	91080000 	lbu	t0,0(t0)
9d0078b4:	31090004 	andi	t1,t0,0x4
9d0078b8:	11200023 	beqz	t1,9d007948 <strtoul+0x13c>
9d0078bc:	31090003 	andi	t1,t0,0x3
9d0078c0:	2463ffd0 	addiu	v1,v1,-48
9d0078c4:	04600011 	bltz	v1,9d00790c <strtoul+0x100>
9d0078c8:	0066402a 	slt	t0,v1,a2
9d0078cc:	1100000f 	beqz	t0,9d00790c <strtoul+0x100>
9d0078d0:	01a2402b 	sltu	t0,t5,v0
9d0078d4:	55000019 	bnezl	t0,9d00793c <strtoul+0x130>
9d0078d8:	240a0001 	li	t2,1
9d0078dc:	55400008 	bnezl	t2,9d007900 <strtoul+0xf4>
9d0078e0:	80e30001 	lb	v1,1(a3)
9d0078e4:	704f1002 	mul	v0,v0,t7
9d0078e8:	00024027 	nor	t0,zero,v0
9d0078ec:	0103402b 	sltu	t0,t0,v1
9d0078f0:	55000012 	bnezl	t0,9d00793c <strtoul+0x130>
9d0078f4:	240a0001 	li	t2,1
9d0078f8:	00431021 	addu	v0,v0,v1
9d0078fc:	80e30001 	lb	v1,1(a3)
9d007900:	240b0001 	li	t3,1
9d007904:	1460ffe9 	bnez	v1,9d0078ac <strtoul+0xa0>
9d007908:	24e70001 	addiu	a3,a3,1
9d00790c:	1300001f 	beqz	t8,9d00798c <strtoul+0x180>
9d007910:	00000000 	nop
9d007914:	11400005 	beqz	t2,9d00792c <strtoul+0x120>
9d007918:	00021023 	negu	v0,v0
9d00791c:	24030022 	li	v1,34
9d007920:	3c02a000 	lui	v0,0xa000
9d007924:	ac430020 	sw	v1,32(v0)
9d007928:	2402ffff 	li	v0,-1
9d00792c:	10a0000d 	beqz	a1,9d007964 <strtoul+0x158>
9d007930:	008b380a 	movz	a3,a0,t3
9d007934:	03e00008 	jr	ra
9d007938:	aca70000 	sw	a3,0(a1)
9d00793c:	80e30001 	lb	v1,1(a3)
9d007940:	0b401e41 	j	9d007904 <strtoul+0xf8>
9d007944:	240b0001 	li	t3,1
9d007948:	1120fff0 	beqz	t1,9d00790c <strtoul+0x100>
9d00794c:	31080001 	andi	t0,t0,0x1
9d007950:	01c04821 	move	t1,t6
9d007954:	0328480a 	movz	t1,t9,t0
9d007958:	00691823 	subu	v1,v1,t1
9d00795c:	0b401e31 	j	9d0078c4 <strtoul+0xb8>
9d007960:	2463000a 	addiu	v1,v1,10
9d007964:	03e00008 	jr	ra
9d007968:	00000000 	nop
9d00796c:	10c20017 	beq	a2,v0,9d0079cc <strtoul+0x1c0>
9d007970:	240dffff 	li	t5,-1
9d007974:	00c07821 	move	t7,a2
9d007978:	01a6001b 	divu	zero,t5,a2
9d00797c:	00c001f4 	teq	a2,zero,0x7
9d007980:	00006812 	mflo	t5
9d007984:	0b401e22 	j	9d007888 <strtoul+0x7c>
9d007988:	00005821 	move	t3,zero
9d00798c:	1540ffe4 	bnez	t2,9d007920 <strtoul+0x114>
9d007990:	24030022 	li	v1,34
9d007994:	0b401e4b 	j	9d00792c <strtoul+0x120>
9d007998:	00000000 	nop
9d00799c:	54430006 	bnel	v0,v1,9d0079b8 <strtoul+0x1ac>
9d0079a0:	2403002d 	li	v1,45
9d0079a4:	3842002d 	xori	v0,v0,0x2d
9d0079a8:	80e30001 	lb	v1,1(a3)
9d0079ac:	2c580001 	sltiu	t8,v0,1
9d0079b0:	0b401e19 	j	9d007864 <strtoul+0x58>
9d0079b4:	24e70001 	addiu	a3,a3,1
9d0079b8:	5043fffb 	beql	v0,v1,9d0079a8 <strtoul+0x19c>
9d0079bc:	3842002d 	xori	v0,v0,0x2d
9d0079c0:	80e30000 	lb	v1,0(a3)
9d0079c4:	0b401e19 	j	9d007864 <strtoul+0x58>
9d0079c8:	0000c021 	move	t8,zero
9d0079cc:	24020030 	li	v0,48
9d0079d0:	1062001c 	beq	v1,v0,9d007a44 <strtoul+0x238>
9d0079d4:	3c0d0fff 	lui	t5,0xfff
9d0079d8:	35adffff 	ori	t5,t5,0xffff
9d0079dc:	240f0010 	li	t7,16
9d0079e0:	0b401e22 	j	9d007888 <strtoul+0x7c>
9d0079e4:	00005821 	move	t3,zero
9d0079e8:	80e30001 	lb	v1,1(a3)
9d0079ec:	2406ffdf 	li	a2,-33
9d0079f0:	00663024 	and	a2,v1,a2
9d0079f4:	24020058 	li	v0,88
9d0079f8:	50c20008 	beql	a2,v0,9d007a1c <strtoul+0x210>
9d0079fc:	80e30002 	lb	v1,2(a3)
9d007a00:	24e70001 	addiu	a3,a3,1
9d007a04:	3c0d1fff 	lui	t5,0x1fff
9d007a08:	35adffff 	ori	t5,t5,0xffff
9d007a0c:	240f0008 	li	t7,8
9d007a10:	240b0001 	li	t3,1
9d007a14:	0b401e22 	j	9d007888 <strtoul+0x7c>
9d007a18:	24060008 	li	a2,8
9d007a1c:	3c0d0fff 	lui	t5,0xfff
9d007a20:	35adffff 	ori	t5,t5,0xffff
9d007a24:	24e70002 	addiu	a3,a3,2
9d007a28:	240f0010 	li	t7,16
9d007a2c:	240b0001 	li	t3,1
9d007a30:	0b401e22 	j	9d007888 <strtoul+0x7c>
9d007a34:	24060010 	li	a2,16
9d007a38:	00803821 	move	a3,a0
9d007a3c:	0b401e19 	j	9d007864 <strtoul+0x58>
9d007a40:	0000c021 	move	t8,zero
9d007a44:	80e30001 	lb	v1,1(a3)
9d007a48:	2408ffdf 	li	t0,-33
9d007a4c:	00684024 	and	t0,v1,t0
9d007a50:	24020058 	li	v0,88
9d007a54:	51020007 	beql	t0,v0,9d007a74 <strtoul+0x268>
9d007a58:	80e30002 	lb	v1,2(a3)
9d007a5c:	24e70001 	addiu	a3,a3,1
9d007a60:	3c0d0fff 	lui	t5,0xfff
9d007a64:	35adffff 	ori	t5,t5,0xffff
9d007a68:	240f0010 	li	t7,16
9d007a6c:	0b401e22 	j	9d007888 <strtoul+0x7c>
9d007a70:	240b0001 	li	t3,1
9d007a74:	3c0d0fff 	lui	t5,0xfff
9d007a78:	35adffff 	ori	t5,t5,0xffff
9d007a7c:	24e70002 	addiu	a3,a3,2
9d007a80:	240f0010 	li	t7,16
9d007a84:	0b401e22 	j	9d007888 <strtoul+0x7c>
9d007a88:	240b0001 	li	t3,1

Disassembly of section .text.strtol:

9d007a8c <strtol>:
9d007a8c:	80820000 	lb	v0,0(a0)
9d007a90:	1040008a 	beqz	v0,9d007cbc <strtol+0x230>
9d007a94:	00001821 	move	v1,zero
9d007a98:	3c089d01 	lui	t0,0x9d01
9d007a9c:	25088cf1 	addiu	t0,t0,-29455
9d007aa0:	01021821 	addu	v1,t0,v0
9d007aa4:	80630000 	lb	v1,0(v1)
9d007aa8:	30630088 	andi	v1,v1,0x88
9d007aac:	14600007 	bnez	v1,9d007acc <strtol+0x40>
9d007ab0:	00803821 	move	a3,a0
9d007ab4:	0b401f0b 	j	9d007c2c <strtol+0x1a0>
9d007ab8:	2403002b 	li	v1,43
9d007abc:	80630000 	lb	v1,0(v1)
9d007ac0:	30630088 	andi	v1,v1,0x88
9d007ac4:	50600059 	beqzl	v1,9d007c2c <strtol+0x1a0>
9d007ac8:	2403002b 	li	v1,43
9d007acc:	24e70001 	addiu	a3,a3,1
9d007ad0:	80e20000 	lb	v0,0(a3)
9d007ad4:	1440fff9 	bnez	v0,9d007abc <strtol+0x30>
9d007ad8:	01021821 	addu	v1,t0,v0
9d007adc:	00001821 	move	v1,zero
9d007ae0:	0000c021 	move	t8,zero
9d007ae4:	14c00042 	bnez	a2,9d007bf0 <strtol+0x164>
9d007ae8:	24020010 	li	v0,16
9d007aec:	24020030 	li	v0,48
9d007af0:	10620060 	beq	v1,v0,9d007c74 <strtol+0x1e8>
9d007af4:	3c0d0ccc 	lui	t5,0xccc
9d007af8:	35adcccc 	ori	t5,t5,0xcccc
9d007afc:	00005821 	move	t3,zero
9d007b00:	2406000a 	li	a2,10
9d007b04:	24e7ffff 	addiu	a3,a3,-1
9d007b08:	00005021 	move	t2,zero
9d007b0c:	00001021 	move	v0,zero
9d007b10:	3c0c9d01 	lui	t4,0x9d01
9d007b14:	258c8cf1 	addiu	t4,t4,-29455
9d007b18:	240f0061 	li	t7,97
9d007b1c:	240e0041 	li	t6,65
9d007b20:	3c197fff 	lui	t9,0x7fff
9d007b24:	3739ffff 	ori	t9,t9,0xffff
9d007b28:	10600019 	beqz	v1,9d007b90 <strtol+0x104>
9d007b2c:	24e70001 	addiu	a3,a3,1
9d007b30:	006c4021 	addu	t0,v1,t4
9d007b34:	91080000 	lbu	t0,0(t0)
9d007b38:	31090004 	andi	t1,t0,0x4
9d007b3c:	11200023 	beqz	t1,9d007bcc <strtol+0x140>
9d007b40:	31090003 	andi	t1,t0,0x3
9d007b44:	2463ffd0 	addiu	v1,v1,-48
9d007b48:	04600011 	bltz	v1,9d007b90 <strtol+0x104>
9d007b4c:	0066402a 	slt	t0,v1,a2
9d007b50:	1100000f 	beqz	t0,9d007b90 <strtol+0x104>
9d007b54:	01a2402a 	slt	t0,t5,v0
9d007b58:	55000019 	bnezl	t0,9d007bc0 <strtol+0x134>
9d007b5c:	240a0001 	li	t2,1
9d007b60:	55400017 	bnezl	t2,9d007bc0 <strtol+0x134>
9d007b64:	240a0001 	li	t2,1
9d007b68:	70461002 	mul	v0,v0,a2
9d007b6c:	03224023 	subu	t0,t9,v0
9d007b70:	0103402a 	slt	t0,t0,v1
9d007b74:	55000012 	bnezl	t0,9d007bc0 <strtol+0x134>
9d007b78:	240a0001 	li	t2,1
9d007b7c:	00431021 	addu	v0,v0,v1
9d007b80:	80e30001 	lb	v1,1(a3)
9d007b84:	240b0001 	li	t3,1
9d007b88:	1460ffe9 	bnez	v1,9d007b30 <strtol+0xa4>
9d007b8c:	24e70001 	addiu	a3,a3,1
9d007b90:	1300001f 	beqz	t8,9d007c10 <strtol+0x184>
9d007b94:	00000000 	nop
9d007b98:	11400005 	beqz	t2,9d007bb0 <strtol+0x124>
9d007b9c:	00021023 	negu	v0,v0
9d007ba0:	24030022 	li	v1,34
9d007ba4:	3c02a000 	lui	v0,0xa000
9d007ba8:	ac430020 	sw	v1,32(v0)
9d007bac:	3c028000 	lui	v0,0x8000
9d007bb0:	10a0000d 	beqz	a1,9d007be8 <strtol+0x15c>
9d007bb4:	008b380a 	movz	a3,a0,t3
9d007bb8:	03e00008 	jr	ra
9d007bbc:	aca70000 	sw	a3,0(a1)
9d007bc0:	80e30001 	lb	v1,1(a3)
9d007bc4:	0b401ee2 	j	9d007b88 <strtol+0xfc>
9d007bc8:	240b0001 	li	t3,1
9d007bcc:	1120fff0 	beqz	t1,9d007b90 <strtol+0x104>
9d007bd0:	31080001 	andi	t0,t0,0x1
9d007bd4:	01c04821 	move	t1,t6
9d007bd8:	01e8480a 	movz	t1,t7,t0
9d007bdc:	00691823 	subu	v1,v1,t1
9d007be0:	0b401ed2 	j	9d007b48 <strtol+0xbc>
9d007be4:	2463000a 	addiu	v1,v1,10
9d007be8:	03e00008 	jr	ra
9d007bec:	00000000 	nop
9d007bf0:	10c2001a 	beq	a2,v0,9d007c5c <strtol+0x1d0>
9d007bf4:	3c0d7fff 	lui	t5,0x7fff
9d007bf8:	35adffff 	ori	t5,t5,0xffff
9d007bfc:	01a6001a 	div	zero,t5,a2
9d007c00:	00c001f4 	teq	a2,zero,0x7
9d007c04:	00006812 	mflo	t5
9d007c08:	0b401ec1 	j	9d007b04 <strtol+0x78>
9d007c0c:	00005821 	move	t3,zero
9d007c10:	1140ffe7 	beqz	t2,9d007bb0 <strtol+0x124>
9d007c14:	24030022 	li	v1,34
9d007c18:	3c02a000 	lui	v0,0xa000
9d007c1c:	ac430020 	sw	v1,32(v0)
9d007c20:	3c027fff 	lui	v0,0x7fff
9d007c24:	0b401eec 	j	9d007bb0 <strtol+0x124>
9d007c28:	3442ffff 	ori	v0,v0,0xffff
9d007c2c:	54430006 	bnel	v0,v1,9d007c48 <strtol+0x1bc>
9d007c30:	2403002d 	li	v1,45
9d007c34:	3842002d 	xori	v0,v0,0x2d
9d007c38:	80e30001 	lb	v1,1(a3)
9d007c3c:	2c580001 	sltiu	t8,v0,1
9d007c40:	0b401eb9 	j	9d007ae4 <strtol+0x58>
9d007c44:	24e70001 	addiu	a3,a3,1
9d007c48:	5043fffb 	beql	v0,v1,9d007c38 <strtol+0x1ac>
9d007c4c:	3842002d 	xori	v0,v0,0x2d
9d007c50:	80e30000 	lb	v1,0(a3)
9d007c54:	0b401eb9 	j	9d007ae4 <strtol+0x58>
9d007c58:	0000c021 	move	t8,zero
9d007c5c:	24020030 	li	v0,48
9d007c60:	10620019 	beq	v1,v0,9d007cc8 <strtol+0x23c>
9d007c64:	3c0d07ff 	lui	t5,0x7ff
9d007c68:	35adffff 	ori	t5,t5,0xffff
9d007c6c:	0b401ec1 	j	9d007b04 <strtol+0x78>
9d007c70:	00005821 	move	t3,zero
9d007c74:	80e30001 	lb	v1,1(a3)
9d007c78:	2406ffdf 	li	a2,-33
9d007c7c:	00663024 	and	a2,v1,a2
9d007c80:	24020058 	li	v0,88
9d007c84:	50c20007 	beql	a2,v0,9d007ca4 <strtol+0x218>
9d007c88:	80e30002 	lb	v1,2(a3)
9d007c8c:	24e70001 	addiu	a3,a3,1
9d007c90:	3c0d0fff 	lui	t5,0xfff
9d007c94:	35adffff 	ori	t5,t5,0xffff
9d007c98:	240b0001 	li	t3,1
9d007c9c:	0b401ec1 	j	9d007b04 <strtol+0x78>
9d007ca0:	24060008 	li	a2,8
9d007ca4:	3c0d07ff 	lui	t5,0x7ff
9d007ca8:	35adffff 	ori	t5,t5,0xffff
9d007cac:	24e70002 	addiu	a3,a3,2
9d007cb0:	240b0001 	li	t3,1
9d007cb4:	0b401ec1 	j	9d007b04 <strtol+0x78>
9d007cb8:	24060010 	li	a2,16
9d007cbc:	00803821 	move	a3,a0
9d007cc0:	0b401eb9 	j	9d007ae4 <strtol+0x58>
9d007cc4:	0000c021 	move	t8,zero
9d007cc8:	80e30001 	lb	v1,1(a3)
9d007ccc:	2408ffdf 	li	t0,-33
9d007cd0:	00684024 	and	t0,v1,t0
9d007cd4:	24020058 	li	v0,88
9d007cd8:	51020006 	beql	t0,v0,9d007cf4 <strtol+0x268>
9d007cdc:	80e30002 	lb	v1,2(a3)
9d007ce0:	24e70001 	addiu	a3,a3,1
9d007ce4:	3c0d07ff 	lui	t5,0x7ff
9d007ce8:	35adffff 	ori	t5,t5,0xffff
9d007cec:	0b401ec1 	j	9d007b04 <strtol+0x78>
9d007cf0:	240b0001 	li	t3,1
9d007cf4:	3c0d07ff 	lui	t5,0x7ff
9d007cf8:	35adffff 	ori	t5,t5,0xffff
9d007cfc:	24e70002 	addiu	a3,a3,2
9d007d00:	0b401ec1 	j	9d007b04 <strtol+0x78>
9d007d04:	240b0001 	li	t3,1

Disassembly of section .text.fpsubadd:

9d007d08 <__subsf3>:
9d007d08:	3c018000 00a12826                       ...<&(..

9d007d10 <__addsf3>:
9d007d10:	00044dc2 312900ff 00055dc2 316b00ff     .M....)1.]....k1
9d007d20:	3c078000 00044200 01074025 00055200     ...<.B..%@...R..
9d007d30:	01475025 252dffff 2da100fe 10200061     %PG...-%...-a. .
9d007d40:	00000000                                ....

9d007d44 <Blab1>:
9d007d44:	256dffff 	addiu	t5,t3,-1
9d007d48:	2da100fe 	sltiu	at,t5,254
9d007d4c:	10200077 	beqz	at,9d007f2c <BspecB>
9d007d50:	00000000 	nop

9d007d54 <Blab2>:
9d007d54:	012b6023 	subu	t4,t1,t3
9d007d58:	0580000d 	bltz	t4,9d007d90 <i1>
9d007d5c:	00000000 	nop
9d007d60:	29810020 	slti	at,t4,32
9d007d64:	14200003 	bnez	at,9d007d74 <i2>
9d007d68:	00000000 	nop
9d007d6c:	10000015 	b	9d007dc4 <e1>
9d007d70:	240a0002 	li	t2,2

9d007d74 <i2>:
9d007d74:	000a3025 	or	a2,zero,t2
9d007d78:	018a5006 	srlv	t2,t2,t4
9d007d7c:	018a6804 	sllv	t5,t2,t4
9d007d80:	11a60010 	beq	t5,a2,9d007dc4 <e1>
9d007d84:	00000000 	nop
9d007d88:	1000000e 	b	9d007dc4 <e1>
9d007d8c:	354a0002 	ori	t2,t2,0x2

9d007d90 <i1>:
9d007d90:	000b4825 	or	t1,zero,t3
9d007d94:	000c6023 	negu	t4,t4
9d007d98:	29810020 	slti	at,t4,32
9d007d9c:	14200003 	bnez	at,9d007dac <i4>
9d007da0:	00000000 	nop
9d007da4:	10000007 	b	9d007dc4 <e1>
9d007da8:	24080002 	li	t0,2

9d007dac <i4>:
9d007dac:	00083025 	or	a2,zero,t0
9d007db0:	01884006 	srlv	t0,t0,t4
9d007db4:	01886804 	sllv	t5,t0,t4
9d007db8:	11a60002 	beq	t5,a2,9d007dc4 <e1>
9d007dbc:	00000000 	nop
9d007dc0:	35080002 	ori	t0,t0,0x2

9d007dc4 <e1>:
9d007dc4:	00876024 	and	t4,a0,a3
9d007dc8:	01856826 	xor	t5,t4,a1
9d007dcc:	05a00010 	bltz	t5,9d007e10 <Bsub1>
9d007dd0:	00000000 	nop
9d007dd4:	010a4021 	addu	t0,t0,t2
9d007dd8:	010a682b 	sltu	t5,t0,t2
9d007ddc:	11a00017 	beqz	t5,9d007e3c <Bres>
9d007de0:	00000000 	nop
9d007de4:	310d0001 	andi	t5,t0,0x1
9d007de8:	11a00002 	beqz	t5,9d007df4 <i7>
9d007dec:	00000000 	nop
9d007df0:	35080002 	ori	t0,t0,0x2

9d007df4 <i7>:
9d007df4:	00084042 	srl	t0,t0,0x1
9d007df8:	25290001 	addiu	t1,t1,1
9d007dfc:	240100ff 	li	at,255
9d007e00:	1521000e 	bne	t1,at,9d007e3c <Bres>
9d007e04:	00000000 	nop
9d007e08:	1000000c 	b	9d007e3c <Bres>
9d007e0c:	24080000 	li	t0,0

9d007e10 <Bsub1>:
9d007e10:	010a682b 	sltu	t5,t0,t2
9d007e14:	11a00004 	beqz	t5,9d007e28 <i9>
9d007e18:	010a4023 	subu	t0,t0,t2
9d007e1c:	00084023 	negu	t0,t0
9d007e20:	10000003 	b	9d007e30 <e9>
9d007e24:	01876026 	xor	t4,t4,a3

9d007e28 <i9>:
9d007e28:	11000050 	beqz	t0,9d007f6c <Bzer>
9d007e2c:	00000000 	nop

9d007e30 <e9>:
9d007e30:	71063020 	clz	a2,t0
9d007e34:	01264823 	subu	t1,t1,a2
9d007e38:	00c84004 	sllv	t0,t0,a2

9d007e3c <Bres>:
9d007e3c:	1920000e 	blez	t1,9d007e78 <Bund>
9d007e40:	00000000 	nop

9d007e44 <Blab12>:
9d007e44:	25080080 	addiu	t0,t0,128
9d007e48:	2d0d0080 	sltiu	t5,t0,128
9d007e4c:	012d4821 	addu	t1,t1,t5
9d007e50:	00086a02 	srl	t5,t0,0x8
9d007e54:	31ad0001 	andi	t5,t5,0x1
9d007e58:	010d4023 	subu	t0,t0,t5
9d007e5c:	00084040 	sll	t0,t0,0x1
9d007e60:	00084242 	srl	t0,t0,0x9
9d007e64:	00096dc0 	sll	t5,t1,0x17
9d007e68:	010d4025 	or	t0,t0,t5
9d007e6c:	010c1025 	or	v0,t0,t4

9d007e70 <B999>:
9d007e70:	03e00008 	jr	ra
9d007e74:	00000000 	nop

9d007e78 <Bund>:
9d007e78:	24060001 	li	a2,1
9d007e7c:	00c93023 	subu	a2,a2,t1
9d007e80:	2cc10020 	sltiu	at,a2,32
9d007e84:	10200039 	beqz	at,9d007f6c <Bzer>
9d007e88:	00000000 	nop
9d007e8c:	3c018000 	lui	at,0x8000
9d007e90:	01014025 	or	t0,t0,at
9d007e94:	240d0020 	li	t5,32
9d007e98:	01a66823 	subu	t5,t5,a2
9d007e9c:	01a84804 	sllv	t1,t0,t5
9d007ea0:	11200002 	beqz	t1,9d007eac <i10>
9d007ea4:	00c84006 	srlv	t0,t0,a2
9d007ea8:	35080001 	ori	t0,t0,0x1

9d007eac <i10>:
9d007eac:	24090000 	li	t1,0
9d007eb0:	250d0080 	addiu	t5,t0,128
9d007eb4:	05a1ffe3 	bgez	t5,9d007e44 <Blab12>
9d007eb8:	00000000 	nop
9d007ebc:	1000ffe1 	b	9d007e44 <Blab12>
9d007ec0:	24090001 	li	t1,1

9d007ec4 <BspecA>:
9d007ec4:	1520000e 	bnez	t1,9d007f00 <i12>
9d007ec8:	00000000 	nop
9d007ecc:	01084021 	addu	t0,t0,t0
9d007ed0:	11000005 	beqz	t0,9d007ee8 <i13>
9d007ed4:	00000000 	nop
9d007ed8:	710c6020 	clz	t4,t0
9d007edc:	012c4823 	subu	t1,t1,t4
9d007ee0:	1000ff98 	b	9d007d44 <Blab1>
9d007ee4:	01884004 	sllv	t0,t0,t4

9d007ee8 <i13>:
9d007ee8:	240100ff 	li	at,255
9d007eec:	1161000f 	beq	t3,at,9d007f2c <BspecB>
9d007ef0:	00000000 	nop
9d007ef4:	3c018000 	lui	at,0x8000
9d007ef8:	14a10018 	bne	a1,at,9d007f5c <BretB>
9d007efc:	00000000 	nop

9d007f00 <i12>:
9d007f00:	01086821 	addu	t5,t0,t0
9d007f04:	15a0001b 	bnez	t5,9d007f74 <Bnan>
9d007f08:	00000000 	nop
9d007f0c:	240100ff 	li	at,255
9d007f10:	15610014 	bne	t3,at,9d007f64 <BretA>
9d007f14:	00000000 	nop
9d007f18:	00856826 	xor	t5,a0,a1
9d007f1c:	05a00015 	bltz	t5,9d007f74 <Bnan>
9d007f20:	00000000 	nop
9d007f24:	1000000d 	b	9d007f5c <BretB>
9d007f28:	00000000 	nop

9d007f2c <BspecB>:
9d007f2c:	15600008 	bnez	t3,9d007f50 <i15>
9d007f30:	00000000 	nop
9d007f34:	014a5021 	addu	t2,t2,t2
9d007f38:	1140000a 	beqz	t2,9d007f64 <BretA>
9d007f3c:	00000000 	nop
9d007f40:	714c6020 	clz	t4,t2
9d007f44:	016c5823 	subu	t3,t3,t4
9d007f48:	1000ff82 	b	9d007d54 <Blab2>
9d007f4c:	018a5004 	sllv	t2,t2,t4

9d007f50 <i15>:
9d007f50:	014a6821 	addu	t5,t2,t2
9d007f54:	15a00007 	bnez	t5,9d007f74 <Bnan>
9d007f58:	00000000 	nop

9d007f5c <BretB>:
9d007f5c:	1000ffc4 	b	9d007e70 <B999>
9d007f60:	00051025 	or	v0,zero,a1

9d007f64 <BretA>:
9d007f64:	1000ffc2 	b	9d007e70 <B999>
9d007f68:	00041025 	or	v0,zero,a0

9d007f6c <Bzer>:
9d007f6c:	1000ffc0 	b	9d007e70 <B999>
9d007f70:	24020000 	li	v0,0

9d007f74 <Bnan>:
9d007f74:	1000ffbe 	b	9d007e70 <B999>
9d007f78:	3c02ffc0 	lui	v0,0xffc0
9d007f7c:	00000000 	nop

Disassembly of section .text.fp32div:

9d007f80 <__divsf3>:
9d007f80:	3c0b8000 000445c2 310800ff 000555c2     ...<.E.....1.U..
9d007f90:	314a00ff 00043a00 00eb3825 00054a00     ..J1.:..%8...J..
9d007fa0:	012b4825 00857026 016e5824 250effff     %H+.&p..$Xn....%
9d007fb0:	2dc100fe 1020003f 00000000              ...-?. .....

9d007fbc <Dlab1>:
9d007fbc:	254effff 	addiu	t6,t2,-1
9d007fc0:	2dc100fe 	sltiu	at,t6,254
9d007fc4:	10200053 	beqz	at,9d008114 <DspecB>
9d007fc8:	00000000 	nop

9d007fcc <Dlab2>:
9d007fcc:	00e9082b 	sltu	at,a3,t1
9d007fd0:	14200003 	bnez	at,9d007fe0 <i27>
9d007fd4:	00000000 	nop
9d007fd8:	00073842 	srl	a3,a3,0x1
9d007fdc:	25080001 	addiu	t0,t0,1

9d007fe0 <i27>:
9d007fe0:	00096382 	srl	t4,t1,0xe
9d007fe4:	018001f4 	teq	t4,zero,0x7
9d007fe8:	00ec001b 	divu	zero,a3,t4
9d007fec:	00002012 	mflo	a0
9d007ff0:	00003010 	mfhi	a2
9d007ff4:	312d3fff 	andi	t5,t1,0x3fff
9d007ff8:	01a40019 	multu	t5,a0
9d007ffc:	00002812 	mflo	a1
9d008000:	00063380 	sll	a2,a2,0xe
9d008004:	00c5702b 	sltu	t6,a2,a1
9d008008:	11c00004 	beqz	t6,9d00801c <i28>
9d00800c:	00c53023 	subu	a2,a2,a1
9d008010:	2484ffff 	addiu	a0,a0,-1
9d008014:	00c93021 	addu	a2,a2,t1
9d008018:	00c9702b 	sltu	t6,a2,t1

9d00801c <i28>:
9d00801c:	018001f4 	teq	t4,zero,0x7
9d008020:	00cc001b 	divu	zero,a2,t4
9d008024:	00003812 	mflo	a3
9d008028:	00003010 	mfhi	a2
9d00802c:	01a70019 	multu	t5,a3
9d008030:	00002812 	mflo	a1
9d008034:	00063380 	sll	a2,a2,0xe
9d008038:	00c5702b 	sltu	t6,a2,a1
9d00803c:	11c00004 	beqz	t6,9d008050 <i29>
9d008040:	00c53023 	subu	a2,a2,a1
9d008044:	24e7ffff 	addiu	a3,a3,-1
9d008048:	00c93021 	addu	a2,a2,t1
9d00804c:	00c9702b 	sltu	t6,a2,t1

9d008050 <i29>:
9d008050:	00047380 	sll	t6,a0,0xe
9d008054:	00ee3821 	addu	a3,a3,t6
9d008058:	10c00002 	beqz	a2,9d008064 <i30>
9d00805c:	00073900 	sll	a3,a3,0x4
9d008060:	34e70001 	ori	a3,a3,0x1

9d008064 <i30>:
9d008064:	240e007e 	li	t6,126
9d008068:	01ca7023 	subu	t6,t6,t2
9d00806c:	010e4021 	addu	t0,t0,t6
9d008070:	250effff 	addiu	t6,t0,-1
9d008074:	2dc100fe 	sltiu	at,t6,254
9d008078:	10200034 	beqz	at,9d00814c <Doveund>
9d00807c:	00000000 	nop

9d008080 <Dlab8>:
9d008080:	24e70080 	addiu	a3,a3,128
9d008084:	2cee0080 	sltiu	t6,a3,128
9d008088:	010e4021 	addu	t0,t0,t6
9d00808c:	00077202 	srl	t6,a3,0x8
9d008090:	31ce0001 	andi	t6,t6,0x1
9d008094:	00ee3823 	subu	a3,a3,t6
9d008098:	00073840 	sll	a3,a3,0x1
9d00809c:	00073a42 	srl	a3,a3,0x9
9d0080a0:	000875c0 	sll	t6,t0,0x17
9d0080a4:	00ee3825 	or	a3,a3,t6
9d0080a8:	00eb1025 	or	v0,a3,t3

9d0080ac <D999>:
9d0080ac:	03e00008 	jr	ra
9d0080b0:	00000000 	nop

9d0080b4 <DspecA>:
9d0080b4:	15000008 	bnez	t0,9d0080d8 <i31>
9d0080b8:	00000000 	nop
9d0080bc:	00e73821 	addu	a3,a3,a3
9d0080c0:	10e00005 	beqz	a3,9d0080d8 <i31>
9d0080c4:	00000000 	nop
9d0080c8:	70ec6020 	clz	t4,a3
9d0080cc:	010c4023 	subu	t0,t0,t4
9d0080d0:	1000ffba 	b	9d007fbc <Dlab1>
9d0080d4:	01873804 	sllv	a3,a3,t4

9d0080d8 <i31>:
9d0080d8:	15480004 	bne	t2,t0,9d0080ec <i33>
9d0080dc:	00000000 	nop
9d0080e0:	01297021 	addu	t6,t1,t1
9d0080e4:	11c0002f 	beqz	t6,9d0081a4 <Dnan>
9d0080e8:	00000000 	nop

9d0080ec <i33>:
9d0080ec:	240100ff 	li	at,255
9d0080f0:	11410008 	beq	t2,at,9d008114 <DspecB>
9d0080f4:	00000000 	nop
9d0080f8:	11000012 	beqz	t0,9d008144 <Dzer>
9d0080fc:	00000000 	nop
9d008100:	00e77021 	addu	t6,a3,a3
9d008104:	15c00027 	bnez	t6,9d0081a4 <Dnan>
9d008108:	00000000 	nop
9d00810c:	10000022 	b	9d008198 <Dinf>
9d008110:	00000000 	nop

9d008114 <DspecB>:
9d008114:	15400008 	bnez	t2,9d008138 <i34>
9d008118:	00000000 	nop
9d00811c:	01294821 	addu	t1,t1,t1
9d008120:	1120001d 	beqz	t1,9d008198 <Dinf>
9d008124:	00000000 	nop
9d008128:	712c6020 	clz	t4,t1
9d00812c:	014c5023 	subu	t2,t2,t4
9d008130:	1000ffa6 	b	9d007fcc <Dlab2>
9d008134:	01894804 	sllv	t1,t1,t4

9d008138 <i34>:
9d008138:	01297021 	addu	t6,t1,t1
9d00813c:	15c00019 	bnez	t6,9d0081a4 <Dnan>
9d008140:	00000000 	nop

9d008144 <Dzer>:
9d008144:	1000ffd9 	b	9d0080ac <D999>
9d008148:	000b1025 	or	v0,zero,t3

9d00814c <Doveund>:
9d00814c:	1d000012 	bgtz	t0,9d008198 <Dinf>
9d008150:	00000000 	nop
9d008154:	240c0001 	li	t4,1
9d008158:	01886023 	subu	t4,t4,t0
9d00815c:	2d810020 	sltiu	at,t4,32
9d008160:	1020fff8 	beqz	at,9d008144 <Dzer>
9d008164:	00000000 	nop
9d008168:	240e0020 	li	t6,32
9d00816c:	01cc7023 	subu	t6,t6,t4
9d008170:	01c74004 	sllv	t0,a3,t6
9d008174:	11000002 	beqz	t0,9d008180 <i37>
9d008178:	01873806 	srlv	a3,a3,t4
9d00817c:	34e70002 	ori	a3,a3,0x2

9d008180 <i37>:
9d008180:	24080000 	li	t0,0
9d008184:	24ee0080 	addiu	t6,a3,128
9d008188:	05c1ffbd 	bgez	t6,9d008080 <Dlab8>
9d00818c:	00000000 	nop
9d008190:	1000ffbb 	b	9d008080 <Dlab8>
9d008194:	24080001 	li	t0,1

9d008198 <Dinf>:
9d008198:	3c017f80 	lui	at,0x7f80
9d00819c:	1000ffc3 	b	9d0080ac <D999>
9d0081a0:	01611025 	or	v0,t3,at

9d0081a4 <Dnan>:
9d0081a4:	1000ffc1 	b	9d0080ac <D999>
9d0081a8:	3c02ffc0 	lui	v0,0xffc0
9d0081ac:	00000000 	nop

Disassembly of section .text:

9d0081b0 <NU32_Startup>:

// Perform startup routines:
//  Make NU32_LED1 and NU32_LED2 pins outputs (NU32_USER is by default an input)
//  Initialize the serial port - UART3 (no interrupt) 
//  Enable interrupts
void NU32_Startup() {
9d0081b0:	27bdfff8 	addiu	sp,sp,-8
9d0081b4:	afbf0004 	sw	ra,4(sp)
  // disable interrupts
  __builtin_disable_interrupts();
9d0081b8:	41626000 	di	v0
9d0081bc:	000000c0 	ehb
  // see Chapter 2 "CPU for Devices with M4K Core" of the PIC32 reference manual
  // most of the other bits have prescribed values
  // microchip does not provide a _CP0_SET_CONFIG macro, so we directly use
  // the compiler built-in command _mtc0
  // to disable cache, use 0xa4210582 
  __builtin_mtc0(_CP0_CONFIG, _CP0_CONFIG_SELECT, 0xa4210583); 
9d0081c0:	3c02a421 	lui	v0,0xa421
9d0081c4:	24420583 	addiu	v0,v0,1411
9d0081c8:	40828000 	mtc0	v0,c0_config
9d0081cc:	000000c0 	ehb
  
  // set the prefectch cache wait state to 2, as per the
  // electrical characteristics data sheet
  CHECONbits.PFMWS = 0x2;   
9d0081d0:	3c02bf88 	lui	v0,0xbf88
9d0081d4:	8c434000 	lw	v1,16384(v0)
9d0081d8:	24050002 	li	a1,2
9d0081dc:	7ca31004 	ins	v1,a1,0x0,0x3
9d0081e0:	ac434000 	sw	v1,16384(v0)

  //enable prefetch for cacheable and noncacheable memory
  CHECONbits.PREFEN = 0x3; 
9d0081e4:	8c434000 	lw	v1,16384(v0)
9d0081e8:	24040003 	li	a0,3
9d0081ec:	7c832904 	ins	v1,a0,0x4,0x2
9d0081f0:	ac434000 	sw	v1,16384(v0)

  // 0 data RAM access wait states
  BMXCONbits.BMXWSDRM = 0x0;
9d0081f4:	3c02bf88 	lui	v0,0xbf88
9d0081f8:	8c432000 	lw	v1,8192(v0)
9d0081fc:	7c033184 	ins	v1,zero,0x6,0x1
9d008200:	ac432000 	sw	v1,8192(v0)
  
  // enable multi vector interrupts
  INTCONbits.MVEC = 0x1;
9d008204:	3c02bf88 	lui	v0,0xbf88
9d008208:	8c461000 	lw	a2,4096(v0)
9d00820c:	24030001 	li	v1,1
9d008210:	7c666304 	ins	a2,v1,0xc,0x1
9d008214:	ac461000 	sw	a2,4096(v0)

  // disable JTAG to get B10, B11, B12 and B13 back
  DDPCONbits.JTAGEN = 0;
9d008218:	3c02bf81 	lui	v0,0xbf81
9d00821c:	9046f200 	lbu	a2,-3584(v0)
9d008220:	7c0618c4 	ins	a2,zero,0x3,0x1
9d008224:	a046f200 	sb	a2,-3584(v0)

  TRISFCLR = 0x0003;  // Make F0 and F1 outputs (LED1 and LED2)
9d008228:	3c02bf88 	lui	v0,0xbf88
9d00822c:	ac446144 	sw	a0,24900(v0)
  NU32_LED1 = 1;      // LED1 is off
9d008230:	3c02bf88 	lui	v0,0xbf88
9d008234:	90446160 	lbu	a0,24928(v0)
9d008238:	7c640004 	ins	a0,v1,0x0,0x1
9d00823c:	a0446160 	sb	a0,24928(v0)
  NU32_LED2 = 0;      // LED2 is on
9d008240:	90446160 	lbu	a0,24928(v0)
9d008244:	7c040844 	ins	a0,zero,0x1,0x1
9d008248:	a0446160 	sb	a0,24928(v0)

  // turn on UART3 without an interrupt
  U3MODEbits.BRGH = 0; // set baud to NU32_DESIRED_BAUD
9d00824c:	3c02bf80 	lui	v0,0xbf80
9d008250:	94446400 	lhu	a0,25600(v0)
9d008254:	7c0418c4 	ins	a0,zero,0x3,0x1
9d008258:	a4446400 	sh	a0,25600(v0)
  U3BRG = ((NU32_SYS_FREQ / NU32_DESIRED_BAUD) / 16) - 1;
9d00825c:	24060014 	li	a2,20
9d008260:	3c04bf80 	lui	a0,0xbf80
9d008264:	ac866440 	sw	a2,25664(a0)

  // 8 bit, no parity bit, and 1 stop bit (8N1 setup)
  U3MODEbits.PDSEL = 0;
9d008268:	94446400 	lhu	a0,25600(v0)
9d00826c:	7c041044 	ins	a0,zero,0x1,0x2
9d008270:	a4446400 	sh	a0,25600(v0)
  U3MODEbits.STSEL = 0;
9d008274:	94446400 	lhu	a0,25600(v0)
9d008278:	7c040004 	ins	a0,zero,0x0,0x1
9d00827c:	a4446400 	sh	a0,25600(v0)

  // configure TX & RX pins as output & input pins
  U3STAbits.UTXEN = 1;
9d008280:	3c04bf80 	lui	a0,0xbf80
9d008284:	8c866410 	lw	a2,25616(a0)
9d008288:	7c665284 	ins	a2,v1,0xa,0x1
9d00828c:	ac866410 	sw	a2,25616(a0)
  U3STAbits.URXEN = 1;
9d008290:	8c866410 	lw	a2,25616(a0)
9d008294:	7c666304 	ins	a2,v1,0xc,0x1
9d008298:	ac866410 	sw	a2,25616(a0)
  // configure hardware flow control using RTS and CTS
  U3MODEbits.UEN = 2;
9d00829c:	94446400 	lhu	a0,25600(v0)
9d0082a0:	7ca44a04 	ins	a0,a1,0x8,0x2
9d0082a4:	a4446400 	sh	a0,25600(v0)

  // enable the uart
  U3MODEbits.ON = 1;
9d0082a8:	94446400 	lhu	a0,25600(v0)
9d0082ac:	7c647bc4 	ins	a0,v1,0xf,0x1
9d0082b0:	a4446400 	sh	a0,25600(v0)

  __builtin_enable_interrupts();
9d0082b4:	41626020 	ei	v0
}
9d0082b8:	8fbf0004 	lw	ra,4(sp)
9d0082bc:	03e00008 	jr	ra
9d0082c0:	27bd0008 	addiu	sp,sp,8

9d0082c4 <NU32_ReadUART3>:
// Read from UART3
// block other functions until you get a '\r' or '\n'
// send the pointer to your char array and the number of elements in the array
void NU32_ReadUART3(char * message, int maxLength) {
  char data = 0;
  int complete = 0, num_bytes = 0;
9d0082c4:	00003021 	move	a2,zero
  // loop until you get a '\r' or '\n'
  while (!complete) {
    if (U3STAbits.URXDA) { // if data is available
9d0082c8:	3c03bf80 	lui	v1,0xbf80
      data = U3RXREG;      // read the data
9d0082cc:	3c08bf80 	lui	t0,0xbf80
      if ((data == '\n') || (data == '\r')) {
9d0082d0:	2407000a 	li	a3,10
9d0082d4:	0b4020c5 	j	9d008314 <NU32_ReadUART3+0x50>
9d0082d8:	2409000d 	li	t1,13
void NU32_ReadUART3(char * message, int maxLength) {
  char data = 0;
  int complete = 0, num_bytes = 0;
  // loop until you get a '\r' or '\n'
  while (!complete) {
    if (U3STAbits.URXDA) { // if data is available
9d0082dc:	8c626410 	lw	v0,25616(v1)
9d0082e0:	30420001 	andi	v0,v0,0x1
9d0082e4:	1040fffd 	beqz	v0,9d0082dc <NU32_ReadUART3+0x18>
9d0082e8:	00000000 	nop
      data = U3RXREG;      // read the data
9d0082ec:	8d026430 	lw	v0,25648(t0)
9d0082f0:	7c021420 	seb	v0,v0
      if ((data == '\n') || (data == '\r')) {
9d0082f4:	5047000e 	beql	v0,a3,9d008330 <NU32_ReadUART3+0x6c>
9d0082f8:	00862021 	addu	a0,a0,a2
9d0082fc:	1049000b 	beq	v0,t1,9d00832c <NU32_ReadUART3+0x68>
9d008300:	00865021 	addu	t2,a0,a2
        complete = 1;
      } else {
        message[num_bytes] = data;
9d008304:	a1420000 	sb	v0,0(t2)
        ++num_bytes;
9d008308:	24c60001 	addiu	a2,a2,1
        // roll over if the array is too small
        if (num_bytes >= maxLength) {
9d00830c:	00c5102a 	slt	v0,a2,a1
          num_bytes = 0;
9d008310:	0002300a 	movz	a2,zero,v0
void NU32_ReadUART3(char * message, int maxLength) {
  char data = 0;
  int complete = 0, num_bytes = 0;
  // loop until you get a '\r' or '\n'
  while (!complete) {
    if (U3STAbits.URXDA) { // if data is available
9d008314:	8c626410 	lw	v0,25616(v1)
9d008318:	30420001 	andi	v0,v0,0x1
9d00831c:	1040ffef 	beqz	v0,9d0082dc <NU32_ReadUART3+0x18>
9d008320:	00000000 	nop
9d008324:	0b4020bb 	j	9d0082ec <NU32_ReadUART3+0x28>
9d008328:	00000000 	nop
        }
      }
    }
  }
  // end the string
  message[num_bytes] = '\0';
9d00832c:	00862021 	addu	a0,a0,a2
9d008330:	03e00008 	jr	ra
9d008334:	a0800000 	sb	zero,0(a0)

9d008338 <NU32_WriteUART3>:
}

// Write a character array using UART3
void NU32_WriteUART3(const char * string) {
  while (*string != '\0') {
9d008338:	80850000 	lb	a1,0(a0)
9d00833c:	10a0000b 	beqz	a1,9d00836c <NU32_WriteUART3+0x34>
9d008340:	3c03bf80 	lui	v1,0xbf80
    while (U3STAbits.UTXBF) {
      ; // wait until tx buffer isn't full
    }
    U3TXREG = *string;
9d008344:	3c06bf80 	lui	a2,0xbf80
}

// Write a character array using UART3
void NU32_WriteUART3(const char * string) {
  while (*string != '\0') {
    while (U3STAbits.UTXBF) {
9d008348:	8c626410 	lw	v0,25616(v1)
9d00834c:	30420200 	andi	v0,v0,0x200
9d008350:	1440fffd 	bnez	v0,9d008348 <NU32_WriteUART3+0x10>
9d008354:	00000000 	nop
      ; // wait until tx buffer isn't full
    }
    U3TXREG = *string;
9d008358:	acc56420 	sw	a1,25632(a2)
    ++string;
9d00835c:	24840001 	addiu	a0,a0,1
  message[num_bytes] = '\0';
}

// Write a character array using UART3
void NU32_WriteUART3(const char * string) {
  while (*string != '\0') {
9d008360:	80850000 	lb	a1,0(a0)
9d008364:	14a0fff8 	bnez	a1,9d008348 <NU32_WriteUART3+0x10>
9d008368:	00000000 	nop
9d00836c:	03e00008 	jr	ra
9d008370:	00000000 	nop

Disassembly of section .text.fp32mul:

9d008374 <__mulsf3>:
9d008374:	00043dc2 30e700ff 00054dc2 312900ff     .=.....0.M....)1
9d008384:	3c0a8000 00043200 00ca3025 00054200     ...<.2..%0...B..
9d008394:	010a4025 00856026 014c5024 24ecffff     %@..&`..$PL....$
9d0083a4:	2d8100fe 10200021 00000000              ...-!. .....

9d0083b0 <Clab1>:
9d0083b0:	252cffff 	addiu	t4,t1,-1
9d0083b4:	2d8100fe 	sltiu	at,t4,254
9d0083b8:	10200036 	beqz	at,9d008494 <CspecB>
9d0083bc:	00000000 	nop

9d0083c0 <Clab2>:
9d0083c0:	00c80019 	multu	a2,t0
9d0083c4:	00005812 	mflo	t3
9d0083c8:	11600002 	beqz	t3,9d0083d4 <i17>
9d0083cc:	00003010 	mfhi	a2
9d0083d0:	34c60001 	ori	a2,a2,0x1

9d0083d4 <i17>:
9d0083d4:	04c00003 	bltz	a2,9d0083e4 <i18>
9d0083d8:	00000000 	nop
9d0083dc:	00063040 	sll	a2,a2,0x1
9d0083e0:	24e7ffff 	addiu	a3,a3,-1

9d0083e4 <i18>:
9d0083e4:	252cff82 	addiu	t4,t1,-126
9d0083e8:	00ec3821 	addu	a3,a3,t4
9d0083ec:	24ecffff 	addiu	t4,a3,-1
9d0083f0:	2d8100fe 	sltiu	at,t4,254
9d0083f4:	1020003a 	beqz	at,9d0084e0 <Coveund>
9d0083f8:	00000000 	nop

9d0083fc <Clab8>:
9d0083fc:	24c60080 	addiu	a2,a2,128
9d008400:	2ccc0080 	sltiu	t4,a2,128
9d008404:	00ec3821 	addu	a3,a3,t4
9d008408:	00066202 	srl	t4,a2,0x8
9d00840c:	318c0001 	andi	t4,t4,0x1
9d008410:	00cc3023 	subu	a2,a2,t4
9d008414:	00063040 	sll	a2,a2,0x1
9d008418:	00063242 	srl	a2,a2,0x9
9d00841c:	000765c0 	sll	t4,a3,0x17
9d008420:	00cc3025 	or	a2,a2,t4
9d008424:	00ca1025 	or	v0,a2,t2

9d008428 <C999>:
9d008428:	03e00008 	jr	ra
9d00842c:	00000000 	nop

9d008430 <CspecA>:
9d008430:	14e0000d 	bnez	a3,9d008468 <i19>
9d008434:	00000000 	nop
9d008438:	00c63021 	addu	a2,a2,a2
9d00843c:	10c00005 	beqz	a2,9d008454 <i20>
9d008440:	00000000 	nop
9d008444:	70cb5820 	clz	t3,a2
9d008448:	00eb3823 	subu	a3,a3,t3
9d00844c:	1000ffd8 	b	9d0083b0 <Clab1>
9d008450:	01663004 	sllv	a2,a2,t3

9d008454 <i20>:
9d008454:	240100ff 	li	at,255
9d008458:	1121001f 	beq	t1,at,9d0084d8 <Cnan>
9d00845c:	00000000 	nop
9d008460:	10000015 	b	9d0084b8 <Czer>
9d008464:	00000000 	nop

9d008468 <i19>:
9d008468:	00c66021 	addu	t4,a2,a2
9d00846c:	1580001a 	bnez	t4,9d0084d8 <Cnan>
9d008470:	00000000 	nop
9d008474:	15200004 	bnez	t1,9d008488 <i21>
9d008478:	00000000 	nop
9d00847c:	01086021 	addu	t4,t0,t0
9d008480:	11800015 	beqz	t4,9d0084d8 <Cnan>
9d008484:	00000000 	nop

9d008488 <i21>:
9d008488:	240100ff 	li	at,255
9d00848c:	1521000f 	bne	t1,at,9d0084cc <Cinf>
9d008490:	00000000 	nop

9d008494 <CspecB>:
9d008494:	1520000a 	bnez	t1,9d0084c0 <i22>
9d008498:	00000000 	nop
9d00849c:	01084021 	addu	t0,t0,t0
9d0084a0:	11000005 	beqz	t0,9d0084b8 <Czer>
9d0084a4:	00000000 	nop
9d0084a8:	710b5820 	clz	t3,t0
9d0084ac:	012b4823 	subu	t1,t1,t3
9d0084b0:	1000ffc3 	b	9d0083c0 <Clab2>
9d0084b4:	01684004 	sllv	t0,t0,t3

9d0084b8 <Czer>:
9d0084b8:	1000ffdb 	b	9d008428 <C999>
9d0084bc:	000a1025 	or	v0,zero,t2

9d0084c0 <i22>:
9d0084c0:	01086021 	addu	t4,t0,t0
9d0084c4:	15800004 	bnez	t4,9d0084d8 <Cnan>
9d0084c8:	00000000 	nop

9d0084cc <Cinf>:
9d0084cc:	3c017f80 	lui	at,0x7f80
9d0084d0:	1000ffd5 	b	9d008428 <C999>
9d0084d4:	01411025 	or	v0,t2,at

9d0084d8 <Cnan>:
9d0084d8:	1000ffd3 	b	9d008428 <C999>
9d0084dc:	3c02ffc0 	lui	v0,0xffc0

9d0084e0 <Coveund>:
9d0084e0:	1ce0fffa 	bgtz	a3,9d0084cc <Cinf>
9d0084e4:	00000000 	nop
9d0084e8:	240b0001 	li	t3,1
9d0084ec:	01675823 	subu	t3,t3,a3
9d0084f0:	2d610020 	sltiu	at,t3,32
9d0084f4:	1020fff0 	beqz	at,9d0084b8 <Czer>
9d0084f8:	00000000 	nop
9d0084fc:	240c0020 	li	t4,32
9d008500:	018b6023 	subu	t4,t4,t3
9d008504:	01863804 	sllv	a3,a2,t4
9d008508:	10e00002 	beqz	a3,9d008514 <i25>
9d00850c:	01663006 	srlv	a2,a2,t3
9d008510:	34c60002 	ori	a2,a2,0x2

9d008514 <i25>:
9d008514:	24070000 	li	a3,0
9d008518:	24cc0080 	addiu	t4,a2,128
9d00851c:	0581ffb7 	bgez	t4,9d0083fc <Clab8>
9d008520:	00000000 	nop
9d008524:	1000ffb5 	b	9d0083fc <Clab8>
9d008528:	24070001 	li	a3,1
9d00852c:	00000000 	nop

Disassembly of section .text.__ldexp:

9d008530 <__ldexp>:
9d008530:	27bdffe0 	addiu	sp,sp,-32
9d008534:	afbf001c 	sw	ra,28(sp)
9d008538:	afb20018 	sw	s2,24(sp)
9d00853c:	afb10014 	sw	s1,20(sp)
9d008540:	afb00010 	sw	s0,16(sp)
9d008544:	7ca75500 	ext	a3,a1,0x14,0xb
9d008548:	24e2ffff 	addiu	v0,a3,-1
9d00854c:	7ca89800 	ext	t0,a1,0x0,0x14
9d008550:	2c4907fe 	sltiu	t1,v0,2046
9d008554:	00c08821 	move	s1,a2
9d008558:	000587c2 	srl	s0,a1,0x1f
9d00855c:	00801021 	move	v0,a0
9d008560:	11200041 	beqz	t1,9d008668 <__ldexp+0x138>
9d008564:	01001821 	move	v1,t0
9d008568:	24e7fc01 	addiu	a3,a3,-1023
9d00856c:	3c040010 	lui	a0,0x10
9d008570:	01041825 	or	v1,t0,a0
9d008574:	00f13821 	addu	a3,a3,s1
9d008578:	00022f42 	srl	a1,v0,0x1d
9d00857c:	000318c0 	sll	v1,v1,0x3
9d008580:	24e403ff 	addiu	a0,a3,1023
9d008584:	00a31825 	or	v1,a1,v1
9d008588:	18800025 	blez	a0,9d008620 <__ldexp+0xf0>
9d00858c:	000210c0 	sll	v0,v0,0x3
9d008590:	30450007 	andi	a1,v0,0x7
9d008594:	14a00015 	bnez	a1,9d0085ec <__ldexp+0xbc>
9d008598:	7c4500c0 	ext	a1,v0,0x3,0x1
9d00859c:	00033740 	sll	a2,v1,0x1d
9d0085a0:	000210c2 	srl	v0,v0,0x3
9d0085a4:	288507ff 	slti	a1,a0,2047
9d0085a8:	00c21025 	or	v0,a2,v0
9d0085ac:	10a00036 	beqz	a1,9d008688 <__ldexp+0x158>
9d0085b0:	000318c2 	srl	v1,v1,0x3
9d0085b4:	7c650500 	ext	a1,v1,0x14,0x1
9d0085b8:	50a00002 	beqzl	a1,9d0085c4 <__ldexp+0x94>
9d0085bc:	00002021 	move	a0,zero
9d0085c0:	7c639800 	ext	v1,v1,0x0,0x14
9d0085c4:	001082c0 	sll	s0,s0,0xb
9d0085c8:	00902025 	or	a0,a0,s0
9d0085cc:	00042500 	sll	a0,a0,0x14
9d0085d0:	00831825 	or	v1,a0,v1
9d0085d4:	8fbf001c 	lw	ra,28(sp)
9d0085d8:	8fb20018 	lw	s2,24(sp)
9d0085dc:	8fb10014 	lw	s1,20(sp)
9d0085e0:	8fb00010 	lw	s0,16(sp)
9d0085e4:	03e00008 	jr	ra
9d0085e8:	27bd0020 	addiu	sp,sp,32
9d0085ec:	24a50003 	addiu	a1,a1,3
9d0085f0:	00452821 	addu	a1,v0,a1
9d0085f4:	00a2102b 	sltu	v0,a1,v0
9d0085f8:	00431821 	addu	v1,v0,v1
9d0085fc:	7c660600 	ext	a2,v1,0x18,0x1
9d008600:	10c0ffe6 	beqz	a2,9d00859c <__ldexp+0x6c>
9d008604:	00a01021 	move	v0,a1
9d008608:	00032fc0 	sll	a1,v1,0x1f
9d00860c:	00021042 	srl	v0,v0,0x1
9d008610:	00a21025 	or	v0,a1,v0
9d008614:	00031842 	srl	v1,v1,0x1
9d008618:	0b402167 	j	9d00859c <__ldexp+0x6c>
9d00861c:	24840001 	addiu	a0,a0,1
9d008620:	2406fc02 	li	a2,-1022
9d008624:	00c73023 	subu	a2,a2,a3
9d008628:	28c40038 	slti	a0,a2,56
9d00862c:	5080001b 	beqzl	a0,9d00869c <__ldexp+0x16c>
9d008630:	00001021 	move	v0,zero
9d008634:	00062023 	negu	a0,a2
9d008638:	30850020 	andi	a1,a0,0x20
9d00863c:	14a00003 	bnez	a1,9d00864c <__ldexp+0x11c>
9d008640:	00828804 	sllv	s1,v0,a0
9d008644:	00832004 	sllv	a0,v1,a0
9d008648:	00828825 	or	s1,a0,v0
9d00864c:	00402021 	move	a0,v0
9d008650:	0f40282d 	jal	9d00a0b4 <__lshrdi3>
9d008654:	00602821 	move	a1,v1
9d008658:	0011882b 	sltu	s1,zero,s1
9d00865c:	02221025 	or	v0,s1,v0
9d008660:	0b402164 	j	9d008590 <__ldexp+0x60>
9d008664:	24040001 	li	a0,1
9d008668:	54e00005 	bnezl	a3,9d008680 <__ldexp+0x150>
9d00866c:	00801021 	move	v0,a0
9d008670:	01043025 	or	a2,t0,a0
9d008674:	14c0000c 	bnez	a2,9d0086a8 <__ldexp+0x178>
9d008678:	00000000 	nop
9d00867c:	00801021 	move	v0,a0
9d008680:	0b402175 	j	9d0085d4 <__ldexp+0xa4>
9d008684:	00a01821 	move	v1,a1
9d008688:	00101ac0 	sll	v1,s0,0xb
9d00868c:	346307ff 	ori	v1,v1,0x7ff
9d008690:	00031d00 	sll	v1,v1,0x14
9d008694:	0b402175 	j	9d0085d4 <__ldexp+0xa4>
9d008698:	00001021 	move	v0,zero
9d00869c:	00001821 	move	v1,zero
9d0086a0:	0b402171 	j	9d0085c4 <__ldexp+0x94>
9d0086a4:	00002021 	move	a0,zero
9d0086a8:	15000003 	bnez	t0,9d0086b8 <__ldexp+0x188>
9d0086ac:	71129020 	clz	s2,t0
9d0086b0:	70929020 	clz	s2,a0
9d0086b4:	26520020 	addiu	s2,s2,32
9d0086b8:	2646fff5 	addiu	a2,s2,-11
9d0086bc:	10c0ffad 	beqz	a2,9d008574 <__ldexp+0x44>
9d0086c0:	2407fc02 	li	a3,-1022
9d0086c4:	0f40283d 	jal	9d00a0f4 <__ashldi3>
9d0086c8:	01002821 	move	a1,t0
9d0086cc:	2407fc0d 	li	a3,-1011
9d0086d0:	0b40215d 	j	9d008574 <__ldexp+0x44>
9d0086d4:	00f23823 	subu	a3,a3,s2

Disassembly of section .text._sbrk_init:

9d0086d8 <_sbrk_init>:
9d0086d8:	27bdffd8 	addiu	sp,sp,-40
9d0086dc:	afbf0024 	sw	ra,36(sp)
9d0086e0:	afb40020 	sw	s4,32(sp)
9d0086e4:	afb3001c 	sw	s3,28(sp)
9d0086e8:	afb20018 	sw	s2,24(sp)
9d0086ec:	afb10014 	sw	s1,20(sp)
9d0086f0:	afb00010 	sw	s0,16(sp)
9d0086f4:	3c10a000 	lui	s0,0xa000
9d0086f8:	8e021bbc 	lw	v0,7100(s0)
9d0086fc:	10400009 	beqz	v0,9d008724 <_sbrk_init+0x4c>
9d008700:	3c12a000 	lui	s2,0xa000
9d008704:	8fbf0024 	lw	ra,36(sp)
9d008708:	8fb40020 	lw	s4,32(sp)
9d00870c:	8fb3001c 	lw	s3,28(sp)
9d008710:	8fb20018 	lw	s2,24(sp)
9d008714:	8fb10014 	lw	s1,20(sp)
9d008718:	8fb00010 	lw	s0,16(sp)
9d00871c:	03e00008 	jr	ra
9d008720:	27bd0028 	addiu	sp,sp,40
9d008724:	8e431bc4 	lw	v1,7108(s2)
9d008728:	5060003d 	beqzl	v1,9d008820 <_sbrk_init+0x148>
9d00872c:	3c03a000 	lui	v1,0xa000
9d008730:	3c13a000 	lui	s3,0xa000
9d008734:	8e621bc0 	lw	v0,7104(s3)
9d008738:	5040003b 	beqzl	v0,9d008828 <_sbrk_init+0x150>
9d00873c:	3c040000 	lui	a0,0x0
9d008740:	00038f82 	srl	s1,v1,0x1e
9d008744:	0002a782 	srl	s4,v0,0x1e
9d008748:	7c65e000 	ext	a1,v1,0x0,0x1d
9d00874c:	3a310002 	xori	s1,s1,0x2
9d008750:	7c44e000 	ext	a0,v0,0x0,0x1d
9d008754:	3a940002 	xori	s4,s4,0x2
9d008758:	00b1180a 	movz	v1,a1,s1
9d00875c:	00608821 	move	s1,v1
9d008760:	0094100a 	movz	v0,a0,s4
9d008764:	0f402897 	jal	9d00a25c <_stub_sbd_memlayout>
9d008768:	0040a021 	move	s4,v0
9d00876c:	8c430000 	lw	v1,0(v0)
9d008770:	8c440004 	lw	a0,4(v0)
9d008774:	0223102b 	sltu	v0,s1,v1
9d008778:	10400024 	beqz	v0,9d00880c <_sbrk_init+0x134>
9d00877c:	00642021 	addu	a0,v1,a0
9d008780:	3c02a000 	lui	v0,0xa000
9d008784:	24420024 	addiu	v0,v0,36
9d008788:	7c42e000 	ext	v0,v0,0x0,0x1d
9d00878c:	0062102b 	sltu	v0,v1,v0
9d008790:	1440ffdd 	bnez	v0,9d008708 <_sbrk_init+0x30>
9d008794:	8fbf0024 	lw	ra,36(sp)
9d008798:	0283102b 	sltu	v0,s4,v1
9d00879c:	14400005 	bnez	v0,9d0087b4 <_sbrk_init+0xdc>
9d0087a0:	0064102b 	sltu	v0,v1,a0
9d0087a4:	0284102b 	sltu	v0,s4,a0
9d0087a8:	54400004 	bnezl	v0,9d0087bc <_sbrk_init+0xe4>
9d0087ac:	02802021 	move	a0,s4
9d0087b0:	0064102b 	sltu	v0,v1,a0
9d0087b4:	1040ffd4 	beqz	v0,9d008708 <_sbrk_init+0x30>
9d0087b8:	8fbf0024 	lw	ra,36(sp)
9d0087bc:	3c02a000 	lui	v0,0xa000
9d0087c0:	24420024 	addiu	v0,v0,36
9d0087c4:	00021742 	srl	v0,v0,0x1d
9d0087c8:	24050005 	li	a1,5
9d0087cc:	1445001b 	bne	v0,a1,9d00883c <_sbrk_init+0x164>
9d0087d0:	24050004 	li	a1,4
9d0087d4:	3c02a000 	lui	v0,0xa000
9d0087d8:	00621825 	or	v1,v1,v0
9d0087dc:	00822025 	or	a0,a0,v0
9d0087e0:	ae431bc4 	sw	v1,7108(s2)
9d0087e4:	ae641bc0 	sw	a0,7104(s3)
9d0087e8:	ae031bbc 	sw	v1,7100(s0)
9d0087ec:	8fbf0024 	lw	ra,36(sp)
9d0087f0:	8fb40020 	lw	s4,32(sp)
9d0087f4:	8fb3001c 	lw	s3,28(sp)
9d0087f8:	8fb20018 	lw	s2,24(sp)
9d0087fc:	8fb10014 	lw	s1,20(sp)
9d008800:	8fb00010 	lw	s0,16(sp)
9d008804:	03e00008 	jr	ra
9d008808:	27bd0028 	addiu	sp,sp,40
9d00880c:	0224102b 	sltu	v0,s1,a0
9d008810:	1040ffdc 	beqz	v0,9d008784 <_sbrk_init+0xac>
9d008814:	3c02a000 	lui	v0,0xa000
9d008818:	0b4021e6 	j	9d008798 <_sbrk_init+0xc0>
9d00881c:	02201821 	move	v1,s1
9d008820:	0b4021cc 	j	9d008730 <_sbrk_init+0x58>
9d008824:	24631bf8 	addiu	v1,v1,7160
9d008828:	24840000 	addiu	a0,a0,0
9d00882c:	3c02a000 	lui	v0,0xa000
9d008830:	24421bf8 	addiu	v0,v0,7160
9d008834:	0b4021d0 	j	9d008740 <_sbrk_init+0x68>
9d008838:	00441021 	addu	v0,v0,a0
9d00883c:	14450007 	bne	v0,a1,9d00885c <_sbrk_init+0x184>
9d008840:	3c028000 	lui	v0,0x8000
9d008844:	00621825 	or	v1,v1,v0
9d008848:	00821025 	or	v0,a0,v0
9d00884c:	ae431bc4 	sw	v1,7108(s2)
9d008850:	ae621bc0 	sw	v0,7104(s3)
9d008854:	0b4021fb 	j	9d0087ec <_sbrk_init+0x114>
9d008858:	ae031bbc 	sw	v1,7100(s0)
9d00885c:	ae441bc4 	sw	a0,7108(s2)
9d008860:	00801821 	move	v1,a0
9d008864:	0b4021fb 	j	9d0087ec <_sbrk_init+0x114>
9d008868:	ae031bbc 	sw	v1,7100(s0)

Disassembly of section .text._outcnvrt:

9d00886c <_outcnvrt>:
9d00886c:	27bdffc8 	addiu	sp,sp,-56
9d008870:	afbf0034 	sw	ra,52(sp)
9d008874:	afb70030 	sw	s7,48(sp)
9d008878:	afb6002c 	sw	s6,44(sp)
9d00887c:	afb50028 	sw	s5,40(sp)
9d008880:	afb40024 	sw	s4,36(sp)
9d008884:	afb30020 	sw	s3,32(sp)
9d008888:	afb2001c 	sw	s2,28(sp)
9d00888c:	afb10018 	sw	s1,24(sp)
9d008890:	afb00014 	sw	s0,20(sp)
9d008894:	97b70048 	lhu	s7,72(sp)
9d008898:	00808821 	move	s1,a0
9d00889c:	00a08021 	move	s0,a1
9d0088a0:	32f70008 	andi	s7,s7,0x8
9d0088a4:	32f7ffff 	andi	s7,s7,0xffff
9d0088a8:	00c0a021 	move	s4,a2
9d0088ac:	00e0a821 	move	s5,a3
9d0088b0:	16e00003 	bnez	s7,9d0088c0 <_outcnvrt+0x54>
9d0088b4:	00c7b02a 	slt	s6,a2,a3
9d0088b8:	16c0002a 	bnez	s6,9d008964 <_outcnvrt+0xf8>
9d0088bc:	00000000 	nop
9d0088c0:	02149021 	addu	s2,s0,s4
9d0088c4:	0b402238 	j	9d0088e0 <_outcnvrt+0x74>
9d0088c8:	2413ffff 	li	s3,-1
9d0088cc:	26100001 	addiu	s0,s0,1
9d0088d0:	0f40253c 	jal	9d0094f0 <fputc>
9d0088d4:	8204ffff 	lb	a0,-1(s0)
9d0088d8:	10530007 	beq	v0,s3,9d0088f8 <_outcnvrt+0x8c>
9d0088dc:	02a01021 	move	v0,s5
9d0088e0:	1612fffa 	bne	s0,s2,9d0088cc <_outcnvrt+0x60>
9d0088e4:	02202821 	move	a1,s1
9d0088e8:	12e00003 	beqz	s7,9d0088f8 <_outcnvrt+0x8c>
9d0088ec:	02a01021 	move	v0,s5
9d0088f0:	56c0000d 	bnezl	s6,9d008928 <_outcnvrt+0xbc>
9d0088f4:	02202021 	move	a0,s1
9d0088f8:	0296100a 	movz	v0,s4,s6
9d0088fc:	8fbf0034 	lw	ra,52(sp)
9d008900:	8fb70030 	lw	s7,48(sp)
9d008904:	8fb6002c 	lw	s6,44(sp)
9d008908:	8fb50028 	lw	s5,40(sp)
9d00890c:	8fb40024 	lw	s4,36(sp)
9d008910:	8fb30020 	lw	s3,32(sp)
9d008914:	8fb2001c 	lw	s2,28(sp)
9d008918:	8fb10018 	lw	s1,24(sp)
9d00891c:	8fb00014 	lw	s0,20(sp)
9d008920:	03e00008 	jr	ra
9d008924:	27bd0038 	addiu	sp,sp,56
9d008928:	0f402511 	jal	9d009444 <.LFE3>
9d00892c:	02b42823 	subu	a1,s5,s4
9d008930:	02a01021 	move	v0,s5
9d008934:	0296100a 	movz	v0,s4,s6
9d008938:	8fbf0034 	lw	ra,52(sp)
9d00893c:	8fb70030 	lw	s7,48(sp)
9d008940:	8fb6002c 	lw	s6,44(sp)
9d008944:	8fb50028 	lw	s5,40(sp)
9d008948:	8fb40024 	lw	s4,36(sp)
9d00894c:	8fb30020 	lw	s3,32(sp)
9d008950:	8fb2001c 	lw	s2,28(sp)
9d008954:	8fb10018 	lw	s1,24(sp)
9d008958:	8fb00014 	lw	s0,20(sp)
9d00895c:	03e00008 	jr	ra
9d008960:	27bd0038 	addiu	sp,sp,56
9d008964:	0f402511 	jal	9d009444 <.LFE3>
9d008968:	00e62823 	subu	a1,a3,a2
9d00896c:	2403ffff 	li	v1,-1
9d008970:	1443ffd3 	bne	v0,v1,9d0088c0 <_outcnvrt+0x54>
9d008974:	02a01021 	move	v0,s5
9d008978:	0296100a 	movz	v0,s4,s6
9d00897c:	8fbf0034 	lw	ra,52(sp)
9d008980:	8fb70030 	lw	s7,48(sp)
9d008984:	8fb6002c 	lw	s6,44(sp)
9d008988:	8fb50028 	lw	s5,40(sp)
9d00898c:	8fb40024 	lw	s4,36(sp)
9d008990:	8fb30020 	lw	s3,32(sp)
9d008994:	8fb2001c 	lw	s2,28(sp)
9d008998:	8fb10018 	lw	s1,24(sp)
9d00899c:	8fb00014 	lw	s0,20(sp)
9d0089a0:	03e00008 	jr	ra
9d0089a4:	27bd0038 	addiu	sp,sp,56

Disassembly of section .text.ungetc:

9d0089a8 <ungetc>:
9d0089a8:	27bdffe0 	addiu	sp,sp,-32
9d0089ac:	afbf001c 	sw	ra,28(sp)
9d0089b0:	afb20018 	sw	s2,24(sp)
9d0089b4:	afb10014 	sw	s1,20(sp)
9d0089b8:	afb00010 	sw	s0,16(sp)
9d0089bc:	2412ffff 	li	s2,-1
9d0089c0:	10920028 	beq	a0,s2,9d008a64 <ungetc+0xbc>
9d0089c4:	00808821 	move	s1,a0
9d0089c8:	00a08021 	move	s0,a1
9d0089cc:	8ca20018 	lw	v0,24(a1)
9d0089d0:	00a02021 	move	a0,a1
9d0089d4:	8c420010 	lw	v0,16(v0)
9d0089d8:	0040f809 	jalr	v0
9d0089dc:	24050002 	li	a1,2
9d0089e0:	10400021 	beqz	v0,9d008a68 <ungetc+0xc0>
9d0089e4:	2402ffff 	li	v0,-1
9d0089e8:	8e020000 	lw	v0,0(s0)
9d0089ec:	10520037 	beq	v0,s2,9d008acc <ungetc+0x124>
9d0089f0:	00000000 	nop
9d0089f4:	8e02000c 	lw	v0,12(s0)
9d0089f8:	50400017 	beqzl	v0,9d008a58 <ungetc+0xb0>
9d0089fc:	8e030004 	lw	v1,4(s0)
9d008a00:	8e020004 	lw	v0,4(s0)
9d008a04:	8e030008 	lw	v1,8(s0)
9d008a08:	0062182b 	sltu	v1,v1,v0
9d008a0c:	1060001c 	beqz	v1,9d008a80 <ungetc+0xd8>
9d008a10:	8e030000 	lw	v1,0(s0)
9d008a14:	2442ffff 	addiu	v0,v0,-1
9d008a18:	ae020004 	sw	v0,4(s0)
9d008a1c:	24630001 	addiu	v1,v1,1
9d008a20:	ae030000 	sw	v1,0(s0)
9d008a24:	90430000 	lbu	v1,0(v0)
9d008a28:	54710001 	bnel	v1,s1,9d008a30 <ungetc+0x88>
9d008a2c:	a0510000 	sb	s1,0(v0)
9d008a30:	96030010 	lhu	v1,16(s0)
9d008a34:	02201021 	move	v0,s1
9d008a38:	3063ffdf 	andi	v1,v1,0xffdf
9d008a3c:	a6030010 	sh	v1,16(s0)
9d008a40:	8fbf001c 	lw	ra,28(sp)
9d008a44:	8fb20018 	lw	s2,24(sp)
9d008a48:	8fb10014 	lw	s1,20(sp)
9d008a4c:	8fb00010 	lw	s0,16(sp)
9d008a50:	03e00008 	jr	ra
9d008a54:	27bd0020 	addiu	sp,sp,32
9d008a58:	2402ffff 	li	v0,-1
9d008a5c:	50620011 	beql	v1,v0,9d008aa4 <ungetc+0xfc>
9d008a60:	96030010 	lhu	v1,16(s0)
9d008a64:	2402ffff 	li	v0,-1
9d008a68:	8fbf001c 	lw	ra,28(sp)
9d008a6c:	8fb20018 	lw	s2,24(sp)
9d008a70:	8fb10014 	lw	s1,20(sp)
9d008a74:	8fb00010 	lw	s0,16(sp)
9d008a78:	03e00008 	jr	ra
9d008a7c:	27bd0020 	addiu	sp,sp,32
9d008a80:	5060ffe7 	beqzl	v1,9d008a20 <ungetc+0x78>
9d008a84:	24630001 	addiu	v1,v1,1
9d008a88:	02201021 	move	v0,s1
9d008a8c:	8fbf001c 	lw	ra,28(sp)
9d008a90:	8fb20018 	lw	s2,24(sp)
9d008a94:	8fb10014 	lw	s1,20(sp)
9d008a98:	8fb00010 	lw	s0,16(sp)
9d008a9c:	03e00008 	jr	ra
9d008aa0:	27bd0020 	addiu	sp,sp,32
9d008aa4:	ae110004 	sw	s1,4(s0)
9d008aa8:	02201021 	move	v0,s1
9d008aac:	3063ffdf 	andi	v1,v1,0xffdf
9d008ab0:	a6030010 	sh	v1,16(s0)
9d008ab4:	8fbf001c 	lw	ra,28(sp)
9d008ab8:	8fb20018 	lw	s2,24(sp)
9d008abc:	8fb10014 	lw	s1,20(sp)
9d008ac0:	8fb00010 	lw	s0,16(sp)
9d008ac4:	03e00008 	jr	ra
9d008ac8:	27bd0020 	addiu	sp,sp,32
9d008acc:	0f40260b 	jal	9d00982c <_i_init>
9d008ad0:	02002021 	move	a0,s0
9d008ad4:	0b40227e 	j	9d0089f8 <ungetc+0x50>
9d008ad8:	8e02000c 	lw	v0,12(s0)

Disassembly of section .text.putget.2773:

9d008adc <putget.2773>:
9d008adc:	27bdffe0 	addiu	sp,sp,-32
9d008ae0:	afbf001c 	sw	ra,28(sp)
9d008ae4:	afb10018 	sw	s1,24(sp)
9d008ae8:	afb00014 	sw	s0,20(sp)
9d008aec:	01e08021 	move	s0,t7
9d008af0:	8de50014 	lw	a1,20(t7)
9d008af4:	8de20010 	lw	v0,16(t7)
9d008af8:	10a20019 	beq	a1,v0,9d008b60 <putget.2773+0x84>
9d008afc:	00808821 	move	s1,a0
9d008b00:	8de20008 	lw	v0,8(t7)
9d008b04:	24a30001 	addiu	v1,a1,1
9d008b08:	00452821 	addu	a1,v0,a1
9d008b0c:	ae030014 	sw	v1,20(s0)
9d008b10:	1220000d 	beqz	s1,9d008b48 <putget.2773+0x6c>
9d008b14:	a0b10000 	sb	s1,0(a1)
9d008b18:	8e020004 	lw	v0,4(s0)
9d008b1c:	1040000a 	beqz	v0,9d008b48 <putget.2773+0x6c>
9d008b20:	2411ffff 	li	s1,-1
9d008b24:	0f40273e 	jal	9d009cf8 <gsgetc>
9d008b28:	8e040000 	lw	a0,0(s0)
9d008b2c:	00408821 	move	s1,v0
9d008b30:	2402ffff 	li	v0,-1
9d008b34:	12220005 	beq	s1,v0,9d008b4c <putget.2773+0x70>
9d008b38:	02201021 	move	v0,s1
9d008b3c:	8e020004 	lw	v0,4(s0)
9d008b40:	2442ffff 	addiu	v0,v0,-1
9d008b44:	ae020004 	sw	v0,4(s0)
9d008b48:	02201021 	move	v0,s1
9d008b4c:	8fbf001c 	lw	ra,28(sp)
9d008b50:	8fb10018 	lw	s1,24(sp)
9d008b54:	8fb00014 	lw	s0,20(sp)
9d008b58:	03e00008 	jr	ra
9d008b5c:	27bd0020 	addiu	sp,sp,32
9d008b60:	8de4000c 	lw	a0,12(t7)
9d008b64:	24a50080 	addiu	a1,a1,128
9d008b68:	10800007 	beqz	a0,9d008b88 <putget.2773+0xac>
9d008b6c:	ade50010 	sw	a1,16(t7)
9d008b70:	0f4010a6 	jal	9d004298 <realloc>
9d008b74:	00000000 	nop
9d008b78:	ae02000c 	sw	v0,12(s0)
9d008b7c:	8e050014 	lw	a1,20(s0)
9d008b80:	0b4022c1 	j	9d008b04 <putget.2773+0x28>
9d008b84:	ae020008 	sw	v0,8(s0)
9d008b88:	0f400d2a 	jal	9d0034a8 <malloc>
9d008b8c:	00a02021 	move	a0,a1
9d008b90:	8e030008 	lw	v1,8(s0)
9d008b94:	ae02000c 	sw	v0,12(s0)
9d008b98:	24680080 	addiu	t0,v1,128
9d008b9c:	88670003 	lwl	a3,3(v1)
9d008ba0:	88660007 	lwl	a2,7(v1)
9d008ba4:	8865000b 	lwl	a1,11(v1)
9d008ba8:	8864000f 	lwl	a0,15(v1)
9d008bac:	98670000 	lwr	a3,0(v1)
9d008bb0:	98660004 	lwr	a2,4(v1)
9d008bb4:	98650008 	lwr	a1,8(v1)
9d008bb8:	9864000c 	lwr	a0,12(v1)
9d008bbc:	24630010 	addiu	v1,v1,16
9d008bc0:	ac470000 	sw	a3,0(v0)
9d008bc4:	ac460004 	sw	a2,4(v0)
9d008bc8:	ac450008 	sw	a1,8(v0)
9d008bcc:	ac44000c 	sw	a0,12(v0)
9d008bd0:	1468fff2 	bne	v1,t0,9d008b9c <putget.2773+0xc0>
9d008bd4:	24420010 	addiu	v0,v0,16
9d008bd8:	8e02000c 	lw	v0,12(s0)
9d008bdc:	8e050014 	lw	a1,20(s0)
9d008be0:	0b4022c1 	j	9d008b04 <putget.2773+0x28>
9d008be4:	ae020008 	sw	v0,8(s0)

Disassembly of section .text.malloc_trim:

9d008be8 <malloc_trim>:
9d008be8:	27bdffe0 	addiu	sp,sp,-32
9d008bec:	afbf001c 	sw	ra,28(sp)
9d008bf0:	afb20018 	sw	s2,24(sp)
9d008bf4:	afb10014 	sw	s1,20(sp)
9d008bf8:	afb00010 	sw	s0,16(sp)
9d008bfc:	0f40295b 	jal	9d00a56c <getpagesize>
9d008c00:	00809021 	move	s2,a0
9d008c04:	3c10a000 	lui	s0,0xa000
9d008c08:	2610160c 	addiu	s0,s0,5644
9d008c0c:	8e030008 	lw	v1,8(s0)
9d008c10:	8c710004 	lw	s1,4(v1)
9d008c14:	2403fffc 	li	v1,-4
9d008c18:	02238824 	and	s1,s1,v1
9d008c1c:	02322023 	subu	a0,s1,s2
9d008c20:	2484ffef 	addiu	a0,a0,-17
9d008c24:	00822021 	addu	a0,a0,v0
9d008c28:	0082001b 	divu	zero,a0,v0
9d008c2c:	004001f4 	teq	v0,zero,0x7
9d008c30:	00009012 	mflo	s2
9d008c34:	2652ffff 	addiu	s2,s2,-1
9d008c38:	72429002 	mul	s2,s2,v0
9d008c3c:	0242102a 	slt	v0,s2,v0
9d008c40:	10400008 	beqz	v0,9d008c64 <malloc_trim+0x7c>
9d008c44:	00000000 	nop
9d008c48:	00001021 	move	v0,zero
9d008c4c:	8fbf001c 	lw	ra,28(sp)
9d008c50:	8fb20018 	lw	s2,24(sp)
9d008c54:	8fb10014 	lw	s1,20(sp)
9d008c58:	8fb00010 	lw	s0,16(sp)
9d008c5c:	03e00008 	jr	ra
9d008c60:	27bd0020 	addiu	sp,sp,32
9d008c64:	0f40279d 	jal	9d009e74 <sbrk>
9d008c68:	00002021 	move	a0,zero
9d008c6c:	8e030008 	lw	v1,8(s0)
9d008c70:	00711821 	addu	v1,v1,s1
9d008c74:	1443fff5 	bne	v0,v1,9d008c4c <malloc_trim+0x64>
9d008c78:	00001021 	move	v0,zero
9d008c7c:	0f40279d 	jal	9d009e74 <sbrk>
9d008c80:	00122023 	negu	a0,s2
9d008c84:	2403ffff 	li	v1,-1
9d008c88:	1043000a 	beq	v0,v1,9d008cb4 <malloc_trim+0xcc>
9d008c8c:	3c02a000 	lui	v0,0xa000
9d008c90:	8c441b70 	lw	a0,7024(v0)
9d008c94:	8e030008 	lw	v1,8(s0)
9d008c98:	02328823 	subu	s1,s1,s2
9d008c9c:	36310001 	ori	s1,s1,0x1
9d008ca0:	00929023 	subu	s2,a0,s2
9d008ca4:	ac710004 	sw	s1,4(v1)
9d008ca8:	ac521b70 	sw	s2,7024(v0)
9d008cac:	0b402313 	j	9d008c4c <malloc_trim+0x64>
9d008cb0:	24020001 	li	v0,1
9d008cb4:	0f40279d 	jal	9d009e74 <sbrk>
9d008cb8:	00002021 	move	a0,zero
9d008cbc:	8e030008 	lw	v1,8(s0)
9d008cc0:	00432023 	subu	a0,v0,v1
9d008cc4:	28850010 	slti	a1,a0,16
9d008cc8:	54a0ffe0 	bnezl	a1,9d008c4c <malloc_trim+0x64>
9d008ccc:	00001021 	move	v0,zero
9d008cd0:	3c05a000 	lui	a1,0xa000
9d008cd4:	8ca51604 	lw	a1,5636(a1)
9d008cd8:	34840001 	ori	a0,a0,0x1
9d008cdc:	00451023 	subu	v0,v0,a1
9d008ce0:	3c05a000 	lui	a1,0xa000
9d008ce4:	aca21b70 	sw	v0,7024(a1)
9d008ce8:	0b402312 	j	9d008c48 <malloc_trim+0x60>
9d008cec:	ac640004 	sw	a0,4(v1)

Disassembly of section .rodata:

9d008cf0 <_ctype>:
9d008cf0:	20202000 20202020 28282020 20282828     .         ((((( 
9d008d00:	20202020 20202020 20202020 20202020                     
9d008d10:	10108020 10101010 10101010 10101010      ...............
9d008d20:	04040410 04040404 10040404 10101010     ................
9d008d30:	41411010 41414141 01010101 01010101     ..AAAAAA........
9d008d40:	01010101 01010101 01010101 10101010     ................
9d008d50:	42421010 42424242 02020202 02020202     ..BBBBBB........
9d008d60:	02020202 02020202 02020202 10101010     ................
9d008d70:	00000020 00000000 00000000 00000000      ...............
	...

Disassembly of section .text.__ldexpf:

9d008df4 <__ldexpf>:
9d008df4:	7c863dc0 	ext	a2,a0,0x17,0x8
9d008df8:	24c8ffff 	addiu	t0,a2,-1
9d008dfc:	2d0800fe 	sltiu	t0,t0,254
9d008e00:	00044fc2 	srl	t1,a0,0x1f
9d008e04:	1100002b 	beqz	t0,9d008eb4 <__ldexpf+0xc0>
9d008e08:	7c87b000 	ext	a3,a0,0x0,0x17
9d008e0c:	24c6ff81 	addiu	a2,a2,-127
9d008e10:	3c020080 	lui	v0,0x80
9d008e14:	00e21025 	or	v0,a3,v0
9d008e18:	00c53021 	addu	a2,a2,a1
9d008e1c:	24c3007f 	addiu	v1,a2,127
9d008e20:	18600018 	blez	v1,9d008e84 <__ldexpf+0x90>
9d008e24:	000210c0 	sll	v0,v0,0x3
9d008e28:	30440007 	andi	a0,v0,0x7
9d008e2c:	1480000d 	bnez	a0,9d008e64 <__ldexpf+0x70>
9d008e30:	7c4400c0 	ext	a0,v0,0x3,0x1
9d008e34:	286400ff 	slti	a0,v1,255
9d008e38:	10800024 	beqz	a0,9d008ecc <__ldexpf+0xd8>
9d008e3c:	000210c2 	srl	v0,v0,0x3
9d008e40:	7c4405c0 	ext	a0,v0,0x17,0x1
9d008e44:	50800002 	beqzl	a0,9d008e50 <__ldexpf+0x5c>
9d008e48:	00001821 	move	v1,zero
9d008e4c:	7c42b000 	ext	v0,v0,0x0,0x17
9d008e50:	00094a00 	sll	t1,t1,0x8
9d008e54:	00691825 	or	v1,v1,t1
9d008e58:	00031dc0 	sll	v1,v1,0x17
9d008e5c:	03e00008 	jr	ra
9d008e60:	00621025 	or	v0,v1,v0
9d008e64:	24420003 	addiu	v0,v0,3
9d008e68:	00441021 	addu	v0,v0,a0
9d008e6c:	000226c2 	srl	a0,v0,0x1b
9d008e70:	1080fff1 	beqz	a0,9d008e38 <__ldexpf+0x44>
9d008e74:	286400ff 	slti	a0,v1,255
9d008e78:	00021042 	srl	v0,v0,0x1
9d008e7c:	0b40238d 	j	9d008e34 <__ldexpf+0x40>
9d008e80:	24630001 	addiu	v1,v1,1
9d008e84:	2403ff82 	li	v1,-126
9d008e88:	00661823 	subu	v1,v1,a2
9d008e8c:	2864001b 	slti	a0,v1,27
9d008e90:	50800012 	beqzl	a0,9d008edc <__ldexpf+0xe8>
9d008e94:	00001021 	move	v0,zero
9d008e98:	24c4009e 	addiu	a0,a2,158
9d008e9c:	00822004 	sllv	a0,v0,a0
9d008ea0:	00621006 	srlv	v0,v0,v1
9d008ea4:	0004182b 	sltu	v1,zero,a0
9d008ea8:	00621025 	or	v0,v1,v0
9d008eac:	0b40238a 	j	9d008e28 <__ldexpf+0x34>
9d008eb0:	24030001 	li	v1,1
9d008eb4:	14c00003 	bnez	a2,9d008ec4 <__ldexpf+0xd0>
9d008eb8:	00000000 	nop
9d008ebc:	14e00009 	bnez	a3,9d008ee4 <__ldexpf+0xf0>
9d008ec0:	70e31820 	clz	v1,a3
9d008ec4:	03e00008 	jr	ra
9d008ec8:	00801021 	move	v0,a0
9d008ecc:	00091200 	sll	v0,t1,0x8
9d008ed0:	344200ff 	ori	v0,v0,0xff
9d008ed4:	03e00008 	jr	ra
9d008ed8:	000215c0 	sll	v0,v0,0x17
9d008edc:	0b402394 	j	9d008e50 <__ldexpf+0x5c>
9d008ee0:	00001821 	move	v1,zero
9d008ee4:	2462fff8 	addiu	v0,v1,-8
9d008ee8:	00471004 	sllv	v0,a3,v0
9d008eec:	2406ff8a 	li	a2,-118
9d008ef0:	0b402386 	j	9d008e18 <__ldexpf+0x24>
9d008ef4:	00c33023 	subu	a2,a2,v1

Disassembly of section .text._flsbuf_simple:

9d008ef8 <_flsbuf_simple>:
9d008ef8:	27bdffd8 	addiu	sp,sp,-40
9d008efc:	afbf0024 	sw	ra,36(sp)
9d008f00:	afb10020 	sw	s1,32(sp)
9d008f04:	afb0001c 	sw	s0,28(sp)
9d008f08:	00a08021 	move	s0,a1
9d008f0c:	8ca2000c 	lw	v0,12(a1)
9d008f10:	1040002d 	beqz	v0,9d008fc8 <_flsbuf_simple+0xd0>
9d008f14:	00808821 	move	s1,a0
9d008f18:	8ca20000 	lw	v0,0(a1)
9d008f1c:	24420001 	addiu	v0,v0,1
9d008f20:	2403ffff 	li	v1,-1
9d008f24:	1043001e 	beq	v0,v1,9d008fa0 <_flsbuf_simple+0xa8>
9d008f28:	aca20000 	sw	v0,0(a1)
9d008f2c:	0f402656 	jal	9d009958 <_fflush_simple>
9d008f30:	02002021 	move	a0,s0
9d008f34:	8e040000 	lw	a0,0(s0)
9d008f38:	8e020004 	lw	v0,4(s0)
9d008f3c:	2484ffff 	addiu	a0,a0,-1
9d008f40:	24430001 	addiu	v1,v0,1
9d008f44:	ae040000 	sw	a0,0(s0)
9d008f48:	ae030004 	sw	v1,4(s0)
9d008f4c:	a0510000 	sb	s1,0(v0)
9d008f50:	2402000a 	li	v0,10
9d008f54:	52220007 	beql	s1,v0,9d008f74 <_flsbuf_simple+0x7c>
9d008f58:	96020010 	lhu	v0,16(s0)
9d008f5c:	02201021 	move	v0,s1
9d008f60:	8fbf0024 	lw	ra,36(sp)
9d008f64:	8fb10020 	lw	s1,32(sp)
9d008f68:	8fb0001c 	lw	s0,28(sp)
9d008f6c:	03e00008 	jr	ra
9d008f70:	27bd0028 	addiu	sp,sp,40
9d008f74:	30420008 	andi	v0,v0,0x8
9d008f78:	1040fff9 	beqz	v0,9d008f60 <_flsbuf_simple+0x68>
9d008f7c:	02201021 	move	v0,s1
9d008f80:	0f402656 	jal	9d009958 <_fflush_simple>
9d008f84:	02002021 	move	a0,s0
9d008f88:	02201021 	move	v0,s1
9d008f8c:	8fbf0024 	lw	ra,36(sp)
9d008f90:	8fb10020 	lw	s1,32(sp)
9d008f94:	8fb0001c 	lw	s0,28(sp)
9d008f98:	03e00008 	jr	ra
9d008f9c:	27bd0028 	addiu	sp,sp,40
9d008fa0:	8ca20008 	lw	v0,8(a1)
9d008fa4:	1440ffe1 	bnez	v0,9d008f2c <_flsbuf_simple+0x34>
9d008fa8:	00000000 	nop
9d008fac:	94a20010 	lhu	v0,16(a1)
9d008fb0:	aca00004 	sw	zero,4(a1)
9d008fb4:	aca0000c 	sw	zero,12(a1)
9d008fb8:	34420010 	ori	v0,v0,0x10
9d008fbc:	aca00000 	sw	zero,0(a1)
9d008fc0:	0b4023cb 	j	9d008f2c <_flsbuf_simple+0x34>
9d008fc4:	a4a20010 	sh	v0,16(a1)
9d008fc8:	27a40010 	addiu	a0,sp,16
9d008fcc:	24050001 	li	a1,1
9d008fd0:	0f4027b1 	jal	9d009ec4 <.LFE4>
9d008fd4:	a3b10010 	sb	s1,16(sp)
9d008fd8:	ae000000 	sw	zero,0(s0)
9d008fdc:	02201021 	move	v0,s1
9d008fe0:	8fbf0024 	lw	ra,36(sp)
9d008fe4:	8fb10020 	lw	s1,32(sp)
9d008fe8:	8fb0001c 	lw	s0,28(sp)
9d008fec:	03e00008 	jr	ra
9d008ff0:	27bd0028 	addiu	sp,sp,40

Disassembly of section .text.strchr:

9d008ff4 <strchr>:
9d008ff4:	30820003 	andi	v0,a0,0x3
9d008ff8:	14400034 	bnez	v0,9d0090cc <strchr+0xd8>
9d008ffc:	30a600ff 	andi	a2,a1,0xff
9d009000:	30a500ff 	andi	a1,a1,0xff
9d009004:	00054a00 	sll	t1,a1,0x8
9d009008:	8c820000 	lw	v0,0(a0)
9d00900c:	01252825 	or	a1,t1,a1
9d009010:	00054c00 	sll	t1,a1,0x10
9d009014:	01254825 	or	t1,t1,a1
9d009018:	01221826 	xor	v1,t1,v0
9d00901c:	3c05fefe 	lui	a1,0xfefe
9d009020:	34a5feff 	ori	a1,a1,0xfeff
9d009024:	00034027 	nor	t0,zero,v1
9d009028:	00651821 	addu	v1,v1,a1
9d00902c:	00023827 	nor	a3,zero,v0
9d009030:	00451021 	addu	v0,v0,a1
9d009034:	01031824 	and	v1,t0,v1
9d009038:	00e21024 	and	v0,a3,v0
9d00903c:	00621025 	or	v0,v1,v0
9d009040:	3c0a8080 	lui	t2,0x8080
9d009044:	354a8080 	ori	t2,t2,0x8080
9d009048:	004a1024 	and	v0,v0,t2
9d00904c:	54400020 	bnezl	v0,9d0090d0 <strchr+0xdc>
9d009050:	90820000 	lbu	v0,0(a0)
9d009054:	24840004 	addiu	a0,a0,4
9d009058:	8c820000 	lw	v0,0(a0)
9d00905c:	01221826 	xor	v1,t1,v0
9d009060:	00034027 	nor	t0,zero,v1
9d009064:	00651821 	addu	v1,v1,a1
9d009068:	00023827 	nor	a3,zero,v0
9d00906c:	00451021 	addu	v0,v0,a1
9d009070:	01031824 	and	v1,t0,v1
9d009074:	00e21024 	and	v0,a3,v0
9d009078:	00621025 	or	v0,v1,v0
9d00907c:	004a1024 	and	v0,v0,t2
9d009080:	54400013 	bnezl	v0,9d0090d0 <strchr+0xdc>
9d009084:	90820000 	lbu	v0,0(a0)
9d009088:	24840004 	addiu	a0,a0,4
9d00908c:	8c820000 	lw	v0,0(a0)
9d009090:	01221826 	xor	v1,t1,v0
9d009094:	00034027 	nor	t0,zero,v1
9d009098:	00651821 	addu	v1,v1,a1
9d00909c:	00023827 	nor	a3,zero,v0
9d0090a0:	00451021 	addu	v0,v0,a1
9d0090a4:	01031824 	and	v1,t0,v1
9d0090a8:	00e21024 	and	v0,a3,v0
9d0090ac:	00621025 	or	v0,v1,v0
9d0090b0:	004a1024 	and	v0,v0,t2
9d0090b4:	5040ffe8 	beqzl	v0,9d009058 <strchr+0x64>
9d0090b8:	24840004 	addiu	a0,a0,4
9d0090bc:	0b402434 	j	9d0090d0 <strchr+0xdc>
9d0090c0:	90820000 	lbu	v0,0(a0)
9d0090c4:	10400006 	beqz	v0,9d0090e0 <strchr+0xec>
9d0090c8:	24840001 	addiu	a0,a0,1
9d0090cc:	90820000 	lbu	v0,0(a0)
9d0090d0:	1446fffc 	bne	v0,a2,9d0090c4 <strchr+0xd0>
9d0090d4:	00000000 	nop
9d0090d8:	03e00008 	jr	ra
9d0090dc:	00801021 	move	v0,a0
9d0090e0:	03e00008 	jr	ra
9d0090e4:	00001021 	move	v0,zero

Disassembly of section .text._mon_getc:

9d0090e8 <_mon_getc>:
9d0090e8:	27bdffe8 	addiu	sp,sp,-24
9d0090ec:	afbf0014 	sw	ra,20(sp)
9d0090f0:	3c02a000 	lui	v0,0xa000
9d0090f4:	8c420004 	lw	v0,4(v0)
9d0090f8:	1440000a 	bnez	v0,9d009124 <_mon_getc+0x3c>
9d0090fc:	24030002 	li	v1,2
9d009100:	3c020000 	lui	v0,0x0
9d009104:	24420000 	addiu	v0,v0,0
9d009108:	10400029 	beqz	v0,9d0091b0 <_mon_getc+0xc8>
9d00910c:	3c020000 	lui	v0,0x0
9d009110:	0c000000 	jal	90000000 <_bmxdkpba_address+0x8ffe0000>
9d009114:	00000000 	nop
9d009118:	8fbf0014 	lw	ra,20(sp)
9d00911c:	03e00008 	jr	ra
9d009120:	27bd0018 	addiu	sp,sp,24
9d009124:	1043001c 	beq	v0,v1,9d009198 <_mon_getc+0xb0>
9d009128:	3c02bf80 	lui	v0,0xbf80
9d00912c:	3c02bf80 	lui	v0,0xbf80
9d009130:	8c426000 	lw	v0,24576(v0)
9d009134:	3c05bf80 	lui	a1,0xbf80
9d009138:	24a56030 	addiu	a1,a1,24624
9d00913c:	3c04bf80 	lui	a0,0xbf80
9d009140:	24846010 	addiu	a0,a0,24592
9d009144:	30428000 	andi	v0,v0,0x8000
9d009148:	14400003 	bnez	v0,9d009158 <_mon_getc+0x70>
9d00914c:	34038000 	li	v1,0x8000
9d009150:	3c02bf80 	lui	v0,0xbf80
9d009154:	ac436008 	sw	v1,24584(v0)
9d009158:	8c820000 	lw	v0,0(a0)
9d00915c:	30420001 	andi	v0,v0,0x1
9d009160:	14400009 	bnez	v0,9d009188 <_mon_getc+0xa0>
9d009164:	240200a0 	li	v0,160
9d009168:	0b40245e 	j	9d009178 <_mon_getc+0x90>
9d00916c:	00000000 	nop
9d009170:	10400005 	beqz	v0,9d009188 <_mon_getc+0xa0>
9d009174:	00000000 	nop
9d009178:	8c830000 	lw	v1,0(a0)
9d00917c:	30630001 	andi	v1,v1,0x1
9d009180:	1060fffb 	beqz	v1,9d009170 <_mon_getc+0x88>
9d009184:	2442ffff 	addiu	v0,v0,-1
9d009188:	8ca20000 	lw	v0,0(a1)
9d00918c:	8fbf0014 	lw	ra,20(sp)
9d009190:	03e00008 	jr	ra
9d009194:	27bd0018 	addiu	sp,sp,24
9d009198:	8c426800 	lw	v0,26624(v0)
9d00919c:	3c05bf80 	lui	a1,0xbf80
9d0091a0:	24a56830 	addiu	a1,a1,26672
9d0091a4:	3c04bf80 	lui	a0,0xbf80
9d0091a8:	0b402451 	j	9d009144 <_mon_getc+0x5c>
9d0091ac:	24846810 	addiu	a0,a0,26640
9d0091b0:	24420000 	addiu	v0,v0,0
9d0091b4:	5040ffde 	beqzl	v0,9d009130 <_mon_getc+0x48>
9d0091b8:	3c02bf80 	lui	v0,0xbf80
9d0091bc:	0c000000 	jal	90000000 <_bmxdkpba_address+0x8ffe0000>
9d0091c0:	00000000 	nop
9d0091c4:	0b402447 	j	9d00911c <_mon_getc+0x34>
9d0091c8:	8fbf0014 	lw	ra,20(sp)

Disassembly of section .text.general_exception:

9d0091cc <_general_exception_context>:
9d0091cc:	27bdffa8 	addiu	sp,sp,-88
9d0091d0:	afa10004 	sw	at,4(sp)
9d0091d4:	afa20008 	sw	v0,8(sp)
9d0091d8:	afa3000c 	sw	v1,12(sp)
9d0091dc:	afa40010 	sw	a0,16(sp)
9d0091e0:	afa50014 	sw	a1,20(sp)
9d0091e4:	afa60018 	sw	a2,24(sp)
9d0091e8:	afa7001c 	sw	a3,28(sp)
9d0091ec:	afa80020 	sw	t0,32(sp)
9d0091f0:	afa90024 	sw	t1,36(sp)
9d0091f4:	afaa0028 	sw	t2,40(sp)
9d0091f8:	afab002c 	sw	t3,44(sp)
9d0091fc:	afac0030 	sw	t4,48(sp)
9d009200:	afad0034 	sw	t5,52(sp)
9d009204:	afae0038 	sw	t6,56(sp)
9d009208:	afaf003c 	sw	t7,60(sp)
9d00920c:	afb80040 	sw	t8,64(sp)
9d009210:	afb90044 	sw	t9,68(sp)
9d009214:	afbf0048 	sw	ra,72(sp)
9d009218:	00004012 	mflo	t0
9d00921c:	afa8004c 	sw	t0,76(sp)
9d009220:	00004010 	mfhi	t0
9d009224:	afa80050 	sw	t0,80(sp)
9d009228:	3c1a9d01 	lui	k0,0x9d01
9d00922c:	275a9f58 	addiu	k0,k0,-24744
9d009230:	00000000 	nop
9d009234:	40046800 	mfc0	a0,c0_cause
9d009238:	40056000 	mfc0	a1,c0_status
9d00923c:	0340f809 	jalr	k0
9d009240:	00000000 	nop
9d009244:	8fa80050 	lw	t0,80(sp)
9d009248:	01000011 	mthi	t0
9d00924c:	8fa8004c 	lw	t0,76(sp)
9d009250:	01000013 	mtlo	t0
9d009254:	8fa10004 	lw	at,4(sp)
9d009258:	8fa20008 	lw	v0,8(sp)
9d00925c:	8fa3000c 	lw	v1,12(sp)
9d009260:	8fa40010 	lw	a0,16(sp)
9d009264:	8fa50014 	lw	a1,20(sp)
9d009268:	8fa60018 	lw	a2,24(sp)
9d00926c:	8fa7001c 	lw	a3,28(sp)
9d009270:	8fa80020 	lw	t0,32(sp)
9d009274:	8fa90024 	lw	t1,36(sp)
9d009278:	8faa0028 	lw	t2,40(sp)
9d00927c:	8fab002c 	lw	t3,44(sp)
9d009280:	8fac0030 	lw	t4,48(sp)
9d009284:	8fad0034 	lw	t5,52(sp)
9d009288:	8fae0038 	lw	t6,56(sp)
9d00928c:	8faf003c 	lw	t7,60(sp)
9d009290:	8fb80040 	lw	t8,64(sp)
9d009294:	8fb90044 	lw	t9,68(sp)
9d009298:	8fbf0048 	lw	ra,72(sp)
9d00929c:	27bd0058 	addiu	sp,sp,88
9d0092a0:	000000c0 	ehb
9d0092a4:	42000018 	eret

Disassembly of section .text._mon_putc:

9d0092a8 <_mon_putc>:
9d0092a8:	27bdffe8 	addiu	sp,sp,-24
9d0092ac:	afbf0014 	sw	ra,20(sp)
9d0092b0:	3c02a000 	lui	v0,0xa000
9d0092b4:	8c420004 	lw	v0,4(v0)
9d0092b8:	1440000a 	bnez	v0,9d0092e4 <_mon_putc+0x3c>
9d0092bc:	7c042420 	seb	a0,a0
9d0092c0:	3c020000 	lui	v0,0x0
9d0092c4:	24420000 	addiu	v0,v0,0
9d0092c8:	10400025 	beqz	v0,9d009360 <_mon_putc+0xb8>
9d0092cc:	3c020000 	lui	v0,0x0
9d0092d0:	0c000000 	jal	90000000 <_bmxdkpba_address+0x8ffe0000>
9d0092d4:	00000000 	nop
9d0092d8:	8fbf0014 	lw	ra,20(sp)
9d0092dc:	03e00008 	jr	ra
9d0092e0:	27bd0018 	addiu	sp,sp,24
9d0092e4:	24030001 	li	v1,1
9d0092e8:	10430015 	beq	v0,v1,9d009340 <_mon_putc+0x98>
9d0092ec:	3c05bf80 	lui	a1,0xbf80
9d0092f0:	3c05bf80 	lui	a1,0xbf80
9d0092f4:	24a56820 	addiu	a1,a1,26656
9d0092f8:	3c02bf80 	lui	v0,0xbf80
9d0092fc:	24426818 	addiu	v0,v0,26648
9d009300:	3c06bf80 	lui	a2,0xbf80
9d009304:	24c66808 	addiu	a2,a2,26632
9d009308:	3c03bf80 	lui	v1,0xbf80
9d00930c:	24636810 	addiu	v1,v1,26640
9d009310:	34078000 	li	a3,0x8000
9d009314:	acc70000 	sw	a3,0(a2)
9d009318:	24060400 	li	a2,1024
9d00931c:	ac460000 	sw	a2,0(v0)
9d009320:	8c620000 	lw	v0,0(v1)
9d009324:	30420100 	andi	v0,v0,0x100
9d009328:	1040fffd 	beqz	v0,9d009320 <_mon_putc+0x78>
9d00932c:	00000000 	nop
9d009330:	aca40000 	sw	a0,0(a1)
9d009334:	8fbf0014 	lw	ra,20(sp)
9d009338:	03e00008 	jr	ra
9d00933c:	27bd0018 	addiu	sp,sp,24
9d009340:	24a56020 	addiu	a1,a1,24608
9d009344:	3c02bf80 	lui	v0,0xbf80
9d009348:	24426018 	addiu	v0,v0,24600
9d00934c:	3c06bf80 	lui	a2,0xbf80
9d009350:	24c66008 	addiu	a2,a2,24584
9d009354:	3c03bf80 	lui	v1,0xbf80
9d009358:	0b4024c4 	j	9d009310 <_mon_putc+0x68>
9d00935c:	24636010 	addiu	v1,v1,24592
9d009360:	24420000 	addiu	v0,v0,0
9d009364:	1040ffe3 	beqz	v0,9d0092f4 <_mon_putc+0x4c>
9d009368:	3c05bf80 	lui	a1,0xbf80
9d00936c:	0c000000 	jal	90000000 <_bmxdkpba_address+0x8ffe0000>
9d009370:	00000000 	nop
9d009374:	0b4024b7 	j	9d0092dc <_mon_putc+0x34>
9d009378:	8fbf0014 	lw	ra,20(sp)

Disassembly of section .text._sbrk:

9d00937c <_sbrk>:
9d00937c:	27bdffe0 	addiu	sp,sp,-32
9d009380:	afbf001c 	sw	ra,28(sp)
9d009384:	afb00018 	sw	s0,24(sp)
9d009388:	3c10a000 	lui	s0,0xa000
9d00938c:	8e021bbc 	lw	v0,7100(s0)
9d009390:	10400010 	beqz	v0,9d0093d4 <_sbrk+0x58>
9d009394:	00000000 	nop
9d009398:	1880001b 	blez	a0,9d009408 <_sbrk+0x8c>
9d00939c:	00441821 	addu	v1,v0,a0
9d0093a0:	0062202b 	sltu	a0,v1,v0
9d0093a4:	54800011 	bnezl	a0,9d0093ec <_sbrk+0x70>
9d0093a8:	2403000c 	li	v1,12
9d0093ac:	3c04a000 	lui	a0,0xa000
9d0093b0:	8c841bc0 	lw	a0,7104(a0)
9d0093b4:	0083202b 	sltu	a0,a0,v1
9d0093b8:	5480000c 	bnezl	a0,9d0093ec <_sbrk+0x70>
9d0093bc:	2403000c 	li	v1,12
9d0093c0:	ae031bbc 	sw	v1,7100(s0)
9d0093c4:	8fbf001c 	lw	ra,28(sp)
9d0093c8:	8fb00018 	lw	s0,24(sp)
9d0093cc:	03e00008 	jr	ra
9d0093d0:	27bd0020 	addiu	sp,sp,32
9d0093d4:	0f4021b6 	jal	9d0086d8 <.LFE23>
9d0093d8:	afa40010 	sw	a0,16(sp)
9d0093dc:	8e021bbc 	lw	v0,7100(s0)
9d0093e0:	1440ffed 	bnez	v0,9d009398 <_sbrk+0x1c>
9d0093e4:	8fa40010 	lw	a0,16(sp)
9d0093e8:	2403000c 	li	v1,12
9d0093ec:	3c02a000 	lui	v0,0xa000
9d0093f0:	ac430020 	sw	v1,32(v0)
9d0093f4:	2402ffff 	li	v0,-1
9d0093f8:	8fbf001c 	lw	ra,28(sp)
9d0093fc:	8fb00018 	lw	s0,24(sp)
9d009400:	03e00008 	jr	ra
9d009404:	27bd0020 	addiu	sp,sp,32
9d009408:	0043202b 	sltu	a0,v0,v1
9d00940c:	14800005 	bnez	a0,9d009424 <_sbrk+0xa8>
9d009410:	3c04a000 	lui	a0,0xa000
9d009414:	8c841bc4 	lw	a0,7108(a0)
9d009418:	0064202b 	sltu	a0,v1,a0
9d00941c:	5080ffe9 	beqzl	a0,9d0093c4 <_sbrk+0x48>
9d009420:	ae031bbc 	sw	v1,7100(s0)
9d009424:	24030016 	li	v1,22
9d009428:	3c02a000 	lui	v0,0xa000
9d00942c:	ac430020 	sw	v1,32(v0)
9d009430:	2402ffff 	li	v0,-1
9d009434:	8fbf001c 	lw	ra,28(sp)
9d009438:	8fb00018 	lw	s0,24(sp)
9d00943c:	03e00008 	jr	ra
9d009440:	27bd0020 	addiu	sp,sp,32

Disassembly of section .text.repl.constprop.0:

9d009444 <repl.constprop.0>:
9d009444:	27bdffd0 	addiu	sp,sp,-48
9d009448:	afbf002c 	sw	ra,44(sp)
9d00944c:	afb60028 	sw	s6,40(sp)
9d009450:	afb50024 	sw	s5,36(sp)
9d009454:	afb40020 	sw	s4,32(sp)
9d009458:	afb3001c 	sw	s3,28(sp)
9d00945c:	afb20018 	sw	s2,24(sp)
9d009460:	afb10014 	sw	s1,20(sp)
9d009464:	afb00010 	sw	s0,16(sp)
9d009468:	10a00016 	beqz	a1,9d0094c4 <repl.constprop.0+0x80>
9d00946c:	00a0a021 	move	s4,a1
9d009470:	00809021 	move	s2,a0
9d009474:	3c159d01 	lui	s5,0x9d01
9d009478:	26b5a290 	addiu	s5,s5,-23920
9d00947c:	24160020 	li	s6,32
9d009480:	2413ffff 	li	s3,-1
9d009484:	2e910021 	sltiu	s1,s4,33
9d009488:	02c01021 	move	v0,s6
9d00948c:	0291100b 	movn	v0,s4,s1
9d009490:	0282a023 	subu	s4,s4,v0
9d009494:	02a28821 	addu	s1,s5,v0
9d009498:	0b40252d 	j	9d0094b4 <repl.constprop.0+0x70>
9d00949c:	02a08021 	move	s0,s5
9d0094a0:	26100001 	addiu	s0,s0,1
9d0094a4:	0f40253c 	jal	9d0094f0 <fputc>
9d0094a8:	8204ffff 	lb	a0,-1(s0)
9d0094ac:	10530007 	beq	v0,s3,9d0094cc <repl.constprop.0+0x88>
9d0094b0:	8fbf002c 	lw	ra,44(sp)
9d0094b4:	1611fffa 	bne	s0,s1,9d0094a0 <repl.constprop.0+0x5c>
9d0094b8:	02402821 	move	a1,s2
9d0094bc:	1680fff2 	bnez	s4,9d009488 <repl.constprop.0+0x44>
9d0094c0:	2e910021 	sltiu	s1,s4,33
9d0094c4:	00001021 	move	v0,zero
9d0094c8:	8fbf002c 	lw	ra,44(sp)
9d0094cc:	8fb60028 	lw	s6,40(sp)
9d0094d0:	8fb50024 	lw	s5,36(sp)
9d0094d4:	8fb40020 	lw	s4,32(sp)
9d0094d8:	8fb3001c 	lw	s3,28(sp)
9d0094dc:	8fb20018 	lw	s2,24(sp)
9d0094e0:	8fb10014 	lw	s1,20(sp)
9d0094e4:	8fb00010 	lw	s0,16(sp)
9d0094e8:	03e00008 	jr	ra
9d0094ec:	27bd0030 	addiu	sp,sp,48

Disassembly of section .text.fputc:

9d0094f0 <fputc>:
9d0094f0:	27bdffe0 	addiu	sp,sp,-32
9d0094f4:	afbf001c 	sw	ra,28(sp)
9d0094f8:	afb10018 	sw	s1,24(sp)
9d0094fc:	afb00014 	sw	s0,20(sp)
9d009500:	00a08021 	move	s0,a1
9d009504:	8ca20018 	lw	v0,24(a1)
9d009508:	00808821 	move	s1,a0
9d00950c:	24050001 	li	a1,1
9d009510:	8c420010 	lw	v0,16(v0)
9d009514:	0040f809 	jalr	v0
9d009518:	02002021 	move	a0,s0
9d00951c:	1040000e 	beqz	v0,9d009558 <fputc+0x68>
9d009520:	2402ffff 	li	v0,-1
9d009524:	8e020000 	lw	v0,0(s0)
9d009528:	2442ffff 	addiu	v0,v0,-1
9d00952c:	04400011 	bltz	v0,9d009574 <fputc+0x84>
9d009530:	ae020000 	sw	v0,0(s0)
9d009534:	96020010 	lhu	v0,16(s0)
9d009538:	30420008 	andi	v0,v0,0x8
9d00953c:	1440000b 	bnez	v0,9d00956c <fputc+0x7c>
9d009540:	2402000a 	li	v0,10
9d009544:	8e030004 	lw	v1,4(s0)
9d009548:	02201021 	move	v0,s1
9d00954c:	24640001 	addiu	a0,v1,1
9d009550:	ae040004 	sw	a0,4(s0)
9d009554:	a0710000 	sb	s1,0(v1)
9d009558:	8fbf001c 	lw	ra,28(sp)
9d00955c:	8fb10018 	lw	s1,24(sp)
9d009560:	8fb00014 	lw	s0,20(sp)
9d009564:	03e00008 	jr	ra
9d009568:	27bd0020 	addiu	sp,sp,32
9d00956c:	5622fff6 	bnel	s1,v0,9d009548 <fputc+0x58>
9d009570:	8e030004 	lw	v1,4(s0)
9d009574:	8e020018 	lw	v0,24(s0)
9d009578:	02202021 	move	a0,s1
9d00957c:	8c420004 	lw	v0,4(v0)
9d009580:	0040f809 	jalr	v0
9d009584:	02002821 	move	a1,s0
9d009588:	8fbf001c 	lw	ra,28(sp)
9d00958c:	8fb10018 	lw	s1,24(sp)
9d009590:	8fb00014 	lw	s0,20(sp)
9d009594:	03e00008 	jr	ra
9d009598:	27bd0020 	addiu	sp,sp,32

Disassembly of section .text.fptodp:

9d00959c <__extendsfdf2>:
9d00959c:	00043dc2 30e700ff 3c018000 00813024     .=.....0...<$0..
9d0095ac:	24e9ffff 2d2100fe 1020000d 00000000     ...$..!-.. .....

9d0095bc <Glab1>:
9d0095bc:	24e70380 	addiu	a3,a3,896
9d0095c0:	00044a40 	sll	t1,a0,0x9
9d0095c4:	00094b02 	srl	t1,t1,0xc
9d0095c8:	00c93025 	or	a2,a2,t1
9d0095cc:	00042f40 	sll	a1,a0,0x1d

9d0095d0 <Gret>:
9d0095d0:	00074d00 	sll	t1,a3,0x14
9d0095d4:	00c93025 	or	a2,a2,t1
9d0095d8:	00051025 	or	v0,zero,a1
9d0095dc:	00061825 	or	v1,zero,a2

9d0095e0 <G999>:
9d0095e0:	03e00008 	jr	ra
9d0095e4:	00000000 	nop
9d0095e8:	00000000 	nop

9d0095ec <Gspec>:
9d0095ec:	24050000 	li	a1,0
9d0095f0:	00842021 	addu	a0,a0,a0
9d0095f4:	1080fff6 	beqz	a0,9d0095d0 <Gret>
9d0095f8:	00000000 	nop
9d0095fc:	14e00009 	bnez	a3,9d009624 <i42>
9d009600:	00000000 	nop

9d009604 <b43>:
9d009604:	24e7ffff 	addiu	a3,a3,-1
9d009608:	00842021 	addu	a0,a0,a0
9d00960c:	3c010080 	lui	at,0x80
9d009610:	0081082b 	sltu	at,a0,at
9d009614:	1420fffb 	bnez	at,9d009604 <b43>
9d009618:	00000000 	nop
9d00961c:	1000ffe7 	b	9d0095bc <Glab1>
9d009620:	00000000 	nop

9d009624 <i42>:
9d009624:	240707ff 	li	a3,2047
9d009628:	3c01ff00 	lui	at,0xff00
9d00962c:	34210001 	ori	at,at,0x1
9d009630:	0081082b 	sltu	at,a0,at
9d009634:	1420ffe6 	bnez	at,9d0095d0 <Gret>
9d009638:	00000000 	nop
9d00963c:	1000ffe4 	b	9d0095d0 <Gret>
9d009640:	3c06fff8 	lui	a2,0xfff8
9d009644:	00000000 	nop

Disassembly of section .text._fullexit:

9d009648 <_fullexit>:
9d009648:	27bdffe0 	addiu	sp,sp,-32
9d00964c:	afbf001c 	sw	ra,28(sp)
9d009650:	afb20018 	sw	s2,24(sp)
9d009654:	afb10014 	sw	s1,20(sp)
9d009658:	afb00010 	sw	s0,16(sp)
9d00965c:	3c10a000 	lui	s0,0xa000
9d009660:	3c11a000 	lui	s1,0xa000
9d009664:	00809021 	move	s2,a0
9d009668:	0f402935 	jal	9d00a4d4 <_weak_pthread_mutex_lock>
9d00966c:	26041bc8 	addiu	a0,s0,7112
9d009670:	8e220000 	lw	v0,0(s1)
9d009674:	26041bc8 	addiu	a0,s0,7112
9d009678:	24030001 	li	v1,1
9d00967c:	0f402939 	jal	9d00a4e4 <_weak_pthread_mutex_unlock>
9d009680:	ac430038 	sw	v1,56(v0)
9d009684:	8e220000 	lw	v0,0(s1)
9d009688:	8c500010 	lw	s0,16(v0)
9d00968c:	5600000a 	bnezl	s0,9d0096b8 <_fullexit+0x70>
9d009690:	8e020004 	lw	v0,4(s0)
9d009694:	0b4025b5 	j	9d0096d4 <_fullexit+0x8c>
9d009698:	8c420034 	lw	v0,52(v0)
9d00969c:	00031880 	sll	v1,v1,0x2
9d0096a0:	02031821 	addu	v1,s0,v1
9d0096a4:	8c630000 	lw	v1,0(v1)
9d0096a8:	2442ffff 	addiu	v0,v0,-1
9d0096ac:	0060f809 	jalr	v1
9d0096b0:	ae020004 	sw	v0,4(s0)
9d0096b4:	8e020004 	lw	v0,4(s0)
9d0096b8:	1c40fff8 	bgtz	v0,9d00969c <_fullexit+0x54>
9d0096bc:	24430001 	addiu	v1,v0,1
9d0096c0:	8e100000 	lw	s0,0(s0)
9d0096c4:	5600fffc 	bnezl	s0,9d0096b8 <_fullexit+0x70>
9d0096c8:	8e020004 	lw	v0,4(s0)
9d0096cc:	8e220000 	lw	v0,0(s1)
9d0096d0:	8c420034 	lw	v0,52(v0)
9d0096d4:	10400003 	beqz	v0,9d0096e4 <_fullexit+0x9c>
9d0096d8:	00000000 	nop
9d0096dc:	0040f809 	jalr	v0
9d0096e0:	00000000 	nop
9d0096e4:	0f40295d 	jal	9d00a574 <.LFE0>
9d0096e8:	02402021 	move	a0,s2

Disassembly of section .text._o_init:

9d0096ec <_o_init>:
9d0096ec:	27bdffe8 	addiu	sp,sp,-24
9d0096f0:	afbf0014 	sw	ra,20(sp)
9d0096f4:	afb00010 	sw	s0,16(sp)
9d0096f8:	00808021 	move	s0,a0
9d0096fc:	3c02a000 	lui	v0,0xa000
9d009700:	8c430000 	lw	v1,0(v0)
9d009704:	8c820008 	lw	v0,8(a0)
9d009708:	3c059d01 	lui	a1,0x9d01
9d00970c:	24a5a200 	addiu	a1,a1,-24064
9d009710:	1040001b 	beqz	v0,9d009780 <_o_init+0x94>
9d009714:	ac650034 	sw	a1,52(v1)
9d009718:	8e03000c 	lw	v1,12(s0)
9d00971c:	50600004 	beqzl	v1,9d009730 <_o_init+0x44>
9d009720:	96020010 	lhu	v0,16(s0)
9d009724:	8e020008 	lw	v0,8(s0)
9d009728:	ae020004 	sw	v0,4(s0)
9d00972c:	96020010 	lhu	v0,16(s0)
9d009730:	ae030000 	sw	v1,0(s0)
9d009734:	34430002 	ori	v1,v0,0x2
9d009738:	30441000 	andi	a0,v0,0x1000
9d00973c:	10800006 	beqz	a0,9d009758 <_o_init+0x6c>
9d009740:	a6030010 	sh	v1,16(s0)
9d009744:	30420008 	andi	v0,v0,0x8
9d009748:	14400007 	bnez	v0,9d009768 <_o_init+0x7c>
9d00974c:	00000000 	nop
9d009750:	3063efff 	andi	v1,v1,0xefff
9d009754:	a6030010 	sh	v1,16(s0)
9d009758:	8fbf0014 	lw	ra,20(sp)
9d00975c:	8fb00010 	lw	s0,16(sp)
9d009760:	03e00008 	jr	ra
9d009764:	27bd0018 	addiu	sp,sp,24
9d009768:	0f40295f 	jal	9d00a57c <.LFE0>
9d00976c:	86040012 	lh	a0,18(s0)
9d009770:	1440fff7 	bnez	v0,9d009750 <_o_init+0x64>
9d009774:	96030010 	lhu	v1,16(s0)
9d009778:	0b4025d4 	j	9d009750 <_o_init+0x64>
9d00977c:	3063fff7 	andi	v1,v1,0xfff7
9d009780:	0f402724 	jal	9d009c90 <_bufalloc>
9d009784:	00000000 	nop
9d009788:	0b4025c7 	j	9d00971c <_o_init+0x30>
9d00978c:	8e03000c 	lw	v1,12(s0)

Disassembly of section .text._eat_white:

9d009790 <_eat_white>:
9d009790:	27bdffe0 	addiu	sp,sp,-32
9d009794:	afbf001c 	sw	ra,28(sp)
9d009798:	afb20018 	sw	s2,24(sp)
9d00979c:	afb10014 	sw	s1,20(sp)
9d0097a0:	afb00010 	sw	s0,16(sp)
9d0097a4:	00808021 	move	s0,a0
9d0097a8:	2411ffff 	li	s1,-1
9d0097ac:	3c129d01 	lui	s2,0x9d01
9d0097b0:	0b4025f2 	j	9d0097c8 <_eat_white+0x38>
9d0097b4:	26528cf1 	addiu	s2,s2,-29455
9d0097b8:	80630000 	lb	v1,0(v1)
9d0097bc:	30630088 	andi	v1,v1,0x88
9d0097c0:	50600010 	beqzl	v1,9d009804 <_eat_white+0x74>
9d0097c4:	8e030010 	lw	v1,16(s0)
9d0097c8:	0f40273e 	jal	9d009cf8 <gsgetc>
9d0097cc:	02002021 	move	a0,s0
9d0097d0:	1451fff9 	bne	v0,s1,9d0097b8 <_eat_white+0x28>
9d0097d4:	00521821 	addu	v1,v0,s2
9d0097d8:	8e030010 	lw	v1,16(s0)
9d0097dc:	ae110004 	sw	s1,4(s0)
9d0097e0:	2402ffff 	li	v0,-1
9d0097e4:	2463ffff 	addiu	v1,v1,-1
9d0097e8:	ae030010 	sw	v1,16(s0)
9d0097ec:	8fbf001c 	lw	ra,28(sp)
9d0097f0:	8fb20018 	lw	s2,24(sp)
9d0097f4:	8fb10014 	lw	s1,20(sp)
9d0097f8:	8fb00010 	lw	s0,16(sp)
9d0097fc:	03e00008 	jr	ra
9d009800:	27bd0020 	addiu	sp,sp,32
9d009804:	ae020004 	sw	v0,4(s0)
9d009808:	00001021 	move	v0,zero
9d00980c:	2463ffff 	addiu	v1,v1,-1
9d009810:	ae030010 	sw	v1,16(s0)
9d009814:	8fbf001c 	lw	ra,28(sp)
9d009818:	8fb20018 	lw	s2,24(sp)
9d00981c:	8fb10014 	lw	s1,20(sp)
9d009820:	8fb00010 	lw	s0,16(sp)
9d009824:	03e00008 	jr	ra
9d009828:	27bd0020 	addiu	sp,sp,32

Disassembly of section .text._i_init:

9d00982c <_i_init>:
9d00982c:	27bdffe8 	addiu	sp,sp,-24
9d009830:	afbf0014 	sw	ra,20(sp)
9d009834:	afb00010 	sw	s0,16(sp)
9d009838:	8c820008 	lw	v0,8(a0)
9d00983c:	1040001d 	beqz	v0,9d0098b4 <_i_init+0x88>
9d009840:	00808021 	move	s0,a0
9d009844:	8e02000c 	lw	v0,12(s0)
9d009848:	54400012 	bnezl	v0,9d009894 <_i_init+0x68>
9d00984c:	8e020008 	lw	v0,8(s0)
9d009850:	2402ffff 	li	v0,-1
9d009854:	ae020004 	sw	v0,4(s0)
9d009858:	96020010 	lhu	v0,16(s0)
9d00985c:	ae000000 	sw	zero,0(s0)
9d009860:	34430001 	ori	v1,v0,0x1
9d009864:	30441000 	andi	a0,v0,0x1000
9d009868:	10800006 	beqz	a0,9d009884 <_i_init+0x58>
9d00986c:	a6030010 	sh	v1,16(s0)
9d009870:	30420008 	andi	v0,v0,0x8
9d009874:	14400009 	bnez	v0,9d00989c <_i_init+0x70>
9d009878:	00000000 	nop
9d00987c:	3063efff 	andi	v1,v1,0xefff
9d009880:	a6030010 	sh	v1,16(s0)
9d009884:	8fbf0014 	lw	ra,20(sp)
9d009888:	8fb00010 	lw	s0,16(sp)
9d00988c:	03e00008 	jr	ra
9d009890:	27bd0018 	addiu	sp,sp,24
9d009894:	0b402616 	j	9d009858 <_i_init+0x2c>
9d009898:	ae020004 	sw	v0,4(s0)
9d00989c:	0f40295f 	jal	9d00a57c <.LFE0>
9d0098a0:	86040012 	lh	a0,18(s0)
9d0098a4:	1440fff5 	bnez	v0,9d00987c <_i_init+0x50>
9d0098a8:	96030010 	lhu	v1,16(s0)
9d0098ac:	0b40261f 	j	9d00987c <_i_init+0x50>
9d0098b0:	3063fff7 	andi	v1,v1,0xfff7
9d0098b4:	0f402724 	jal	9d009c90 <_bufalloc>
9d0098b8:	00000000 	nop
9d0098bc:	0b402612 	j	9d009848 <_i_init+0x1c>
9d0098c0:	8e02000c 	lw	v0,12(s0)

Disassembly of section .text.strlen:

9d0098c4 <strlen>:
9d0098c4:	30830003 	andi	v1,a0,0x3
9d0098c8:	1460001e 	bnez	v1,9d009944 <strlen+0x80>
9d0098cc:	00801021 	move	v0,a0
9d0098d0:	8c820000 	lw	v0,0(a0)
9d0098d4:	3c07fefe 	lui	a3,0xfefe
9d0098d8:	34e7feff 	ori	a3,a3,0xfeff
9d0098dc:	00471821 	addu	v1,v0,a3
9d0098e0:	00021027 	nor	v0,zero,v0
9d0098e4:	3c068080 	lui	a2,0x8080
9d0098e8:	34c68080 	ori	a2,a2,0x8080
9d0098ec:	00621824 	and	v1,v1,v0
9d0098f0:	00661824 	and	v1,v1,a2
9d0098f4:	14600013 	bnez	v1,9d009944 <strlen+0x80>
9d0098f8:	00801021 	move	v0,a0
9d0098fc:	24420004 	addiu	v0,v0,4
9d009900:	8c430000 	lw	v1,0(v0)
9d009904:	00672821 	addu	a1,v1,a3
9d009908:	00031827 	nor	v1,zero,v1
9d00990c:	00a31824 	and	v1,a1,v1
9d009910:	00661824 	and	v1,v1,a2
9d009914:	5460000c 	bnezl	v1,9d009948 <strlen+0x84>
9d009918:	80430000 	lb	v1,0(v0)
9d00991c:	24420004 	addiu	v0,v0,4
9d009920:	8c430000 	lw	v1,0(v0)
9d009924:	00672821 	addu	a1,v1,a3
9d009928:	00031827 	nor	v1,zero,v1
9d00992c:	00a31824 	and	v1,a1,v1
9d009930:	00661824 	and	v1,v1,a2
9d009934:	5060fff2 	beqzl	v1,9d009900 <strlen+0x3c>
9d009938:	24420004 	addiu	v0,v0,4
9d00993c:	0b402652 	j	9d009948 <strlen+0x84>
9d009940:	80430000 	lb	v1,0(v0)
9d009944:	80430000 	lb	v1,0(v0)
9d009948:	5460fffe 	bnezl	v1,9d009944 <strlen+0x80>
9d00994c:	24420001 	addiu	v0,v0,1
9d009950:	03e00008 	jr	ra
9d009954:	00441023 	subu	v0,v0,a0

Disassembly of section .text._fflush_simple:

9d009958 <_fflush_simple>:
9d009958:	27bdffe8 	addiu	sp,sp,-24
9d00995c:	afbf0014 	sw	ra,20(sp)
9d009960:	afb00010 	sw	s0,16(sp)
9d009964:	94820010 	lhu	v0,16(a0)
9d009968:	30420002 	andi	v0,v0,0x2
9d00996c:	10400013 	beqz	v0,9d0099bc <_fflush_simple+0x64>
9d009970:	00808021 	move	s0,a0
9d009974:	8c850000 	lw	a1,0(a0)
9d009978:	04a0000c 	bltz	a1,9d0099ac <_fflush_simple+0x54>
9d00997c:	00001021 	move	v0,zero
9d009980:	8c82000c 	lw	v0,12(a0)
9d009984:	50a20006 	beql	a1,v0,9d0099a0 <_fflush_simple+0x48>
9d009988:	8e030008 	lw	v1,8(s0)
9d00998c:	8c840008 	lw	a0,8(a0)
9d009990:	0f4027b1 	jal	9d009ec4 <.LFE4>
9d009994:	00452823 	subu	a1,v0,a1
9d009998:	8e02000c 	lw	v0,12(s0)
9d00999c:	8e030008 	lw	v1,8(s0)
9d0099a0:	ae020000 	sw	v0,0(s0)
9d0099a4:	ae030004 	sw	v1,4(s0)
9d0099a8:	00001021 	move	v0,zero
9d0099ac:	8fbf0014 	lw	ra,20(sp)
9d0099b0:	8fb00010 	lw	s0,16(sp)
9d0099b4:	03e00008 	jr	ra
9d0099b8:	27bd0018 	addiu	sp,sp,24
9d0099bc:	2402ffff 	li	v0,-1
9d0099c0:	ac820004 	sw	v0,4(a0)
9d0099c4:	00001021 	move	v0,zero
9d0099c8:	8fbf0014 	lw	ra,20(sp)
9d0099cc:	8fb00010 	lw	s0,16(sp)
9d0099d0:	03e00008 	jr	ra
9d0099d4:	27bd0018 	addiu	sp,sp,24

Disassembly of section .text._fwrite_simple:

9d0099d8 <_fwrite_simple>:
9d0099d8:	27bdffd8 	addiu	sp,sp,-40
9d0099dc:	afbf0024 	sw	ra,36(sp)
9d0099e0:	afb10020 	sw	s1,32(sp)
9d0099e4:	afb0001c 	sw	s0,28(sp)
9d0099e8:	70c58002 	mul	s0,a2,a1
9d0099ec:	12000007 	beqz	s0,9d009a0c <_fwrite_simple+0x34>
9d0099f0:	00001021 	move	v0,zero
9d0099f4:	94e30010 	lhu	v1,16(a3)
9d0099f8:	30630001 	andi	v1,v1,0x1
9d0099fc:	10600008 	beqz	v1,9d009a20 <_fwrite_simple+0x48>
9d009a00:	3c03a000 	lui	v1,0xa000
9d009a04:	24040009 	li	a0,9
9d009a08:	ac640020 	sw	a0,32(v1)
9d009a0c:	8fbf0024 	lw	ra,36(sp)
9d009a10:	8fb10020 	lw	s1,32(sp)
9d009a14:	8fb0001c 	lw	s0,28(sp)
9d009a18:	03e00008 	jr	ra
9d009a1c:	27bd0028 	addiu	sp,sp,40
9d009a20:	00808821 	move	s1,a0
9d009a24:	00e02021 	move	a0,a3
9d009a28:	0f402656 	jal	9d009958 <_fflush_simple>
9d009a2c:	afa60010 	sw	a2,16(sp)
9d009a30:	02202021 	move	a0,s1
9d009a34:	0f4027b1 	jal	9d009ec4 <.LFE4>
9d009a38:	02002821 	move	a1,s0
9d009a3c:	8fa60010 	lw	a2,16(sp)
9d009a40:	00c01021 	move	v0,a2
9d009a44:	8fbf0024 	lw	ra,36(sp)
9d009a48:	8fb10020 	lw	s1,32(sp)
9d009a4c:	8fb0001c 	lw	s0,28(sp)
9d009a50:	03e00008 	jr	ra
9d009a54:	27bd0028 	addiu	sp,sp,40

Disassembly of section .text.fgetc:

9d009a58 <fgetc>:
9d009a58:	27bdffe8 	addiu	sp,sp,-24
9d009a5c:	afbf0014 	sw	ra,20(sp)
9d009a60:	afb00010 	sw	s0,16(sp)
9d009a64:	00808021 	move	s0,a0
9d009a68:	8c820018 	lw	v0,24(a0)
9d009a6c:	8c420010 	lw	v0,16(v0)
9d009a70:	0040f809 	jalr	v0
9d009a74:	24050002 	li	a1,2
9d009a78:	10400009 	beqz	v0,9d009aa0 <fgetc+0x48>
9d009a7c:	2402ffff 	li	v0,-1
9d009a80:	8e020000 	lw	v0,0(s0)
9d009a84:	2442ffff 	addiu	v0,v0,-1
9d009a88:	04400009 	bltz	v0,9d009ab0 <fgetc+0x58>
9d009a8c:	ae020000 	sw	v0,0(s0)
9d009a90:	8e020004 	lw	v0,4(s0)
9d009a94:	24430001 	addiu	v1,v0,1
9d009a98:	ae030004 	sw	v1,4(s0)
9d009a9c:	90420000 	lbu	v0,0(v0)
9d009aa0:	8fbf0014 	lw	ra,20(sp)
9d009aa4:	8fb00010 	lw	s0,16(sp)
9d009aa8:	03e00008 	jr	ra
9d009aac:	27bd0018 	addiu	sp,sp,24
9d009ab0:	8e020018 	lw	v0,24(s0)
9d009ab4:	8c420000 	lw	v0,0(v0)
9d009ab8:	0040f809 	jalr	v0
9d009abc:	02002021 	move	a0,s0
9d009ac0:	8fbf0014 	lw	ra,20(sp)
9d009ac4:	8fb00010 	lw	s0,16(sp)
9d009ac8:	03e00008 	jr	ra
9d009acc:	27bd0018 	addiu	sp,sp,24

Disassembly of section .text.litodp:

9d009ad0 <__floatsidf>:
9d009ad0:	24050000 00054825 00053825 00043025     ...$%H..%8..%0..
9d009ae0:	10c0000c 00000000 04c10006 00000000     ................
9d009af0:	3c098000 0005502b 00052823 00063023     ...<+P..#(..#0..
9d009b00:	00ca3023                                #0..

9d009b04 <i40>:
9d009b04:	2407041e 	li	a3,1054
9d009b08:	70c84020 	clz	t0,a2
9d009b0c:	00e83823 	subu	a3,a3,t0
9d009b10:	01063004 	sllv	a2,a2,t0

9d009b14 <i39>:
9d009b14:	000542c2 	srl	t0,a1,0xb
9d009b18:	00065540 	sll	t2,a2,0x15
9d009b1c:	010a4025 	or	t0,t0,t2
9d009b20:	00065040 	sll	t2,a2,0x1
9d009b24:	000a5302 	srl	t2,t2,0xc
9d009b28:	012a4825 	or	t1,t1,t2
9d009b2c:	00075500 	sll	t2,a3,0x14
9d009b30:	012a4825 	or	t1,t1,t2
9d009b34:	00081025 	or	v0,zero,t0
9d009b38:	00091825 	or	v1,zero,t1

9d009b3c <E999>:
9d009b3c:	03e00008 	jr	ra
9d009b40:	00000000 	nop
9d009b44:	00000000 	nop

Disassembly of section .text._sscanf_fF:

9d009b48 <_sscanf_fF>:
9d009b48:	27bdffc0 	addiu	sp,sp,-64
9d009b4c:	afbf003c 	sw	ra,60(sp)
9d009b50:	afb00038 	sw	s0,56(sp)
9d009b54:	00808021 	move	s0,a0
9d009b58:	afa60048 	sw	a2,72(sp)
9d009b5c:	afa7004c 	sw	a3,76(sp)
9d009b60:	2402ffff 	li	v0,-1
9d009b64:	a7a20022 	sh	v0,34(sp)
9d009b68:	24020081 	li	v0,129
9d009b6c:	a7a20020 	sh	v0,32(sp)
9d009b70:	0f402631 	jal	9d0098c4 <strlen>
9d009b74:	afa50030 	sw	a1,48(sp)
9d009b78:	27a30048 	addiu	v1,sp,72
9d009b7c:	27a40010 	addiu	a0,sp,16
9d009b80:	8fa50030 	lw	a1,48(sp)
9d009b84:	00603021 	move	a2,v1
9d009b88:	afa20010 	sw	v0,16(sp)
9d009b8c:	afa2001c 	sw	v0,28(sp)
9d009b90:	afb00018 	sw	s0,24(sp)
9d009b94:	afb00014 	sw	s0,20(sp)
9d009b98:	3c029d01 	lui	v0,0x9d01
9d009b9c:	2442a464 	addiu	v0,v0,-23452
9d009ba0:	afa20028 	sw	v0,40(sp)
9d009ba4:	0f400780 	jal	9d001e00 <do_scan>
9d009ba8:	afa3002c 	sw	v1,44(sp)
9d009bac:	8fbf003c 	lw	ra,60(sp)
9d009bb0:	8fb00038 	lw	s0,56(sp)
9d009bb4:	03e00008 	jr	ra
9d009bb8:	27bd0040 	addiu	sp,sp,64

Disassembly of section .text._sprintf_cdnopuxX:

9d009bbc <_sprintf_cdnopuxX>:
9d009bbc:	27bdffc8 	addiu	sp,sp,-56
9d009bc0:	afbf0034 	sw	ra,52(sp)
9d009bc4:	27a20040 	addiu	v0,sp,64
9d009bc8:	00801821 	move	v1,a0
9d009bcc:	afa60040 	sw	a2,64(sp)
9d009bd0:	27a40010 	addiu	a0,sp,16
9d009bd4:	00403021 	move	a2,v0
9d009bd8:	afa70044 	sw	a3,68(sp)
9d009bdc:	2407ffff 	li	a3,-1
9d009be0:	a7a70022 	sh	a3,34(sp)
9d009be4:	24070082 	li	a3,130
9d009be8:	a7a70020 	sh	a3,32(sp)
9d009bec:	3c077fff 	lui	a3,0x7fff
9d009bf0:	34e7fffe 	ori	a3,a3,0xfffe
9d009bf4:	afa70010 	sw	a3,16(sp)
9d009bf8:	afa30018 	sw	v1,24(sp)
9d009bfc:	afa30014 	sw	v1,20(sp)
9d009c00:	3c039d01 	lui	v1,0x9d01
9d009c04:	2463a464 	addiu	v1,v1,-23452
9d009c08:	afa30028 	sw	v1,40(sp)
9d009c0c:	0f400a87 	jal	9d002a1c <_do_print_cdnopuxX>
9d009c10:	afa2002c 	sw	v0,44(sp)
9d009c14:	8fa30014 	lw	v1,20(sp)
9d009c18:	a0600000 	sb	zero,0(v1)
9d009c1c:	8fbf0034 	lw	ra,52(sp)
9d009c20:	03e00008 	jr	ra
9d009c24:	27bd0038 	addiu	sp,sp,56

Disassembly of section .text.memmove:

9d009c28 <memmove>:
9d009c28:	27bdffe8 	addiu	sp,sp,-24
9d009c2c:	0085102b 	sltu	v0,a0,a1
9d009c30:	14400012 	bnez	v0,9d009c7c <memmove+0x54>
9d009c34:	afbf0014 	sw	ra,20(sp)
9d009c38:	00a61021 	addu	v0,a1,a2
9d009c3c:	0082102b 	sltu	v0,a0,v0
9d009c40:	1040000e 	beqz	v0,9d009c7c <memmove+0x54>
9d009c44:	24c2ffff 	addiu	v0,a2,-1
9d009c48:	00821821 	addu	v1,a0,v0
9d009c4c:	00a22821 	addu	a1,a1,v0
9d009c50:	10c00006 	beqz	a2,9d009c6c <memmove+0x44>
9d009c54:	00663823 	subu	a3,v1,a2
9d009c58:	24a5ffff 	addiu	a1,a1,-1
9d009c5c:	90a60001 	lbu	a2,1(a1)
9d009c60:	2463ffff 	addiu	v1,v1,-1
9d009c64:	1467fffc 	bne	v1,a3,9d009c58 <memmove+0x30>
9d009c68:	a0660001 	sb	a2,1(v1)
9d009c6c:	00801021 	move	v0,a0
9d009c70:	8fbf0014 	lw	ra,20(sp)
9d009c74:	03e00008 	jr	ra
9d009c78:	27bd0018 	addiu	sp,sp,24
9d009c7c:	0f40288c 	jal	9d00a230 <memcpy>
9d009c80:	00000000 	nop
9d009c84:	8fbf0014 	lw	ra,20(sp)
9d009c88:	03e00008 	jr	ra
9d009c8c:	27bd0018 	addiu	sp,sp,24

Disassembly of section .text._bufalloc:

9d009c90 <_bufalloc>:
9d009c90:	27bdffe8 	addiu	sp,sp,-24
9d009c94:	afbf0014 	sw	ra,20(sp)
9d009c98:	afb00010 	sw	s0,16(sp)
9d009c9c:	00808021 	move	s0,a0
9d009ca0:	8c84000c 	lw	a0,12(a0)
9d009ca4:	5880000e 	blezl	a0,9d009ce0 <_bufalloc+0x50>
9d009ca8:	ae00000c 	sw	zero,12(s0)
9d009cac:	0f400d2a 	jal	9d0034a8 <malloc>
9d009cb0:	00000000 	nop
9d009cb4:	10400009 	beqz	v0,9d009cdc <_bufalloc+0x4c>
9d009cb8:	ae020008 	sw	v0,8(s0)
9d009cbc:	96030010 	lhu	v1,16(s0)
9d009cc0:	ae020004 	sw	v0,4(s0)
9d009cc4:	34620010 	ori	v0,v1,0x10
9d009cc8:	a6020010 	sh	v0,16(s0)
9d009ccc:	8fbf0014 	lw	ra,20(sp)
9d009cd0:	8fb00010 	lw	s0,16(sp)
9d009cd4:	03e00008 	jr	ra
9d009cd8:	27bd0018 	addiu	sp,sp,24
9d009cdc:	ae00000c 	sw	zero,12(s0)
9d009ce0:	2402ffff 	li	v0,-1
9d009ce4:	ae020004 	sw	v0,4(s0)
9d009ce8:	8fbf0014 	lw	ra,20(sp)
9d009cec:	8fb00010 	lw	s0,16(sp)
9d009cf0:	03e00008 	jr	ra
9d009cf4:	27bd0018 	addiu	sp,sp,24

Disassembly of section .text.gsgetc:

9d009cf8 <gsgetc>:
9d009cf8:	27bdffe0 	addiu	sp,sp,-32
9d009cfc:	afbf001c 	sw	ra,28(sp)
9d009d00:	afb10018 	sw	s1,24(sp)
9d009d04:	afb00014 	sw	s0,20(sp)
9d009d08:	8c820004 	lw	v0,4(a0)
9d009d0c:	2411ffff 	li	s1,-1
9d009d10:	1051000a 	beq	v0,s1,9d009d3c <gsgetc+0x44>
9d009d14:	00808021 	move	s0,a0
9d009d18:	ac910004 	sw	s1,4(a0)
9d009d1c:	8e030010 	lw	v1,16(s0)
9d009d20:	24630001 	addiu	v1,v1,1
9d009d24:	ae030010 	sw	v1,16(s0)
9d009d28:	8fbf001c 	lw	ra,28(sp)
9d009d2c:	8fb10018 	lw	s1,24(sp)
9d009d30:	8fb00014 	lw	s0,20(sp)
9d009d34:	03e00008 	jr	ra
9d009d38:	27bd0020 	addiu	sp,sp,32
9d009d3c:	0f402696 	jal	9d009a58 <fgetc>
9d009d40:	8c840000 	lw	a0,0(a0)
9d009d44:	1451fff5 	bne	v0,s1,9d009d1c <gsgetc+0x24>
9d009d48:	8fbf001c 	lw	ra,28(sp)
9d009d4c:	8fb10018 	lw	s1,24(sp)
9d009d50:	8fb00014 	lw	s0,20(sp)
9d009d54:	03e00008 	jr	ra
9d009d58:	27bd0020 	addiu	sp,sp,32

Disassembly of section .text._buffree:

9d009d5c <_buffree>:
9d009d5c:	27bdffe8 	addiu	sp,sp,-24
9d009d60:	afbf0014 	sw	ra,20(sp)
9d009d64:	afb00010 	sw	s0,16(sp)
9d009d68:	00808021 	move	s0,a0
9d009d6c:	8c840008 	lw	a0,8(a0)
9d009d70:	10800010 	beqz	a0,9d009db4 <_buffree+0x58>
9d009d74:	8fbf0014 	lw	ra,20(sp)
9d009d78:	96020010 	lhu	v0,16(s0)
9d009d7c:	30420010 	andi	v0,v0,0x10
9d009d80:	5040000d 	beqzl	v0,9d009db8 <_buffree+0x5c>
9d009d84:	8fb00010 	lw	s0,16(sp)
9d009d88:	0f401d62 	jal	9d007588 <free>
9d009d8c:	00000000 	nop
9d009d90:	96020010 	lhu	v0,16(s0)
9d009d94:	ae000008 	sw	zero,8(s0)
9d009d98:	3042ffe7 	andi	v0,v0,0xffe7
9d009d9c:	ae00000c 	sw	zero,12(s0)
9d009da0:	ae000000 	sw	zero,0(s0)
9d009da4:	2403ffff 	li	v1,-1
9d009da8:	ae030004 	sw	v1,4(s0)
9d009dac:	a6020010 	sh	v0,16(s0)
9d009db0:	8fbf0014 	lw	ra,20(sp)
9d009db4:	8fb00010 	lw	s0,16(sp)
9d009db8:	03e00008 	jr	ra
9d009dbc:	27bd0018 	addiu	sp,sp,24

Disassembly of section .text.sitofp:

9d009dc0 <__floatsisf>:
9d009dc0:	3c018000 10800012 00813024 04810002     ...<....$0......
9d009dd0:	00000000 00042023                       ....# ..

9d009dd8 <i40>:
9d009dd8:	2405009e 	li	a1,158
9d009ddc:	70873820 	clz	a3,a0
9d009de0:	00a72823 	subu	a1,a1,a3
9d009de4:	00e42004 	sllv	a0,a0,a3
9d009de8:	24840080 	addiu	a0,a0,128
9d009dec:	2c880080 	sltiu	t0,a0,128
9d009df0:	00a82821 	addu	a1,a1,t0
9d009df4:	00044203 	sra	t0,a0,0x8
9d009df8:	31080001 	andi	t0,t0,0x1
9d009dfc:	00882023 	subu	a0,a0,t0
9d009e00:	00042040 	sll	a0,a0,0x1
9d009e04:	00042242 	srl	a0,a0,0x9
9d009e08:	000545c0 	sll	t0,a1,0x17
9d009e0c:	00882025 	or	a0,a0,t0

9d009e10 <i39>:
9d009e10:	00861025 	or	v0,a0,a2

9d009e14 <E999>:
9d009e14:	03e00008 	jr	ra
9d009e18:	00000000 	nop
9d009e1c:	00000000 	nop

Disassembly of section .text.main_entry:

9d009e20 <_main_entry>:
9d009e20:	3c040000 	lui	a0,0x0
9d009e24:	27bdffe8 	addiu	sp,sp,-24
9d009e28:	24840000 	addiu	a0,a0,0
9d009e2c:	10800003 	beqz	a0,9d009e3c <_main_entry+0x1c>
9d009e30:	afbf0014 	sw	ra,20(sp)
9d009e34:	0080f809 	jalr	a0
9d009e38:	00000000 	nop
9d009e3c:	30840000 	andi	a0,a0,0x0
9d009e40:	30a50000 	andi	a1,a1,0x0
9d009e44:	3c089d00 	lui	t0,0x9d00
9d009e48:	250862a8 	addiu	t0,t0,25256
9d009e4c:	0100f809 	jalr	t0
9d009e50:	00000000 	nop

9d009e54 <__crt0_exit>:
9d009e54:	3c020000 24420000 10400003 00000000     ...<..B$..@.....
9d009e64:	0040f809 00000000 1000fff9 00000000     ..@.............

Disassembly of section .text.sbrk:

9d009e74 <sbrk>:
9d009e74:	27bdffe0 	addiu	sp,sp,-32
9d009e78:	afbf001c 	sw	ra,28(sp)
9d009e7c:	afb10018 	sw	s1,24(sp)
9d009e80:	afb00014 	sw	s0,20(sp)
9d009e84:	0f4024df 	jal	9d00937c <.LFE0>
9d009e88:	00808821 	move	s1,a0
9d009e8c:	1a200007 	blez	s1,9d009eac <sbrk+0x38>
9d009e90:	00408021 	move	s0,v0
9d009e94:	2402ffff 	li	v0,-1
9d009e98:	12020004 	beq	s0,v0,9d009eac <sbrk+0x38>
9d009e9c:	02002021 	move	a0,s0
9d009ea0:	00002821 	move	a1,zero
9d009ea4:	0f4028ac 	jal	9d00a2b0 <memset>
9d009ea8:	02203021 	move	a2,s1
9d009eac:	02001021 	move	v0,s0
9d009eb0:	8fbf001c 	lw	ra,28(sp)
9d009eb4:	8fb10018 	lw	s1,24(sp)
9d009eb8:	8fb00014 	lw	s0,20(sp)
9d009ebc:	03e00008 	jr	ra
9d009ec0:	27bd0020 	addiu	sp,sp,32

Disassembly of section .text._mon_write:

9d009ec4 <_mon_write>:
9d009ec4:	27bdffe0 	addiu	sp,sp,-32
9d009ec8:	afbf001c 	sw	ra,28(sp)
9d009ecc:	afb10018 	sw	s1,24(sp)
9d009ed0:	afb00014 	sw	s0,20(sp)
9d009ed4:	10800009 	beqz	a0,9d009efc <_mon_write+0x38>
9d009ed8:	00808021 	move	s0,a0
9d009edc:	10a00007 	beqz	a1,9d009efc <_mon_write+0x38>
9d009ee0:	00a08821 	move	s1,a1
9d009ee4:	82040000 	lb	a0,0(s0)
9d009ee8:	2631ffff 	addiu	s1,s1,-1
9d009eec:	0f4024aa 	jal	9d0092a8 <_mon_putc>
9d009ef0:	26100001 	addiu	s0,s0,1
9d009ef4:	5620fffc 	bnezl	s1,9d009ee8 <_mon_write+0x24>
9d009ef8:	82040000 	lb	a0,0(s0)
9d009efc:	8fbf001c 	lw	ra,28(sp)
9d009f00:	8fb10018 	lw	s1,24(sp)
9d009f04:	8fb00014 	lw	s0,20(sp)
9d009f08:	03e00008 	jr	ra
9d009f0c:	27bd0020 	addiu	sp,sp,32

Disassembly of section .text._bootstrap_exception_handler:

9d009f10 <_bootstrap_exception_handler>:
9d009f10:	3c020000 	lui	v0,0x0
9d009f14:	24420000 	addiu	v0,v0,0
9d009f18:	10400005 	beqz	v0,9d009f30 <_bootstrap_exception_handler+0x20>
9d009f1c:	3c020000 	lui	v0,0x0
9d009f20:	24420000 	addiu	v0,v0,0
9d009f24:	10400003 	beqz	v0,9d009f34 <_bootstrap_exception_handler+0x24>
9d009f28:	3c029d01 	lui	v0,0x9d01
9d009f2c:	7000003f 	sdbbp
9d009f30:	3c029d01 	lui	v0,0x9d01
9d009f34:	2442a030 	addiu	v0,v0,-24528
9d009f38:	10400005 	beqz	v0,9d009f50 <_bootstrap_exception_handler+0x40>
9d009f3c:	00000000 	nop
9d009f40:	27bdffe8 	addiu	sp,sp,-24
9d009f44:	afbf0014 	sw	ra,20(sp)
9d009f48:	0040f809 	jalr	v0
9d009f4c:	00000000 	nop
9d009f50:	0b4027d4 	j	9d009f50 <_bootstrap_exception_handler+0x40>
9d009f54:	00000000 	nop

Disassembly of section .text._general_exception_handler:

9d009f58 <_general_exception_handler>:
9d009f58:	3c020000 	lui	v0,0x0
9d009f5c:	24420000 	addiu	v0,v0,0
9d009f60:	10400005 	beqz	v0,9d009f78 <_general_exception_handler+0x20>
9d009f64:	3c020000 	lui	v0,0x0
9d009f68:	24420000 	addiu	v0,v0,0
9d009f6c:	10400003 	beqz	v0,9d009f7c <_general_exception_handler+0x24>
9d009f70:	3c029d01 	lui	v0,0x9d01
9d009f74:	7000003f 	sdbbp
9d009f78:	3c029d01 	lui	v0,0x9d01
9d009f7c:	2442a030 	addiu	v0,v0,-24528
9d009f80:	10400005 	beqz	v0,9d009f98 <_general_exception_handler+0x40>
9d009f84:	00000000 	nop
9d009f88:	27bdffe8 	addiu	sp,sp,-24
9d009f8c:	afbf0014 	sw	ra,20(sp)
9d009f90:	0040f809 	jalr	v0
9d009f94:	00000000 	nop
9d009f98:	0b4027e6 	j	9d009f98 <_general_exception_handler+0x40>
9d009f9c:	00000000 	nop

Disassembly of section .vector_default:

9d009fa0 <_DefaultInterrupt>:
9d009fa0:	3c020000 	lui	v0,0x0
9d009fa4:	24420000 	addiu	v0,v0,0
9d009fa8:	10400007 	beqz	v0,9d009fc8 <_DefaultInterrupt+0x28>
9d009fac:	3c020000 	lui	v0,0x0
9d009fb0:	24420000 	addiu	v0,v0,0
9d009fb4:	50400005 	beqzl	v0,9d009fcc <_DefaultInterrupt+0x2c>
9d009fb8:	3c029d01 	lui	v0,0x9d01
9d009fbc:	7000003f 	sdbbp
9d009fc0:	03e00008 	jr	ra
9d009fc4:	00000000 	nop
9d009fc8:	3c029d01 	lui	v0,0x9d01
9d009fcc:	2442a030 	addiu	v0,v0,-24528
9d009fd0:	10400003 	beqz	v0,9d009fe0 <_DefaultInterrupt+0x40>
9d009fd4:	00000000 	nop
9d009fd8:	0040f809 	jalr	v0
9d009fdc:	00000000 	nop
9d009fe0:	03e00008 	jr	ra
9d009fe4:	00000000 	nop

Disassembly of section .rodata:

9d009fe8 <f5pow>:
9d009fe8:	00000000 40140000 00000000 40390000     .......@......9@
9d009ff8:	00000000 40838800 00000000 4117d784     .......@.......A
9d00a008:	37e08000 4241c379 b5056e17 4493b8b5     ...7y.AB.n.....D
9d00a018:	e93ff9f5 49384f03 f9301d32 52827748     ..?..O8I2.0.Hw.R
9d00a028:	7f73bf3c 65154fdd                       <.s..O.e

Disassembly of section .text:

9d00a030 <__pic32_software_reset>:
9d00a030:	41606000 	di
9d00a034:	000000c0 	ehb
9d00a038:	3c03aa99 	lui	v1,0xaa99
9d00a03c:	3c02bf81 	lui	v0,0xbf81
9d00a040:	24636655 	addiu	v1,v1,26197
9d00a044:	ac40f230 	sw	zero,-3536(v0)
9d00a048:	ac43f230 	sw	v1,-3536(v0)
9d00a04c:	3c035566 	lui	v1,0x5566
9d00a050:	346399aa 	ori	v1,v1,0x99aa
9d00a054:	ac43f230 	sw	v1,-3536(v0)
9d00a058:	3c02bf81 	lui	v0,0xbf81
9d00a05c:	24030001 	li	v1,1
9d00a060:	ac43f618 	sw	v1,-2536(v0)
9d00a064:	3c02bf81 	lui	v0,0xbf81
9d00a068:	8c42f610 	lw	v0,-2544(v0)
9d00a06c:	0b40280e 	j	9d00a038 <__pic32_software_reset+0x8>
9d00a070:	00000000 	nop

Disassembly of section .text._io_exit:

9d00a074 <.text._io_exit>:
9d00a074:	27bdffe8 	addiu	sp,sp,-24
9d00a078:	afbf0014 	sw	ra,20(sp)
9d00a07c:	afb00010 	sw	s0,16(sp)
9d00a080:	3c10a000 	lui	s0,0xa000
9d00a084:	0f402935 	jal	9d00a4d4 <_weak_pthread_mutex_lock>
9d00a088:	26041bc8 	addiu	a0,s0,7112
9d00a08c:	3c02a000 	lui	v0,0xa000
9d00a090:	8c420000 	lw	v0,0(v0)
9d00a094:	26041bc8 	addiu	a0,s0,7112
9d00a098:	24030001 	li	v1,1
9d00a09c:	0f402939 	jal	9d00a4e4 <_weak_pthread_mutex_unlock>
9d00a0a0:	ac430038 	sw	v1,56(v0)
9d00a0a4:	8fbf0014 	lw	ra,20(sp)
9d00a0a8:	8fb00010 	lw	s0,16(sp)
9d00a0ac:	03e00008 	jr	ra
9d00a0b0:	27bd0018 	addiu	sp,sp,24

Disassembly of section .text:

9d00a0b4 <__lshrdi3>:
9d00a0b4:	10c00009 	beqz	a2,9d00a0dc <__lshrdi3+0x28>
9d00a0b8:	00801021 	move	v0,a0
9d00a0bc:	24020020 	li	v0,32
9d00a0c0:	00461023 	subu	v0,v0,a2
9d00a0c4:	18400007 	blez	v0,9d00a0e4 <__lshrdi3+0x30>
9d00a0c8:	00c42006 	srlv	a0,a0,a2
9d00a0cc:	00451004 	sllv	v0,a1,v0
9d00a0d0:	00c51806 	srlv	v1,a1,a2
9d00a0d4:	03e00008 	jr	ra
9d00a0d8:	00441025 	or	v0,v0,a0
9d00a0dc:	03e00008 	jr	ra
9d00a0e0:	00a01821 	move	v1,a1
9d00a0e4:	00021023 	negu	v0,v0
9d00a0e8:	00001821 	move	v1,zero
9d00a0ec:	03e00008 	jr	ra
9d00a0f0:	00451006 	srlv	v0,a1,v0

9d00a0f4 <__ashldi3>:
9d00a0f4:	10c00009 	beqz	a2,9d00a11c <__ashldi3+0x28>
9d00a0f8:	00801021 	move	v0,a0
9d00a0fc:	24030020 	li	v1,32
9d00a100:	00661823 	subu	v1,v1,a2
9d00a104:	18600007 	blez	v1,9d00a124 <__ashldi3+0x30>
9d00a108:	00c52804 	sllv	a1,a1,a2
9d00a10c:	00641806 	srlv	v1,a0,v1
9d00a110:	00c41004 	sllv	v0,a0,a2
9d00a114:	03e00008 	jr	ra
9d00a118:	00651825 	or	v1,v1,a1
9d00a11c:	03e00008 	jr	ra
9d00a120:	00a01821 	move	v1,a1
9d00a124:	00031823 	negu	v1,v1
9d00a128:	00001021 	move	v0,zero
9d00a12c:	03e00008 	jr	ra
9d00a130:	00641804 	sllv	v1,a0,v1

Disassembly of section .text._weak_pthread_once:

9d00a134 <_weak_pthread_once>:
9d00a134:	8c820000 	lw	v0,0(a0)
9d00a138:	10400003 	beqz	v0,9d00a148 <_weak_pthread_once+0x14>
9d00a13c:	00001021 	move	v0,zero
9d00a140:	03e00008 	jr	ra
9d00a144:	00000000 	nop
9d00a148:	27bdffe8 	addiu	sp,sp,-24
9d00a14c:	afbf0014 	sw	ra,20(sp)
9d00a150:	24020002 	li	v0,2
9d00a154:	00a0f809 	jalr	a1
9d00a158:	ac820000 	sw	v0,0(a0)
9d00a15c:	00001021 	move	v0,zero
9d00a160:	8fbf0014 	lw	ra,20(sp)
9d00a164:	03e00008 	jr	ra
9d00a168:	27bd0018 	addiu	sp,sp,24

Disassembly of section .text._filbuf_simple:

9d00a16c <_filbuf_simple>:
9d00a16c:	8c820004 	lw	v0,4(a0)
9d00a170:	2403ffff 	li	v1,-1
9d00a174:	10430003 	beq	v0,v1,9d00a184 <_filbuf_simple+0x18>
9d00a178:	ac800000 	sw	zero,0(a0)
9d00a17c:	03e00008 	jr	ra
9d00a180:	ac830004 	sw	v1,4(a0)
9d00a184:	27bdffe8 	addiu	sp,sp,-24
9d00a188:	afbf0014 	sw	ra,20(sp)
9d00a18c:	0f40243a 	jal	9d0090e8 <_mon_getc>
9d00a190:	24040001 	li	a0,1
9d00a194:	8fbf0014 	lw	ra,20(sp)
9d00a198:	03e00008 	jr	ra
9d00a19c:	27bd0018 	addiu	sp,sp,24

Disassembly of section .text._fsync_simple:

9d00a1a0 <_fsync_simple>:
9d00a1a0:	94830010 	lhu	v1,16(a0)
9d00a1a4:	00a32824 	and	a1,a1,v1
9d00a1a8:	10a00007 	beqz	a1,9d00a1c8 <_fsync_simple+0x28>
9d00a1ac:	24020001 	li	v0,1
9d00a1b0:	34630040 	ori	v1,v1,0x40
9d00a1b4:	a4830010 	sh	v1,16(a0)
9d00a1b8:	24030009 	li	v1,9
9d00a1bc:	3c02a000 	lui	v0,0xa000
9d00a1c0:	ac430020 	sw	v1,32(v0)
9d00a1c4:	00001021 	move	v0,zero
9d00a1c8:	03e00008 	jr	ra
9d00a1cc:	00000000 	nop

Disassembly of section .rodata:

9d00a1d0 <.rodata>:
9d00a1d0:	33323130 	andi	s2,t9,0x3130
9d00a1d4:	37363534 	ori	s6,t9,0x3534
9d00a1d8:	00000000 	nop
9d00a1dc:	33323130 	andi	s2,t9,0x3130
9d00a1e0:	37363534 	ori	s6,t9,0x3534
9d00a1e4:	42413938 	c0	0x413938
9d00a1e8:	46454443 	c1	0x454443
9d00a1ec:	64636261 	0x64636261
9d00a1f0:	00006665 	0x6665
9d00a1f4:	33323130 	andi	s2,t9,0x3130
9d00a1f8:	37363534 	ori	s6,t9,0x3534
9d00a1fc:	00003938 	0x3938

Disassembly of section .text._cleanup:

9d00a200 <_cleanup>:
9d00a200:	3c02a000 	lui	v0,0xa000
9d00a204:	8c421bec 	lw	v0,7148(v0)
9d00a208:	10400007 	beqz	v0,9d00a228 <_cleanup+0x28>
9d00a20c:	00000000 	nop
9d00a210:	27bdffe8 	addiu	sp,sp,-24
9d00a214:	afbf0014 	sw	ra,20(sp)
9d00a218:	0040f809 	jalr	v0
9d00a21c:	00000000 	nop
9d00a220:	8fbf0014 	lw	ra,20(sp)
9d00a224:	27bd0018 	addiu	sp,sp,24
9d00a228:	03e00008 	jr	ra
9d00a22c:	00000000 	nop

Disassembly of section .text.memcpy:

9d00a230 <memcpy>:
9d00a230:	00801021 	move	v0,a0
9d00a234:	00863821 	addu	a3,a0,a2
9d00a238:	10c00006 	beqz	a2,9d00a254 <memcpy+0x24>
9d00a23c:	00801821 	move	v1,a0
9d00a240:	24a50001 	addiu	a1,a1,1
9d00a244:	90a6ffff 	lbu	a2,-1(a1)
9d00a248:	24630001 	addiu	v1,v1,1
9d00a24c:	1467fffc 	bne	v1,a3,9d00a240 <memcpy+0x10>
9d00a250:	a066ffff 	sb	a2,-1(v1)
9d00a254:	03e00008 	jr	ra
9d00a258:	00000000 	nop

Disassembly of section .text._stub_sbd_memlayout:

9d00a25c <_stub_sbd_memlayout>:
9d00a25c:	3c03a000 	lui	v1,0xa000
9d00a260:	24621ba4 	addiu	v0,v1,7076
9d00a264:	24040001 	li	a0,1
9d00a268:	ac440008 	sw	a0,8(v0)
9d00a26c:	3c04a000 	lui	a0,0xa000
9d00a270:	24841bf8 	addiu	a0,a0,7160
9d00a274:	ac641ba4 	sw	a0,7076(v1)
9d00a278:	3c030000 	lui	v1,0x0
9d00a27c:	24630000 	addiu	v1,v1,0
9d00a280:	03e00008 	jr	ra
9d00a284:	ac430004 	sw	v1,4(v0)

Disassembly of section .rodata:

9d00a288 <spaceData-0x8>:
9d00a288:	6c756e28 	0x6c756e28
9d00a28c:	0000296c 	0x296c

9d00a290 <spaceData>:
9d00a290:	20202020 20202020 20202020 20202020                     
9d00a2a0:	20202020 20202020 20202020 20202020                     

Disassembly of section .text.memset:

9d00a2b0 <memset>:
9d00a2b0:	10c00007 	beqz	a2,9d00a2d0 <memset+0x20>
9d00a2b4:	00801021 	move	v0,a0
9d00a2b8:	30a500ff 	andi	a1,a1,0xff
9d00a2bc:	00863021 	addu	a2,a0,a2
9d00a2c0:	00801821 	move	v1,a0
9d00a2c4:	24630001 	addiu	v1,v1,1
9d00a2c8:	1466fffe 	bne	v1,a2,9d00a2c4 <memset+0x14>
9d00a2cc:	a065ffff 	sb	a1,-1(v1)
9d00a2d0:	03e00008 	jr	ra
9d00a2d4:	00000000 	nop

Disassembly of section .text.putchar:

9d00a2d8 <putchar>:
9d00a2d8:	27bdffe8 	addiu	sp,sp,-24
9d00a2dc:	afbf0014 	sw	ra,20(sp)
9d00a2e0:	3c02a000 	lui	v0,0xa000
9d00a2e4:	8c420000 	lw	v0,0(v0)
9d00a2e8:	0f40253c 	jal	9d0094f0 <fputc>
9d00a2ec:	8c450004 	lw	a1,4(v0)
9d00a2f0:	8fbf0014 	lw	ra,20(sp)
9d00a2f4:	03e00008 	jr	ra
9d00a2f8:	27bd0018 	addiu	sp,sp,24

Disassembly of section .text.getchar:

9d00a2fc <getchar>:
9d00a2fc:	27bdffe8 	addiu	sp,sp,-24
9d00a300:	afbf0014 	sw	ra,20(sp)
9d00a304:	3c02a000 	lui	v0,0xa000
9d00a308:	8c420000 	lw	v0,0(v0)
9d00a30c:	0f402696 	jal	9d009a58 <fgetc>
9d00a310:	8c440000 	lw	a0,0(v0)
9d00a314:	8fbf0014 	lw	ra,20(sp)
9d00a318:	03e00008 	jr	ra
9d00a31c:	27bd0018 	addiu	sp,sp,24

Disassembly of section .text._vfprintf_cdnopuxX:

9d00a320 <_vfprintf_cdnopuxX>:
9d00a320:	27bdffe8 	addiu	sp,sp,-24
9d00a324:	afbf0014 	sw	ra,20(sp)
9d00a328:	0f400a87 	jal	9d002a1c <_do_print_cdnopuxX>
9d00a32c:	00000000 	nop
9d00a330:	8fbf0014 	lw	ra,20(sp)
9d00a334:	03e00008 	jr	ra
9d00a338:	27bd0018 	addiu	sp,sp,24

Disassembly of section .text.putc:

9d00a33c <putc>:
9d00a33c:	27bdffe8 	addiu	sp,sp,-24
9d00a340:	afbf0014 	sw	ra,20(sp)
9d00a344:	0f40253c 	jal	9d0094f0 <fputc>
9d00a348:	00000000 	nop
9d00a34c:	8fbf0014 	lw	ra,20(sp)
9d00a350:	03e00008 	jr	ra
9d00a354:	27bd0018 	addiu	sp,sp,24

Disassembly of section .text.vfscanf:

9d00a358 <vfscanf>:
9d00a358:	27bdffe8 	addiu	sp,sp,-24
9d00a35c:	afbf0014 	sw	ra,20(sp)
9d00a360:	0f400780 	jal	9d001e00 <do_scan>
9d00a364:	00000000 	nop
9d00a368:	8fbf0014 	lw	ra,20(sp)
9d00a36c:	03e00008 	jr	ra
9d00a370:	27bd0018 	addiu	sp,sp,24

Disassembly of section .text.strtod:

9d00a374 <strtod>:
9d00a374:	27bdffe8 	addiu	sp,sp,-24
9d00a378:	afbf0014 	sw	ra,20(sp)
9d00a37c:	0f4017a2 	jal	9d005e88 <__strtod>
9d00a380:	00000000 	nop
9d00a384:	8fbf0014 	lw	ra,20(sp)
9d00a388:	03e00008 	jr	ra
9d00a38c:	27bd0018 	addiu	sp,sp,24

Disassembly of section .text.strtof:

9d00a390 <strtof>:
9d00a390:	27bdffe8 	addiu	sp,sp,-24
9d00a394:	afbf0014 	sw	ra,20(sp)
9d00a398:	0f401a5d 	jal	9d006974 <__strtof>
9d00a39c:	00000000 	nop
9d00a3a0:	8fbf0014 	lw	ra,20(sp)
9d00a3a4:	03e00008 	jr	ra
9d00a3a8:	27bd0018 	addiu	sp,sp,24

Disassembly of section .text.getc:

9d00a3ac <getc>:
9d00a3ac:	27bdffe8 	addiu	sp,sp,-24
9d00a3b0:	afbf0014 	sw	ra,20(sp)
9d00a3b4:	0f402696 	jal	9d009a58 <fgetc>
9d00a3b8:	00000000 	nop
9d00a3bc:	8fbf0014 	lw	ra,20(sp)
9d00a3c0:	03e00008 	jr	ra
9d00a3c4:	27bd0018 	addiu	sp,sp,24

Disassembly of section .text.negdf2:

9d00a3c8 <__negdf2>:
9d00a3c8:	3c018000 00a12826 00041025 00051825     ...<&(..%...%...

9d00a3d8 <M999>:
9d00a3d8:	03e00008 	jr	ra
9d00a3dc:	00000000 	nop
9d00a3e0:	00000000 	nop

Disassembly of section .text:

9d00a3e4 <_nmi_handler>:
9d00a3e4:	401a6000 	mfc0	k0,c0_status
9d00a3e8:	3c1bffbf 	lui	k1,0xffbf
9d00a3ec:	377bffff 	ori	k1,k1,0xffff
9d00a3f0:	035bd024 	and	k0,k0,k1
9d00a3f4:	409a6000 	mtc0	k0,c0_status
9d00a3f8:	42000018 	eret

Disassembly of section .rodata:

9d00a3fc <.rodata>:
9d00a3fc:	40a00000 	0x40a00000
9d00a400:	41c80000 	wrpgpr	zero,t0
9d00a404:	441c4000 	mfc1	gp,$f8
9d00a408:	48bebc20 	0x48bebc20
9d00a40c:	520e1bca 	beql	s0,t6,9d011338 <.LFE0+0x6db4>
9d00a410:	649dc5ae 	0x649dc5ae
9d00a414:	25206625 	addiu	zero,t1,26149
9d00a418:	00000066 	0x66
9d00a41c:	25206425 	addiu	zero,t1,25637
9d00a420:	64252064 	0x64252064
9d00a424:	00000a0d 	break	0x0,0x28

Disassembly of section .text._io_exit:

9d00a428 <_io_exit>:
9d00a428:	3c02a000 	lui	v0,0xa000
9d00a42c:	8c420000 	lw	v0,0(v0)
9d00a430:	24030001 	li	v1,1
9d00a434:	03e00008 	jr	ra
9d00a438:	ac430038 	sw	v1,56(v0)

Disassembly of section .rodata:

9d00a43c <_io_funcs>:
9d00a43c:	9d00a16c 9d008ef8 9d009958 9d0099d8     l.......X.......
9d00a44c:	9d00a1a0                                ....

Disassembly of section .text._io_exit:

9d00a450 <.text._io_exit>:
9d00a450:	3c02a000 	lui	v0,0xa000
9d00a454:	8c420000 	lw	v0,0(v0)
9d00a458:	24030001 	li	v1,1
9d00a45c:	03e00008 	jr	ra
9d00a460:	ac430038 	sw	v1,56(v0)

Disassembly of section .rodata:

9d00a464 <_io_strfuncs>:
9d00a464:	9d00a49c 9d00a4a4 9d00a4ac 9d00a4b4     ................
9d00a474:	9d00a4bc                                ....

Disassembly of section .text.negsf2:

9d00a478 <__negsf2>:
9d00a478:	3c018000 00811026                       ...<&...

9d00a480 <L999>:
9d00a480:	03e00008 	jr	ra
9d00a484:	00000000 	nop
9d00a488:	00000000 	nop

Disassembly of section .text._on_reset:

9d00a48c <_on_reset>:
9d00a48c:	03e00008 	jr	ra
9d00a490:	00000000 	nop

Disassembly of section .text._on_bootstrap:

9d00a494 <_on_bootstrap>:
9d00a494:	03e00008 	jr	ra
9d00a498:	00000000 	nop

Disassembly of section .text._filbuf_string:

9d00a49c <_filbuf_string>:
9d00a49c:	03e00008 	jr	ra
9d00a4a0:	2402ffff 	li	v0,-1

Disassembly of section .text._flsbuf_string:

9d00a4a4 <_flsbuf_string>:
9d00a4a4:	03e00008 	jr	ra
9d00a4a8:	00801021 	move	v0,a0

Disassembly of section .text._fflush_string:

9d00a4ac <_fflush_string>:
9d00a4ac:	03e00008 	jr	ra
9d00a4b0:	00001021 	move	v0,zero

Disassembly of section .text._fwrite_string:

9d00a4b4 <_fwrite_string>:
9d00a4b4:	03e00008 	jr	ra
9d00a4b8:	00001021 	move	v0,zero

Disassembly of section .text._fsync_string:

9d00a4bc <_fsync_string>:
9d00a4bc:	03e00008 	jr	ra
9d00a4c0:	24020001 	li	v0,1

Disassembly of section .text._weak_pthread_mutex_init:

9d00a4c4 <_weak_pthread_mutex_init>:
9d00a4c4:	03e00008 	jr	ra
9d00a4c8:	00001021 	move	v0,zero

Disassembly of section .text._weak_pthread_mutex_destroy:

9d00a4cc <_weak_pthread_mutex_destroy>:
9d00a4cc:	03e00008 	jr	ra
9d00a4d0:	00001021 	move	v0,zero

Disassembly of section .text._weak_pthread_mutex_lock:

9d00a4d4 <_weak_pthread_mutex_lock>:
9d00a4d4:	03e00008 	jr	ra
9d00a4d8:	00001021 	move	v0,zero

Disassembly of section .text._weak_pthread_mutex_trylock:

9d00a4dc <_weak_pthread_mutex_trylock>:
9d00a4dc:	03e00008 	jr	ra
9d00a4e0:	00001021 	move	v0,zero

Disassembly of section .text._weak_pthread_mutex_unlock:

9d00a4e4 <_weak_pthread_mutex_unlock>:
9d00a4e4:	03e00008 	jr	ra
9d00a4e8:	00001021 	move	v0,zero

Disassembly of section .text._weak_pthread_mutex_setname_np:

9d00a4ec <_weak_pthread_mutex_setname_np>:
9d00a4ec:	03e00008 	jr	ra
9d00a4f0:	00001021 	move	v0,zero

Disassembly of section .text._weak_pthread_mutexattr_init:

9d00a4f4 <_weak_pthread_mutexattr_init>:
9d00a4f4:	03e00008 	jr	ra
9d00a4f8:	00001021 	move	v0,zero

Disassembly of section .text._weak_pthread_mutexattr_destroy:

9d00a4fc <_weak_pthread_mutexattr_destroy>:
9d00a4fc:	03e00008 	jr	ra
9d00a500:	00001021 	move	v0,zero

Disassembly of section .text._weak_pthread_mutexattr_setname_np:

9d00a504 <_weak_pthread_mutexattr_setname_np>:
9d00a504:	03e00008 	jr	ra
9d00a508:	00001021 	move	v0,zero

Disassembly of section .text._weak_pthread_mutexattr_settype_np:

9d00a50c <_weak_pthread_mutexattr_settype_np>:
9d00a50c:	03e00008 	jr	ra
9d00a510:	00001021 	move	v0,zero

Disassembly of section .text._weak_pthread_sysconf_np:

9d00a514 <_weak_pthread_sysconf_np>:
9d00a514:	03e00008 	jr	ra
9d00a518:	2402ffff 	li	v0,-1

Disassembly of section .text._weak_pthread_sigdisable_np:

9d00a51c <_weak_pthread_sigdisable_np>:
9d00a51c:	03e00008 	jr	ra
9d00a520:	00000000 	nop

Disassembly of section .text._weak_pthread_sigrestore_np:

9d00a524 <_weak_pthread_sigrestore_np>:
9d00a524:	03e00008 	jr	ra
9d00a528:	00000000 	nop

Disassembly of section .text._weak__pthread_cleanup_push:

9d00a52c <_weak__pthread_cleanup_push>:
9d00a52c:	03e00008 	jr	ra
9d00a530:	00000000 	nop

Disassembly of section .text._weak__pthread_cleanup_pop:

9d00a534 <_weak__pthread_cleanup_pop>:
9d00a534:	03e00008 	jr	ra
9d00a538:	00000000 	nop

Disassembly of section .text._weak__pthread_cleanup_push_defer:

9d00a53c <_weak__pthread_cleanup_push_defer>:
9d00a53c:	03e00008 	jr	ra
9d00a540:	00000000 	nop

Disassembly of section .text._weak__pthread_cleanup_pop_restore:

9d00a544 <_weak__pthread_cleanup_pop_restore>:
9d00a544:	03e00008 	jr	ra
9d00a548:	00000000 	nop

Disassembly of section .text._weak_pthread_key_create:

9d00a54c <_weak_pthread_key_create>:
9d00a54c:	03e00008 	jr	ra
9d00a550:	2402ffff 	li	v0,-1

Disassembly of section .text._weak_pthread_setspecific:

9d00a554 <_weak_pthread_setspecific>:
9d00a554:	03e00008 	jr	ra
9d00a558:	2402ffff 	li	v0,-1

Disassembly of section .text._weak_pthread_getspecific:

9d00a55c <_weak_pthread_getspecific>:
9d00a55c:	03e00008 	jr	ra
9d00a560:	00001021 	move	v0,zero

Disassembly of section .text._weak__libc_private_storage:

9d00a564 <_weak__libc_private_storage>:
9d00a564:	03e00008 	jr	ra
9d00a568:	00a01021 	move	v0,a1

Disassembly of section .text.getpagesize:

9d00a56c <getpagesize>:
9d00a56c:	03e00008 	jr	ra
9d00a570:	24020080 	li	v0,128

Disassembly of section .text._exit:

9d00a574 <_exit>:
9d00a574:	0b40295d 	j	9d00a574 <_exit>
9d00a578:	00000000 	nop

Disassembly of section .text.isatty:

9d00a57c <isatty>:
9d00a57c:	03e00008 	jr	ra
9d00a580:	00001021 	move	v0,zero
